
rv64ui-p-fence_i:     file format elf64-littleriscv


Disassembly of section .text:

0000000080000000 <_start>:
    80000000:	0480006f          	j	80000048 <reset_vector>

0000000080000004 <trap_vector>:
    80000004:	34202f73          	csrr	x30,mcause
    80000008:	00800f93          	li	x31,8
    8000000c:	03ff0863          	beq	x30,x31,8000003c <write_tohost>
    80000010:	00900f93          	li	x31,9
    80000014:	03ff0463          	beq	x30,x31,8000003c <write_tohost>
    80000018:	00b00f93          	li	x31,11
    8000001c:	03ff0063          	beq	x30,x31,8000003c <write_tohost>
    80000020:	00000f13          	li	x30,0
    80000024:	000f0463          	beqz	x30,8000002c <trap_vector+0x28>
    80000028:	000f0067          	jr	x30
    8000002c:	34202f73          	csrr	x30,mcause
    80000030:	000f5463          	bgez	x30,80000038 <handle_exception>
    80000034:	0040006f          	j	80000038 <handle_exception>

0000000080000038 <handle_exception>:
    80000038:	5391e193          	ori	x3,x3,1337

000000008000003c <write_tohost>:
    8000003c:	00000f17          	auipc	x30,0x0
    80000040:	2c3f2223          	sw	x3,708(x30) # 80000300 <tohost>
    80000044:	ff9ff06f          	j	8000003c <write_tohost>

0000000080000048 <reset_vector>:
    80000048:	00000093          	li	x1,0
    8000004c:	00000113          	li	x2,0
    80000050:	00000193          	li	x3,0
    80000054:	00000213          	li	x4,0
    80000058:	00000293          	li	x5,0
    8000005c:	00000313          	li	x6,0
    80000060:	00000393          	li	x7,0
    80000064:	00000413          	li	x8,0
    80000068:	00000493          	li	x9,0
    8000006c:	00000513          	li	x10,0
    80000070:	00000593          	li	x11,0
    80000074:	00000613          	li	x12,0
    80000078:	00000693          	li	x13,0
    8000007c:	00000713          	li	x14,0
    80000080:	00000793          	li	x15,0
    80000084:	00000813          	li	x16,0
    80000088:	00000893          	li	x17,0
    8000008c:	00000913          	li	x18,0
    80000090:	00000993          	li	x19,0
    80000094:	00000a13          	li	x20,0
    80000098:	00000a93          	li	x21,0
    8000009c:	00000b13          	li	x22,0
    800000a0:	00000b93          	li	x23,0
    800000a4:	00000c13          	li	x24,0
    800000a8:	00000c93          	li	x25,0
    800000ac:	00000d13          	li	x26,0
    800000b0:	00000d93          	li	x27,0
    800000b4:	00000e13          	li	x28,0
    800000b8:	00000e93          	li	x29,0
    800000bc:	00000f13          	li	x30,0
    800000c0:	00000f93          	li	x31,0
    800000c4:	f1402573          	csrr	x10,mhartid
    800000c8:	00051063          	bnez	x10,800000c8 <reset_vector+0x80>
    800000cc:	00000297          	auipc	x5,0x0
    800000d0:	01028293          	addi	x5,x5,16 # 800000dc <reset_vector+0x94>
    800000d4:	30529073          	csrw	mtvec,x5
    800000d8:	18005073          	csrwi	satp,0
    800000dc:	00000297          	auipc	x5,0x0
    800000e0:	02428293          	addi	x5,x5,36 # 80000100 <reset_vector+0xb8>
    800000e4:	30529073          	csrw	mtvec,x5
    800000e8:	0010029b          	addiw	x5,x0,1
    800000ec:	03529293          	slli	x5,x5,0x35
    800000f0:	fff28293          	addi	x5,x5,-1
    800000f4:	3b029073          	csrw	pmpaddr0,x5
    800000f8:	01f00293          	li	x5,31
    800000fc:	3a029073          	csrw	pmpcfg0,x5
    80000100:	30405073          	csrwi	mie,0
    80000104:	00000297          	auipc	x5,0x0
    80000108:	01428293          	addi	x5,x5,20 # 80000118 <reset_vector+0xd0>
    8000010c:	30529073          	csrw	mtvec,x5
    80000110:	30205073          	csrwi	medeleg,0
    80000114:	30305073          	csrwi	mideleg,0
    80000118:	00000193          	li	x3,0
    8000011c:	00000297          	auipc	x5,0x0
    80000120:	ee828293          	addi	x5,x5,-280 # 80000004 <trap_vector>
    80000124:	30529073          	csrw	mtvec,x5
    80000128:	00100513          	li	x10,1
    8000012c:	01f51513          	slli	x10,x10,0x1f
    80000130:	00055c63          	bgez	x10,80000148 <reset_vector+0x100>
    80000134:	0ff0000f          	fence
    80000138:	00100193          	li	x3,1
    8000013c:	05d00893          	li	x17,93
    80000140:	00000513          	li	x10,0
    80000144:	00000073          	ecall
    80000148:	00000293          	li	x5,0
    8000014c:	00028a63          	beqz	x5,80000160 <reset_vector+0x118>
    80000150:	10529073          	csrw	stvec,x5
    80000154:	0000b2b7          	lui	x5,0xb
    80000158:	1092829b          	addiw	x5,x5,265
    8000015c:	30229073          	csrw	medeleg,x5
    80000160:	30005073          	csrwi	mstatus,0
    80000164:	00000297          	auipc	x5,0x0
    80000168:	01428293          	addi	x5,x5,20 # 80000178 <reset_vector+0x130>
    8000016c:	34129073          	csrw	mepc,x5
    80000170:	f1402573          	csrr	x10,mhartid
    80000174:	30200073          	mret
    80000178:	06f00693          	li	x13,111
    8000017c:	00000517          	auipc	x10,0x0
    80000180:	13451503          	lh	x10,308(x10) # 800002b0 <begin_signature>
    80000184:	00000597          	auipc	x11,0x0
    80000188:	12e59583          	lh	x11,302(x11) # 800002b2 <begin_signature+0x2>
    8000018c:	00000013          	nop
    80000190:	00000013          	nop
    80000194:	00000013          	nop
    80000198:	00000013          	nop
    8000019c:	00000013          	nop
    800001a0:	00000013          	nop
    800001a4:	00000013          	nop
    800001a8:	00000013          	nop
    800001ac:	00000013          	nop
    800001b0:	00000013          	nop
    800001b4:	00000013          	nop
    800001b8:	00000013          	nop
    800001bc:	00000013          	nop
    800001c0:	00000297          	auipc	x5,0x0
    800001c4:	0ea29a23          	sh	x10,244(x5) # 800002b4 <begin_signature+0x4>
    800001c8:	00000297          	auipc	x5,0x0
    800001cc:	0eb29723          	sh	x11,238(x5) # 800002b6 <begin_signature+0x6>
    800001d0:	0000100f          	fence.i
    800001d4:	00000797          	auipc	x15,0x0
    800001d8:	0e078793          	addi	x15,x15,224 # 800002b4 <begin_signature+0x4>
    800001dc:	00078367          	jalr	x6,x15

00000000800001e0 <test_2>:
    800001e0:	00200193          	li	x3,2
    800001e4:	00000013          	nop
    800001e8:	1bc00393          	li	x7,444
    800001ec:	06769a63          	bne	x13,x7,80000260 <fail>
    800001f0:	06400713          	li	x14,100
    800001f4:	fff70713          	addi	x14,x14,-1
    800001f8:	fe071ee3          	bnez	x14,800001f4 <test_2+0x14>
    800001fc:	00000297          	auipc	x5,0x0
    80000200:	0ca29023          	sh	x10,192(x5) # 800002bc <begin_signature+0xc>
    80000204:	00000297          	auipc	x5,0x0
    80000208:	0ab29d23          	sh	x11,186(x5) # 800002be <begin_signature+0xe>
    8000020c:	0000100f          	fence.i
    80000210:	00000013          	nop
    80000214:	00000013          	nop
    80000218:	00000013          	nop
    8000021c:	00000013          	nop
    80000220:	00000013          	nop
    80000224:	00000013          	nop
    80000228:	00000013          	nop
    8000022c:	00000013          	nop
    80000230:	00000013          	nop
    80000234:	00000013          	nop
    80000238:	00000013          	nop
    8000023c:	00000013          	nop
    80000240:	00000797          	auipc	x15,0x0
    80000244:	07c78793          	addi	x15,x15,124 # 800002bc <begin_signature+0xc>
    80000248:	00078367          	jalr	x6,x15

000000008000024c <test_3>:
    8000024c:	00300193          	li	x3,3
    80000250:	00000013          	nop
    80000254:	30900393          	li	x7,777
    80000258:	00769463          	bne	x13,x7,80000260 <fail>
    8000025c:	02301063          	bne	x0,x3,8000027c <pass>

0000000080000260 <fail>:
    80000260:	0ff0000f          	fence
    80000264:	00018063          	beqz	x3,80000264 <fail+0x4>
    80000268:	00119193          	slli	x3,x3,0x1
    8000026c:	0011e193          	ori	x3,x3,1
    80000270:	05d00893          	li	x17,93
    80000274:	00018513          	mv	x10,x3
    80000278:	00000073          	ecall

000000008000027c <pass>:
    8000027c:	0ff0000f          	fence
    80000280:	00100193          	li	x3,1
    80000284:	05d00893          	li	x17,93
    80000288:	00000513          	li	x10,0
    8000028c:	00000073          	ecall
    80000290:	c0001073          	unimp
    80000294:	0000                	unimp
    80000296:	0000                	unimp
    80000298:	0000                	unimp
    8000029a:	0000                	unimp
    8000029c:	0000                	unimp
    8000029e:	0000                	unimp
    800002a0:	0000                	unimp
    800002a2:	0000                	unimp
    800002a4:	0000                	unimp
    800002a6:	0000                	unimp
