
rv64ui-p-lh:     file format elf64-littleriscv


Disassembly of section .text:

0000000040000000 <__TEXT_START_>:
    40000000:	0480006f          	j	40000048 <reset_vector>

0000000040000004 <trap_vector>:
    40000004:	34202f73          	csrr	x30,mcause
    40000008:	00800f93          	li	x31,8
    4000000c:	03ff0863          	beq	x30,x31,4000003c <write_tohost>
    40000010:	00900f93          	li	x31,9
    40000014:	03ff0463          	beq	x30,x31,4000003c <write_tohost>
    40000018:	00b00f93          	li	x31,11
    4000001c:	03ff0063          	beq	x30,x31,4000003c <write_tohost>
    40000020:	00000f13          	li	x30,0
    40000024:	000f0463          	beqz	x30,4000002c <trap_vector+0x28>
    40000028:	000f0067          	jr	x30
    4000002c:	34202f73          	csrr	x30,mcause
    40000030:	000f5463          	bgez	x30,40000038 <handle_exception>
    40000034:	0040006f          	j	40000038 <handle_exception>

0000000040000038 <handle_exception>:
    40000038:	5391e193          	ori	x3,x3,1337

000000004000003c <write_tohost>:
    4000003c:	00000f17          	auipc	x30,0x0
    40000040:	483f2223          	sw	x3,1156(x30) # 400004c0 <tohost>
    40000044:	ff9ff06f          	j	4000003c <write_tohost>

0000000040000048 <reset_vector>:
    40000048:	00000093          	li	x1,0
    4000004c:	00000113          	li	x2,0
    40000050:	00000193          	li	x3,0
    40000054:	00000213          	li	x4,0
    40000058:	00000293          	li	x5,0
    4000005c:	00000313          	li	x6,0
    40000060:	00000393          	li	x7,0
    40000064:	00000413          	li	x8,0
    40000068:	00000493          	li	x9,0
    4000006c:	00000513          	li	x10,0
    40000070:	00000593          	li	x11,0
    40000074:	00000613          	li	x12,0
    40000078:	00000693          	li	x13,0
    4000007c:	00000713          	li	x14,0
    40000080:	00000793          	li	x15,0
    40000084:	00000813          	li	x16,0
    40000088:	00000893          	li	x17,0
    4000008c:	00000913          	li	x18,0
    40000090:	00000993          	li	x19,0
    40000094:	00000a13          	li	x20,0
    40000098:	00000a93          	li	x21,0
    4000009c:	00000b13          	li	x22,0
    400000a0:	00000b93          	li	x23,0
    400000a4:	00000c13          	li	x24,0
    400000a8:	00000c93          	li	x25,0
    400000ac:	00000d13          	li	x26,0
    400000b0:	00000d93          	li	x27,0
    400000b4:	00000e13          	li	x28,0
    400000b8:	00000e93          	li	x29,0
    400000bc:	00000f13          	li	x30,0
    400000c0:	00000f93          	li	x31,0
    400000c4:	f1402573          	csrr	x10,mhartid
    400000c8:	00051063          	bnez	x10,400000c8 <reset_vector+0x80>
    400000cc:	00000297          	auipc	x5,0x0
    400000d0:	01028293          	addi	x5,x5,16 # 400000dc <reset_vector+0x94>
    400000d4:	30529073          	csrw	mtvec,x5
    400000d8:	18005073          	csrwi	satp,0
    400000dc:	00000297          	auipc	x5,0x0
    400000e0:	02428293          	addi	x5,x5,36 # 40000100 <reset_vector+0xb8>
    400000e4:	30529073          	csrw	mtvec,x5
    400000e8:	0010029b          	addiw	x5,x0,1
    400000ec:	03529293          	slli	x5,x5,0x35
    400000f0:	fff28293          	addi	x5,x5,-1
    400000f4:	3b029073          	csrw	pmpaddr0,x5
    400000f8:	01f00293          	li	x5,31
    400000fc:	3a029073          	csrw	pmpcfg0,x5
    40000100:	30405073          	csrwi	mie,0
    40000104:	00000297          	auipc	x5,0x0
    40000108:	01428293          	addi	x5,x5,20 # 40000118 <reset_vector+0xd0>
    4000010c:	30529073          	csrw	mtvec,x5
    40000110:	30205073          	csrwi	medeleg,0
    40000114:	30305073          	csrwi	mideleg,0
    40000118:	00000193          	li	x3,0
    4000011c:	00000297          	auipc	x5,0x0
    40000120:	ee828293          	addi	x5,x5,-280 # 40000004 <trap_vector>
    40000124:	30529073          	csrw	mtvec,x5
    40000128:	00100513          	li	x10,1
    4000012c:	01f51513          	slli	x10,x10,0x1f
    40000130:	00055c63          	bgez	x10,40000148 <reset_vector+0x100>
    40000134:	0ff0000f          	fence
    40000138:	00100193          	li	x3,1
    4000013c:	05d00893          	li	x17,93
    40000140:	00000513          	li	x10,0
    40000144:	00000073          	ecall
    40000148:	00000293          	li	x5,0
    4000014c:	00028a63          	beqz	x5,40000160 <reset_vector+0x118>
    40000150:	10529073          	csrw	stvec,x5
    40000154:	0000b2b7          	lui	x5,0xb
    40000158:	1092829b          	addiw	x5,x5,265
    4000015c:	30229073          	csrw	medeleg,x5
    40000160:	30005073          	csrwi	mstatus,0
    40000164:	00000297          	auipc	x5,0x0
    40000168:	01428293          	addi	x5,x5,20 # 40000178 <test_2>
    4000016c:	34129073          	csrw	mepc,x5
    40000170:	f1402573          	csrr	x10,mhartid
    40000174:	30200073          	mret

0000000040000178 <test_2>:
    40000178:	00200193          	li	x3,2
    4000017c:	0ff00793          	li	x15,255
    40000180:	00000097          	auipc	x1,0x0
    40000184:	30008093          	addi	x1,x1,768 # 40000480 <begin_signature>
    40000188:	00009703          	lh	x14,0(x1)
    4000018c:	0ff00393          	li	x7,255
    40000190:	28771263          	bne	x14,x7,40000414 <fail>

0000000040000194 <test_3>:
    40000194:	00300193          	li	x3,3
    40000198:	f0000793          	li	x15,-256
    4000019c:	00000097          	auipc	x1,0x0
    400001a0:	2e408093          	addi	x1,x1,740 # 40000480 <begin_signature>
    400001a4:	00209703          	lh	x14,2(x1)
    400001a8:	f0000393          	li	x7,-256
    400001ac:	26771463          	bne	x14,x7,40000414 <fail>

00000000400001b0 <test_4>:
    400001b0:	00400193          	li	x3,4
    400001b4:	000017b7          	lui	x15,0x1
    400001b8:	ff07879b          	addiw	x15,x15,-16
    400001bc:	00000097          	auipc	x1,0x0
    400001c0:	2c408093          	addi	x1,x1,708 # 40000480 <begin_signature>
    400001c4:	00409703          	lh	x14,4(x1)
    400001c8:	000013b7          	lui	x7,0x1
    400001cc:	ff03839b          	addiw	x7,x7,-16
    400001d0:	24771263          	bne	x14,x7,40000414 <fail>

00000000400001d4 <test_5>:
    400001d4:	00500193          	li	x3,5
    400001d8:	fffff7b7          	lui	x15,0xfffff
    400001dc:	00f7879b          	addiw	x15,x15,15
    400001e0:	00000097          	auipc	x1,0x0
    400001e4:	2a008093          	addi	x1,x1,672 # 40000480 <begin_signature>
    400001e8:	00609703          	lh	x14,6(x1)
    400001ec:	fffff3b7          	lui	x7,0xfffff
    400001f0:	00f3839b          	addiw	x7,x7,15
    400001f4:	22771063          	bne	x14,x7,40000414 <fail>

00000000400001f8 <test_6>:
    400001f8:	00600193          	li	x3,6
    400001fc:	0ff00793          	li	x15,255
    40000200:	00000097          	auipc	x1,0x0
    40000204:	28608093          	addi	x1,x1,646 # 40000486 <tdat4>
    40000208:	ffa09703          	lh	x14,-6(x1)
    4000020c:	0ff00393          	li	x7,255
    40000210:	20771263          	bne	x14,x7,40000414 <fail>

0000000040000214 <test_7>:
    40000214:	00700193          	li	x3,7
    40000218:	f0000793          	li	x15,-256
    4000021c:	00000097          	auipc	x1,0x0
    40000220:	26a08093          	addi	x1,x1,618 # 40000486 <tdat4>
    40000224:	ffc09703          	lh	x14,-4(x1)
    40000228:	f0000393          	li	x7,-256
    4000022c:	1e771463          	bne	x14,x7,40000414 <fail>

0000000040000230 <test_8>:
    40000230:	00800193          	li	x3,8
    40000234:	000017b7          	lui	x15,0x1
    40000238:	ff07879b          	addiw	x15,x15,-16
    4000023c:	00000097          	auipc	x1,0x0
    40000240:	24a08093          	addi	x1,x1,586 # 40000486 <tdat4>
    40000244:	ffe09703          	lh	x14,-2(x1)
    40000248:	000013b7          	lui	x7,0x1
    4000024c:	ff03839b          	addiw	x7,x7,-16
    40000250:	1c771263          	bne	x14,x7,40000414 <fail>

0000000040000254 <test_9>:
    40000254:	00900193          	li	x3,9
    40000258:	fffff7b7          	lui	x15,0xfffff
    4000025c:	00f7879b          	addiw	x15,x15,15
    40000260:	00000097          	auipc	x1,0x0
    40000264:	22608093          	addi	x1,x1,550 # 40000486 <tdat4>
    40000268:	00009703          	lh	x14,0(x1)
    4000026c:	fffff3b7          	lui	x7,0xfffff
    40000270:	00f3839b          	addiw	x7,x7,15
    40000274:	1a771063          	bne	x14,x7,40000414 <fail>

0000000040000278 <test_10>:
    40000278:	00a00193          	li	x3,10
    4000027c:	00000097          	auipc	x1,0x0
    40000280:	20408093          	addi	x1,x1,516 # 40000480 <begin_signature>
    40000284:	fe008093          	addi	x1,x1,-32
    40000288:	02009283          	lh	x5,32(x1)
    4000028c:	0ff00393          	li	x7,255
    40000290:	18729263          	bne	x5,x7,40000414 <fail>

0000000040000294 <test_11>:
    40000294:	00b00193          	li	x3,11
    40000298:	00000097          	auipc	x1,0x0
    4000029c:	1e808093          	addi	x1,x1,488 # 40000480 <begin_signature>
    400002a0:	ffb08093          	addi	x1,x1,-5
    400002a4:	00709283          	lh	x5,7(x1)
    400002a8:	f0000393          	li	x7,-256
    400002ac:	16729463          	bne	x5,x7,40000414 <fail>

00000000400002b0 <test_12>:
    400002b0:	00c00193          	li	x3,12
    400002b4:	00000213          	li	x4,0
    400002b8:	00000097          	auipc	x1,0x0
    400002bc:	1ca08093          	addi	x1,x1,458 # 40000482 <tdat2>
    400002c0:	00209703          	lh	x14,2(x1)
    400002c4:	00070313          	mv	x6,x14
    400002c8:	000013b7          	lui	x7,0x1
    400002cc:	ff03839b          	addiw	x7,x7,-16
    400002d0:	14731263          	bne	x6,x7,40000414 <fail>
    400002d4:	00120213          	addi	x4,x4,1 # 1 <__TEXT_START_-0x3fffffff>
    400002d8:	00200293          	li	x5,2
    400002dc:	fc521ee3          	bne	x4,x5,400002b8 <test_12+0x8>

00000000400002e0 <test_13>:
    400002e0:	00d00193          	li	x3,13
    400002e4:	00000213          	li	x4,0
    400002e8:	00000097          	auipc	x1,0x0
    400002ec:	19c08093          	addi	x1,x1,412 # 40000484 <tdat3>
    400002f0:	00209703          	lh	x14,2(x1)
    400002f4:	00000013          	nop
    400002f8:	00070313          	mv	x6,x14
    400002fc:	fffff3b7          	lui	x7,0xfffff
    40000300:	00f3839b          	addiw	x7,x7,15
    40000304:	10731863          	bne	x6,x7,40000414 <fail>
    40000308:	00120213          	addi	x4,x4,1 # 1 <__TEXT_START_-0x3fffffff>
    4000030c:	00200293          	li	x5,2
    40000310:	fc521ce3          	bne	x4,x5,400002e8 <test_13+0x8>

0000000040000314 <test_14>:
    40000314:	00e00193          	li	x3,14
    40000318:	00000213          	li	x4,0
    4000031c:	00000097          	auipc	x1,0x0
    40000320:	16408093          	addi	x1,x1,356 # 40000480 <begin_signature>
    40000324:	00209703          	lh	x14,2(x1)
    40000328:	00000013          	nop
    4000032c:	00000013          	nop
    40000330:	00070313          	mv	x6,x14
    40000334:	f0000393          	li	x7,-256
    40000338:	0c731e63          	bne	x6,x7,40000414 <fail>
    4000033c:	00120213          	addi	x4,x4,1 # 1 <__TEXT_START_-0x3fffffff>
    40000340:	00200293          	li	x5,2
    40000344:	fc521ce3          	bne	x4,x5,4000031c <test_14+0x8>

0000000040000348 <test_15>:
    40000348:	00f00193          	li	x3,15
    4000034c:	00000213          	li	x4,0
    40000350:	00000097          	auipc	x1,0x0
    40000354:	13208093          	addi	x1,x1,306 # 40000482 <tdat2>
    40000358:	00209703          	lh	x14,2(x1)
    4000035c:	000013b7          	lui	x7,0x1
    40000360:	ff03839b          	addiw	x7,x7,-16
    40000364:	0a771863          	bne	x14,x7,40000414 <fail>
    40000368:	00120213          	addi	x4,x4,1 # 1 <__TEXT_START_-0x3fffffff>
    4000036c:	00200293          	li	x5,2
    40000370:	fe5210e3          	bne	x4,x5,40000350 <test_15+0x8>

0000000040000374 <test_16>:
    40000374:	01000193          	li	x3,16
    40000378:	00000213          	li	x4,0
    4000037c:	00000097          	auipc	x1,0x0
    40000380:	10808093          	addi	x1,x1,264 # 40000484 <tdat3>
    40000384:	00000013          	nop
    40000388:	00209703          	lh	x14,2(x1)
    4000038c:	fffff3b7          	lui	x7,0xfffff
    40000390:	00f3839b          	addiw	x7,x7,15
    40000394:	08771063          	bne	x14,x7,40000414 <fail>
    40000398:	00120213          	addi	x4,x4,1 # 1 <__TEXT_START_-0x3fffffff>
    4000039c:	00200293          	li	x5,2
    400003a0:	fc521ee3          	bne	x4,x5,4000037c <test_16+0x8>

00000000400003a4 <test_17>:
    400003a4:	01100193          	li	x3,17
    400003a8:	00000213          	li	x4,0
    400003ac:	00000097          	auipc	x1,0x0
    400003b0:	0d408093          	addi	x1,x1,212 # 40000480 <begin_signature>
    400003b4:	00000013          	nop
    400003b8:	00000013          	nop
    400003bc:	00209703          	lh	x14,2(x1)
    400003c0:	f0000393          	li	x7,-256
    400003c4:	04771863          	bne	x14,x7,40000414 <fail>
    400003c8:	00120213          	addi	x4,x4,1 # 1 <__TEXT_START_-0x3fffffff>
    400003cc:	00200293          	li	x5,2
    400003d0:	fc521ee3          	bne	x4,x5,400003ac <test_17+0x8>

00000000400003d4 <test_18>:
    400003d4:	01200193          	li	x3,18
    400003d8:	00000297          	auipc	x5,0x0
    400003dc:	0a828293          	addi	x5,x5,168 # 40000480 <begin_signature>
    400003e0:	00029103          	lh	x2,0(x5)
    400003e4:	00200113          	li	x2,2
    400003e8:	00200393          	li	x7,2
    400003ec:	02711463          	bne	x2,x7,40000414 <fail>

00000000400003f0 <test_19>:
    400003f0:	01300193          	li	x3,19
    400003f4:	00000297          	auipc	x5,0x0
    400003f8:	08c28293          	addi	x5,x5,140 # 40000480 <begin_signature>
    400003fc:	00029103          	lh	x2,0(x5)
    40000400:	00000013          	nop
    40000404:	00200113          	li	x2,2
    40000408:	00200393          	li	x7,2
    4000040c:	00711463          	bne	x2,x7,40000414 <fail>
    40000410:	02301063          	bne	x0,x3,40000430 <pass>

0000000040000414 <fail>:
    40000414:	0ff0000f          	fence
    40000418:	00018063          	beqz	x3,40000418 <fail+0x4>
    4000041c:	00119193          	slli	x3,x3,0x1
    40000420:	0011e193          	ori	x3,x3,1
    40000424:	05d00893          	li	x17,93
    40000428:	00018513          	mv	x10,x3
    4000042c:	00000073          	ecall

0000000040000430 <pass>:
    40000430:	0ff0000f          	fence
    40000434:	00100193          	li	x3,1
    40000438:	05d00893          	li	x17,93
    4000043c:	00000513          	li	x10,0
    40000440:	00000073          	ecall
    40000444:	c0001073          	unimp
    40000448:	0000                	unimp
    4000044a:	0000                	unimp
    4000044c:	0000                	unimp
    4000044e:	0000                	unimp
    40000450:	0000                	unimp
    40000452:	0000                	unimp
    40000454:	0000                	unimp
    40000456:	0000                	unimp
    40000458:	0000                	unimp
    4000045a:	0000                	unimp
    4000045c:	0000                	unimp
    4000045e:	0000                	unimp
    40000460:	0000                	unimp
    40000462:	0000                	unimp
    40000464:	0000                	unimp
    40000466:	0000                	unimp
    40000468:	0000                	unimp
    4000046a:	0000                	unimp
    4000046c:	0000                	unimp
    4000046e:	0000                	unimp
    40000470:	0000                	unimp
    40000472:	0000                	unimp
    40000474:	0000                	unimp
    40000476:	0000                	unimp
    40000478:	0000                	unimp
    4000047a:	0000                	unimp
