
rv64ui-p-ld:     file format elf64-littleriscv


Disassembly of section .text:

0000000080000000 <_start>:
    80000000:	0480006f          	j	80000048 <reset_vector>

0000000080000004 <trap_vector>:
    80000004:	34202f73          	csrr	x30,mcause
    80000008:	00800f93          	li	x31,8
    8000000c:	03ff0863          	beq	x30,x31,8000003c <write_tohost>
    80000010:	00900f93          	li	x31,9
    80000014:	03ff0463          	beq	x30,x31,8000003c <write_tohost>
    80000018:	00b00f93          	li	x31,11
    8000001c:	03ff0063          	beq	x30,x31,8000003c <write_tohost>
    80000020:	00000f13          	li	x30,0
    80000024:	000f0463          	beqz	x30,8000002c <trap_vector+0x28>
    80000028:	000f0067          	jr	x30
    8000002c:	34202f73          	csrr	x30,mcause
    80000030:	000f5463          	bgez	x30,80000038 <handle_exception>
    80000034:	0040006f          	j	80000038 <handle_exception>

0000000080000038 <handle_exception>:
    80000038:	5391e193          	ori	x3,x3,1337

000000008000003c <write_tohost>:
    8000003c:	00000f17          	auipc	x30,0x0
    80000040:	683f2223          	sw	x3,1668(x30) # 800006c0 <tohost>
    80000044:	ff9ff06f          	j	8000003c <write_tohost>

0000000080000048 <reset_vector>:
    80000048:	00000093          	li	x1,0
    8000004c:	00000113          	li	x2,0
    80000050:	00000193          	li	x3,0
    80000054:	00000213          	li	x4,0
    80000058:	00000293          	li	x5,0
    8000005c:	00000313          	li	x6,0
    80000060:	00000393          	li	x7,0
    80000064:	00000413          	li	x8,0
    80000068:	00000493          	li	x9,0
    8000006c:	00000513          	li	x10,0
    80000070:	00000593          	li	x11,0
    80000074:	00000613          	li	x12,0
    80000078:	00000693          	li	x13,0
    8000007c:	00000713          	li	x14,0
    80000080:	00000793          	li	x15,0
    80000084:	00000813          	li	x16,0
    80000088:	00000893          	li	x17,0
    8000008c:	00000913          	li	x18,0
    80000090:	00000993          	li	x19,0
    80000094:	00000a13          	li	x20,0
    80000098:	00000a93          	li	x21,0
    8000009c:	00000b13          	li	x22,0
    800000a0:	00000b93          	li	x23,0
    800000a4:	00000c13          	li	x24,0
    800000a8:	00000c93          	li	x25,0
    800000ac:	00000d13          	li	x26,0
    800000b0:	00000d93          	li	x27,0
    800000b4:	00000e13          	li	x28,0
    800000b8:	00000e93          	li	x29,0
    800000bc:	00000f13          	li	x30,0
    800000c0:	00000f93          	li	x31,0
    800000c4:	f1402573          	csrr	x10,mhartid
    800000c8:	00051063          	bnez	x10,800000c8 <reset_vector+0x80>
    800000cc:	00000297          	auipc	x5,0x0
    800000d0:	01028293          	addi	x5,x5,16 # 800000dc <reset_vector+0x94>
    800000d4:	30529073          	csrw	mtvec,x5
    800000d8:	18005073          	csrwi	satp,0
    800000dc:	00000297          	auipc	x5,0x0
    800000e0:	02428293          	addi	x5,x5,36 # 80000100 <reset_vector+0xb8>
    800000e4:	30529073          	csrw	mtvec,x5
    800000e8:	0010029b          	addiw	x5,x0,1
    800000ec:	03529293          	slli	x5,x5,0x35
    800000f0:	fff28293          	addi	x5,x5,-1
    800000f4:	3b029073          	csrw	pmpaddr0,x5
    800000f8:	01f00293          	li	x5,31
    800000fc:	3a029073          	csrw	pmpcfg0,x5
    80000100:	30405073          	csrwi	mie,0
    80000104:	00000297          	auipc	x5,0x0
    80000108:	01428293          	addi	x5,x5,20 # 80000118 <reset_vector+0xd0>
    8000010c:	30529073          	csrw	mtvec,x5
    80000110:	30205073          	csrwi	medeleg,0
    80000114:	30305073          	csrwi	mideleg,0
    80000118:	00000193          	li	x3,0
    8000011c:	00000297          	auipc	x5,0x0
    80000120:	ee828293          	addi	x5,x5,-280 # 80000004 <trap_vector>
    80000124:	30529073          	csrw	mtvec,x5
    80000128:	00100513          	li	x10,1
    8000012c:	01f51513          	slli	x10,x10,0x1f
    80000130:	00055c63          	bgez	x10,80000148 <reset_vector+0x100>
    80000134:	0ff0000f          	fence
    80000138:	00100193          	li	x3,1
    8000013c:	05d00893          	li	x17,93
    80000140:	00000513          	li	x10,0
    80000144:	00000073          	ecall
    80000148:	00000293          	li	x5,0
    8000014c:	00028a63          	beqz	x5,80000160 <reset_vector+0x118>
    80000150:	10529073          	csrw	stvec,x5
    80000154:	0000b2b7          	lui	x5,0xb
    80000158:	1092829b          	addiw	x5,x5,265
    8000015c:	30229073          	csrw	medeleg,x5
    80000160:	30005073          	csrwi	mstatus,0
    80000164:	00000297          	auipc	x5,0x0
    80000168:	01428293          	addi	x5,x5,20 # 80000178 <test_2>
    8000016c:	34129073          	csrw	mepc,x5
    80000170:	f1402573          	csrr	x10,mhartid
    80000174:	30200073          	mret

0000000080000178 <test_2>:
    80000178:	00200193          	li	x3,2
    8000017c:	00ff07b7          	lui	x15,0xff0
    80000180:	0ff7879b          	addiw	x15,x15,255
    80000184:	01079793          	slli	x15,x15,0x10
    80000188:	0ff78793          	addi	x15,x15,255 # ff00ff <_start-0x7f00ff01>
    8000018c:	01079793          	slli	x15,x15,0x10
    80000190:	0ff78793          	addi	x15,x15,255
    80000194:	00000097          	auipc	x1,0x0
    80000198:	4ec08093          	addi	x1,x1,1260 # 80000680 <begin_signature>
    8000019c:	0000b703          	ld	x14,0(x1)
    800001a0:	00ff03b7          	lui	x7,0xff0
    800001a4:	0ff3839b          	addiw	x7,x7,255
    800001a8:	01039393          	slli	x7,x7,0x10
    800001ac:	0ff38393          	addi	x7,x7,255 # ff00ff <_start-0x7f00ff01>
    800001b0:	01039393          	slli	x7,x7,0x10
    800001b4:	0ff38393          	addi	x7,x7,255
    800001b8:	46771663          	bne	x14,x7,80000624 <fail>

00000000800001bc <test_3>:
    800001bc:	00300193          	li	x3,3
    800001c0:	ff0107b7          	lui	x15,0xff010
    800001c4:	f017879b          	addiw	x15,x15,-255
    800001c8:	01079793          	slli	x15,x15,0x10
    800001cc:	f0178793          	addi	x15,x15,-255 # ffffffffff00ff01 <fromhost+0xffffffff7f00f801>
    800001d0:	01079793          	slli	x15,x15,0x10
    800001d4:	f0078793          	addi	x15,x15,-256
    800001d8:	00000097          	auipc	x1,0x0
    800001dc:	4a808093          	addi	x1,x1,1192 # 80000680 <begin_signature>
    800001e0:	0080b703          	ld	x14,8(x1)
    800001e4:	ff0103b7          	lui	x7,0xff010
    800001e8:	f013839b          	addiw	x7,x7,-255
    800001ec:	01039393          	slli	x7,x7,0x10
    800001f0:	f0138393          	addi	x7,x7,-255 # ffffffffff00ff01 <fromhost+0xffffffff7f00f801>
    800001f4:	01039393          	slli	x7,x7,0x10
    800001f8:	f0038393          	addi	x7,x7,-256
    800001fc:	42771463          	bne	x14,x7,80000624 <fail>

0000000080000200 <test_4>:
    80000200:	00400193          	li	x3,4
    80000204:	000107b7          	lui	x15,0x10
    80000208:	f017879b          	addiw	x15,x15,-255
    8000020c:	01079793          	slli	x15,x15,0x10
    80000210:	f0178793          	addi	x15,x15,-255 # ff01 <_start-0x7fff00ff>
    80000214:	01079793          	slli	x15,x15,0x10
    80000218:	f0178793          	addi	x15,x15,-255
    8000021c:	00c79793          	slli	x15,x15,0xc
    80000220:	ff078793          	addi	x15,x15,-16
    80000224:	00000097          	auipc	x1,0x0
    80000228:	45c08093          	addi	x1,x1,1116 # 80000680 <begin_signature>
    8000022c:	0100b703          	ld	x14,16(x1)
    80000230:	000103b7          	lui	x7,0x10
    80000234:	f013839b          	addiw	x7,x7,-255
    80000238:	01039393          	slli	x7,x7,0x10
    8000023c:	f0138393          	addi	x7,x7,-255 # ff01 <_start-0x7fff00ff>
    80000240:	01039393          	slli	x7,x7,0x10
    80000244:	f0138393          	addi	x7,x7,-255
    80000248:	00c39393          	slli	x7,x7,0xc
    8000024c:	ff038393          	addi	x7,x7,-16
    80000250:	3c771a63          	bne	x14,x7,80000624 <fail>

0000000080000254 <test_5>:
    80000254:	00500193          	li	x3,5
    80000258:	ffff07b7          	lui	x15,0xffff0
    8000025c:	0ff7879b          	addiw	x15,x15,255
    80000260:	01079793          	slli	x15,x15,0x10
    80000264:	0ff78793          	addi	x15,x15,255 # ffffffffffff00ff <fromhost+0xffffffff7ffef9ff>
    80000268:	01079793          	slli	x15,x15,0x10
    8000026c:	0ff78793          	addi	x15,x15,255
    80000270:	00c79793          	slli	x15,x15,0xc
    80000274:	00f78793          	addi	x15,x15,15
    80000278:	00000097          	auipc	x1,0x0
    8000027c:	40808093          	addi	x1,x1,1032 # 80000680 <begin_signature>
    80000280:	0180b703          	ld	x14,24(x1)
    80000284:	ffff03b7          	lui	x7,0xffff0
    80000288:	0ff3839b          	addiw	x7,x7,255
    8000028c:	01039393          	slli	x7,x7,0x10
    80000290:	0ff38393          	addi	x7,x7,255 # ffffffffffff00ff <fromhost+0xffffffff7ffef9ff>
    80000294:	01039393          	slli	x7,x7,0x10
    80000298:	0ff38393          	addi	x7,x7,255
    8000029c:	00c39393          	slli	x7,x7,0xc
    800002a0:	00f38393          	addi	x7,x7,15
    800002a4:	38771063          	bne	x14,x7,80000624 <fail>

00000000800002a8 <test_6>:
    800002a8:	00600193          	li	x3,6
    800002ac:	00ff07b7          	lui	x15,0xff0
    800002b0:	0ff7879b          	addiw	x15,x15,255
    800002b4:	01079793          	slli	x15,x15,0x10
    800002b8:	0ff78793          	addi	x15,x15,255 # ff00ff <_start-0x7f00ff01>
    800002bc:	01079793          	slli	x15,x15,0x10
    800002c0:	0ff78793          	addi	x15,x15,255
    800002c4:	00000097          	auipc	x1,0x0
    800002c8:	3d408093          	addi	x1,x1,980 # 80000698 <tdat4>
    800002cc:	fe80b703          	ld	x14,-24(x1)
    800002d0:	00ff03b7          	lui	x7,0xff0
    800002d4:	0ff3839b          	addiw	x7,x7,255
    800002d8:	01039393          	slli	x7,x7,0x10
    800002dc:	0ff38393          	addi	x7,x7,255 # ff00ff <_start-0x7f00ff01>
    800002e0:	01039393          	slli	x7,x7,0x10
    800002e4:	0ff38393          	addi	x7,x7,255
    800002e8:	32771e63          	bne	x14,x7,80000624 <fail>

00000000800002ec <test_7>:
    800002ec:	00700193          	li	x3,7
    800002f0:	ff0107b7          	lui	x15,0xff010
    800002f4:	f017879b          	addiw	x15,x15,-255
    800002f8:	01079793          	slli	x15,x15,0x10
    800002fc:	f0178793          	addi	x15,x15,-255 # ffffffffff00ff01 <fromhost+0xffffffff7f00f801>
    80000300:	01079793          	slli	x15,x15,0x10
    80000304:	f0078793          	addi	x15,x15,-256
    80000308:	00000097          	auipc	x1,0x0
    8000030c:	39008093          	addi	x1,x1,912 # 80000698 <tdat4>
    80000310:	ff00b703          	ld	x14,-16(x1)
    80000314:	ff0103b7          	lui	x7,0xff010
    80000318:	f013839b          	addiw	x7,x7,-255
    8000031c:	01039393          	slli	x7,x7,0x10
    80000320:	f0138393          	addi	x7,x7,-255 # ffffffffff00ff01 <fromhost+0xffffffff7f00f801>
    80000324:	01039393          	slli	x7,x7,0x10
    80000328:	f0038393          	addi	x7,x7,-256
    8000032c:	2e771c63          	bne	x14,x7,80000624 <fail>

0000000080000330 <test_8>:
    80000330:	00800193          	li	x3,8
    80000334:	000107b7          	lui	x15,0x10
    80000338:	f017879b          	addiw	x15,x15,-255
    8000033c:	01079793          	slli	x15,x15,0x10
    80000340:	f0178793          	addi	x15,x15,-255 # ff01 <_start-0x7fff00ff>
    80000344:	01079793          	slli	x15,x15,0x10
    80000348:	f0178793          	addi	x15,x15,-255
    8000034c:	00c79793          	slli	x15,x15,0xc
    80000350:	ff078793          	addi	x15,x15,-16
    80000354:	00000097          	auipc	x1,0x0
    80000358:	34408093          	addi	x1,x1,836 # 80000698 <tdat4>
    8000035c:	ff80b703          	ld	x14,-8(x1)
    80000360:	000103b7          	lui	x7,0x10
    80000364:	f013839b          	addiw	x7,x7,-255
    80000368:	01039393          	slli	x7,x7,0x10
    8000036c:	f0138393          	addi	x7,x7,-255 # ff01 <_start-0x7fff00ff>
    80000370:	01039393          	slli	x7,x7,0x10
    80000374:	f0138393          	addi	x7,x7,-255
    80000378:	00c39393          	slli	x7,x7,0xc
    8000037c:	ff038393          	addi	x7,x7,-16
    80000380:	2a771263          	bne	x14,x7,80000624 <fail>

0000000080000384 <test_9>:
    80000384:	00900193          	li	x3,9
    80000388:	ffff07b7          	lui	x15,0xffff0
    8000038c:	0ff7879b          	addiw	x15,x15,255
    80000390:	01079793          	slli	x15,x15,0x10
    80000394:	0ff78793          	addi	x15,x15,255 # ffffffffffff00ff <fromhost+0xffffffff7ffef9ff>
    80000398:	01079793          	slli	x15,x15,0x10
    8000039c:	0ff78793          	addi	x15,x15,255
    800003a0:	00c79793          	slli	x15,x15,0xc
    800003a4:	00f78793          	addi	x15,x15,15
    800003a8:	00000097          	auipc	x1,0x0
    800003ac:	2f008093          	addi	x1,x1,752 # 80000698 <tdat4>
    800003b0:	0000b703          	ld	x14,0(x1)
    800003b4:	ffff03b7          	lui	x7,0xffff0
    800003b8:	0ff3839b          	addiw	x7,x7,255
    800003bc:	01039393          	slli	x7,x7,0x10
    800003c0:	0ff38393          	addi	x7,x7,255 # ffffffffffff00ff <fromhost+0xffffffff7ffef9ff>
    800003c4:	01039393          	slli	x7,x7,0x10
    800003c8:	0ff38393          	addi	x7,x7,255
    800003cc:	00c39393          	slli	x7,x7,0xc
    800003d0:	00f38393          	addi	x7,x7,15
    800003d4:	24771863          	bne	x14,x7,80000624 <fail>

00000000800003d8 <test_10>:
    800003d8:	00a00193          	li	x3,10
    800003dc:	00000097          	auipc	x1,0x0
    800003e0:	2a408093          	addi	x1,x1,676 # 80000680 <begin_signature>
    800003e4:	fe008093          	addi	x1,x1,-32
    800003e8:	0200b283          	ld	x5,32(x1)
    800003ec:	00ff03b7          	lui	x7,0xff0
    800003f0:	0ff3839b          	addiw	x7,x7,255
    800003f4:	01039393          	slli	x7,x7,0x10
    800003f8:	0ff38393          	addi	x7,x7,255 # ff00ff <_start-0x7f00ff01>
    800003fc:	01039393          	slli	x7,x7,0x10
    80000400:	0ff38393          	addi	x7,x7,255
    80000404:	22729063          	bne	x5,x7,80000624 <fail>

0000000080000408 <test_11>:
    80000408:	00b00193          	li	x3,11
    8000040c:	00000097          	auipc	x1,0x0
    80000410:	27408093          	addi	x1,x1,628 # 80000680 <begin_signature>
    80000414:	ffd08093          	addi	x1,x1,-3
    80000418:	00b0b283          	ld	x5,11(x1)
    8000041c:	ff0103b7          	lui	x7,0xff010
    80000420:	f013839b          	addiw	x7,x7,-255
    80000424:	01039393          	slli	x7,x7,0x10
    80000428:	f0138393          	addi	x7,x7,-255 # ffffffffff00ff01 <fromhost+0xffffffff7f00f801>
    8000042c:	01039393          	slli	x7,x7,0x10
    80000430:	f0038393          	addi	x7,x7,-256
    80000434:	1e729863          	bne	x5,x7,80000624 <fail>

0000000080000438 <test_12>:
    80000438:	00c00193          	li	x3,12
    8000043c:	00000213          	li	x4,0
    80000440:	00000097          	auipc	x1,0x0
    80000444:	24808093          	addi	x1,x1,584 # 80000688 <tdat2>
    80000448:	0080b703          	ld	x14,8(x1)
    8000044c:	00070313          	mv	x6,x14
    80000450:	000103b7          	lui	x7,0x10
    80000454:	f013839b          	addiw	x7,x7,-255
    80000458:	01039393          	slli	x7,x7,0x10
    8000045c:	f0138393          	addi	x7,x7,-255 # ff01 <_start-0x7fff00ff>
    80000460:	01039393          	slli	x7,x7,0x10
    80000464:	f0138393          	addi	x7,x7,-255
    80000468:	00c39393          	slli	x7,x7,0xc
    8000046c:	ff038393          	addi	x7,x7,-16
    80000470:	1a731a63          	bne	x6,x7,80000624 <fail>
    80000474:	00120213          	addi	x4,x4,1 # 1 <_start-0x7fffffff>
    80000478:	00200293          	li	x5,2
    8000047c:	fc5212e3          	bne	x4,x5,80000440 <test_12+0x8>

0000000080000480 <test_13>:
    80000480:	00d00193          	li	x3,13
    80000484:	00000213          	li	x4,0
    80000488:	00000097          	auipc	x1,0x0
    8000048c:	20808093          	addi	x1,x1,520 # 80000690 <tdat3>
    80000490:	0080b703          	ld	x14,8(x1)
    80000494:	00000013          	nop
    80000498:	00070313          	mv	x6,x14
    8000049c:	ffff03b7          	lui	x7,0xffff0
    800004a0:	0ff3839b          	addiw	x7,x7,255
    800004a4:	01039393          	slli	x7,x7,0x10
    800004a8:	0ff38393          	addi	x7,x7,255 # ffffffffffff00ff <fromhost+0xffffffff7ffef9ff>
    800004ac:	01039393          	slli	x7,x7,0x10
    800004b0:	0ff38393          	addi	x7,x7,255
    800004b4:	00c39393          	slli	x7,x7,0xc
    800004b8:	00f38393          	addi	x7,x7,15
    800004bc:	16731463          	bne	x6,x7,80000624 <fail>
    800004c0:	00120213          	addi	x4,x4,1 # 1 <_start-0x7fffffff>
    800004c4:	00200293          	li	x5,2
    800004c8:	fc5210e3          	bne	x4,x5,80000488 <test_13+0x8>

00000000800004cc <test_14>:
    800004cc:	00e00193          	li	x3,14
    800004d0:	00000213          	li	x4,0
    800004d4:	00000097          	auipc	x1,0x0
    800004d8:	1ac08093          	addi	x1,x1,428 # 80000680 <begin_signature>
    800004dc:	0080b703          	ld	x14,8(x1)
    800004e0:	00000013          	nop
    800004e4:	00000013          	nop
    800004e8:	00070313          	mv	x6,x14
    800004ec:	ff0103b7          	lui	x7,0xff010
    800004f0:	f013839b          	addiw	x7,x7,-255
    800004f4:	01039393          	slli	x7,x7,0x10
    800004f8:	f0138393          	addi	x7,x7,-255 # ffffffffff00ff01 <fromhost+0xffffffff7f00f801>
    800004fc:	01039393          	slli	x7,x7,0x10
    80000500:	f0038393          	addi	x7,x7,-256
    80000504:	12731063          	bne	x6,x7,80000624 <fail>
    80000508:	00120213          	addi	x4,x4,1 # 1 <_start-0x7fffffff>
    8000050c:	00200293          	li	x5,2
    80000510:	fc5212e3          	bne	x4,x5,800004d4 <test_14+0x8>

0000000080000514 <test_15>:
    80000514:	00f00193          	li	x3,15
    80000518:	00000213          	li	x4,0
    8000051c:	00000097          	auipc	x1,0x0
    80000520:	16c08093          	addi	x1,x1,364 # 80000688 <tdat2>
    80000524:	0080b703          	ld	x14,8(x1)
    80000528:	000103b7          	lui	x7,0x10
    8000052c:	f013839b          	addiw	x7,x7,-255
    80000530:	01039393          	slli	x7,x7,0x10
    80000534:	f0138393          	addi	x7,x7,-255 # ff01 <_start-0x7fff00ff>
    80000538:	01039393          	slli	x7,x7,0x10
    8000053c:	f0138393          	addi	x7,x7,-255
    80000540:	00c39393          	slli	x7,x7,0xc
    80000544:	ff038393          	addi	x7,x7,-16
    80000548:	0c771e63          	bne	x14,x7,80000624 <fail>
    8000054c:	00120213          	addi	x4,x4,1 # 1 <_start-0x7fffffff>
    80000550:	00200293          	li	x5,2
    80000554:	fc5214e3          	bne	x4,x5,8000051c <test_15+0x8>

0000000080000558 <test_16>:
    80000558:	01000193          	li	x3,16
    8000055c:	00000213          	li	x4,0
    80000560:	00000097          	auipc	x1,0x0
    80000564:	13008093          	addi	x1,x1,304 # 80000690 <tdat3>
    80000568:	00000013          	nop
    8000056c:	0080b703          	ld	x14,8(x1)
    80000570:	ffff03b7          	lui	x7,0xffff0
    80000574:	0ff3839b          	addiw	x7,x7,255
    80000578:	01039393          	slli	x7,x7,0x10
    8000057c:	0ff38393          	addi	x7,x7,255 # ffffffffffff00ff <fromhost+0xffffffff7ffef9ff>
    80000580:	01039393          	slli	x7,x7,0x10
    80000584:	0ff38393          	addi	x7,x7,255
    80000588:	00c39393          	slli	x7,x7,0xc
    8000058c:	00f38393          	addi	x7,x7,15
    80000590:	08771a63          	bne	x14,x7,80000624 <fail>
    80000594:	00120213          	addi	x4,x4,1 # 1 <_start-0x7fffffff>
    80000598:	00200293          	li	x5,2
    8000059c:	fc5212e3          	bne	x4,x5,80000560 <test_16+0x8>

00000000800005a0 <test_17>:
    800005a0:	01100193          	li	x3,17
    800005a4:	00000213          	li	x4,0
    800005a8:	00000097          	auipc	x1,0x0
    800005ac:	0d808093          	addi	x1,x1,216 # 80000680 <begin_signature>
    800005b0:	00000013          	nop
    800005b4:	00000013          	nop
    800005b8:	0080b703          	ld	x14,8(x1)
    800005bc:	ff0103b7          	lui	x7,0xff010
    800005c0:	f013839b          	addiw	x7,x7,-255
    800005c4:	01039393          	slli	x7,x7,0x10
    800005c8:	f0138393          	addi	x7,x7,-255 # ffffffffff00ff01 <fromhost+0xffffffff7f00f801>
    800005cc:	01039393          	slli	x7,x7,0x10
    800005d0:	f0038393          	addi	x7,x7,-256
    800005d4:	04771863          	bne	x14,x7,80000624 <fail>
    800005d8:	00120213          	addi	x4,x4,1 # 1 <_start-0x7fffffff>
    800005dc:	00200293          	li	x5,2
    800005e0:	fc5214e3          	bne	x4,x5,800005a8 <test_17+0x8>

00000000800005e4 <test_18>:
    800005e4:	01200193          	li	x3,18
    800005e8:	00000297          	auipc	x5,0x0
    800005ec:	09828293          	addi	x5,x5,152 # 80000680 <begin_signature>
    800005f0:	0002b103          	ld	x2,0(x5)
    800005f4:	00200113          	li	x2,2
    800005f8:	00200393          	li	x7,2
    800005fc:	02711463          	bne	x2,x7,80000624 <fail>

0000000080000600 <test_19>:
    80000600:	01300193          	li	x3,19
    80000604:	00000297          	auipc	x5,0x0
    80000608:	07c28293          	addi	x5,x5,124 # 80000680 <begin_signature>
    8000060c:	0002b103          	ld	x2,0(x5)
    80000610:	00000013          	nop
    80000614:	00200113          	li	x2,2
    80000618:	00200393          	li	x7,2
    8000061c:	00711463          	bne	x2,x7,80000624 <fail>
    80000620:	02301063          	bne	x0,x3,80000640 <pass>

0000000080000624 <fail>:
    80000624:	0ff0000f          	fence
    80000628:	00018063          	beqz	x3,80000628 <fail+0x4>
    8000062c:	00119193          	slli	x3,x3,0x1
    80000630:	0011e193          	ori	x3,x3,1
    80000634:	05d00893          	li	x17,93
    80000638:	00018513          	mv	x10,x3
    8000063c:	00000073          	ecall

0000000080000640 <pass>:
    80000640:	0ff0000f          	fence
    80000644:	00100193          	li	x3,1
    80000648:	05d00893          	li	x17,93
    8000064c:	00000513          	li	x10,0
    80000650:	00000073          	ecall
    80000654:	c0001073          	unimp
    80000658:	0000                	unimp
    8000065a:	0000                	unimp
    8000065c:	0000                	unimp
    8000065e:	0000                	unimp
    80000660:	0000                	unimp
    80000662:	0000                	unimp
    80000664:	0000                	unimp
    80000666:	0000                	unimp
    80000668:	0000                	unimp
    8000066a:	0000                	unimp
    8000066c:	0000                	unimp
    8000066e:	0000                	unimp
    80000670:	0000                	unimp
    80000672:	0000                	unimp
    80000674:	0000                	unimp
    80000676:	0000                	unimp
    80000678:	0000                	unimp
    8000067a:	0000                	unimp
