
rv64ui-p-ori:     file format elf64-littleriscv


Disassembly of section .text:

0000000080000000 <_start>:
    80000000:	0480006f          	j	80000048 <reset_vector>

0000000080000004 <trap_vector>:
    80000004:	34202f73          	csrr	x30,mcause
    80000008:	00800f93          	li	x31,8
    8000000c:	03ff0863          	beq	x30,x31,8000003c <write_tohost>
    80000010:	00900f93          	li	x31,9
    80000014:	03ff0463          	beq	x30,x31,8000003c <write_tohost>
    80000018:	00b00f93          	li	x31,11
    8000001c:	03ff0063          	beq	x30,x31,8000003c <write_tohost>
    80000020:	00000f13          	li	x30,0
    80000024:	000f0463          	beqz	x30,8000002c <trap_vector+0x28>
    80000028:	000f0067          	jr	x30
    8000002c:	34202f73          	csrr	x30,mcause
    80000030:	000f5463          	bgez	x30,80000038 <handle_exception>
    80000034:	0040006f          	j	80000038 <handle_exception>

0000000080000038 <handle_exception>:
    80000038:	5391e193          	ori	x3,x3,1337

000000008000003c <write_tohost>:
    8000003c:	00000f17          	auipc	x30,0x0
    80000040:	383f2223          	sw	x3,900(x30) # 800003c0 <begin_signature>
    80000044:	ff9ff06f          	j	8000003c <write_tohost>

0000000080000048 <reset_vector>:
    80000048:	00000093          	li	x1,0
    8000004c:	00000113          	li	x2,0
    80000050:	00000193          	li	x3,0
    80000054:	00000213          	li	x4,0
    80000058:	00000293          	li	x5,0
    8000005c:	00000313          	li	x6,0
    80000060:	00000393          	li	x7,0
    80000064:	00000413          	li	x8,0
    80000068:	00000493          	li	x9,0
    8000006c:	00000513          	li	x10,0
    80000070:	00000593          	li	x11,0
    80000074:	00000613          	li	x12,0
    80000078:	00000693          	li	x13,0
    8000007c:	00000713          	li	x14,0
    80000080:	00000793          	li	x15,0
    80000084:	00000813          	li	x16,0
    80000088:	00000893          	li	x17,0
    8000008c:	00000913          	li	x18,0
    80000090:	00000993          	li	x19,0
    80000094:	00000a13          	li	x20,0
    80000098:	00000a93          	li	x21,0
    8000009c:	00000b13          	li	x22,0
    800000a0:	00000b93          	li	x23,0
    800000a4:	00000c13          	li	x24,0
    800000a8:	00000c93          	li	x25,0
    800000ac:	00000d13          	li	x26,0
    800000b0:	00000d93          	li	x27,0
    800000b4:	00000e13          	li	x28,0
    800000b8:	00000e93          	li	x29,0
    800000bc:	00000f13          	li	x30,0
    800000c0:	00000f93          	li	x31,0
    800000c4:	f1402573          	csrr	x10,mhartid
    800000c8:	00051063          	bnez	x10,800000c8 <reset_vector+0x80>
    800000cc:	00000297          	auipc	x5,0x0
    800000d0:	01028293          	addi	x5,x5,16 # 800000dc <reset_vector+0x94>
    800000d4:	30529073          	csrw	mtvec,x5
    800000d8:	18005073          	csrwi	satp,0
    800000dc:	00000297          	auipc	x5,0x0
    800000e0:	02428293          	addi	x5,x5,36 # 80000100 <reset_vector+0xb8>
    800000e4:	30529073          	csrw	mtvec,x5
    800000e8:	0010029b          	addiw	x5,x0,1
    800000ec:	03529293          	slli	x5,x5,0x35
    800000f0:	fff28293          	addi	x5,x5,-1
    800000f4:	3b029073          	csrw	pmpaddr0,x5
    800000f8:	01f00293          	li	x5,31
    800000fc:	3a029073          	csrw	pmpcfg0,x5
    80000100:	30405073          	csrwi	mie,0
    80000104:	00000297          	auipc	x5,0x0
    80000108:	01428293          	addi	x5,x5,20 # 80000118 <reset_vector+0xd0>
    8000010c:	30529073          	csrw	mtvec,x5
    80000110:	30205073          	csrwi	medeleg,0
    80000114:	30305073          	csrwi	mideleg,0
    80000118:	00000193          	li	x3,0
    8000011c:	00000297          	auipc	x5,0x0
    80000120:	ee828293          	addi	x5,x5,-280 # 80000004 <trap_vector>
    80000124:	30529073          	csrw	mtvec,x5
    80000128:	00100513          	li	x10,1
    8000012c:	01f51513          	slli	x10,x10,0x1f
    80000130:	00055c63          	bgez	x10,80000148 <reset_vector+0x100>
    80000134:	0ff0000f          	fence
    80000138:	00100193          	li	x3,1
    8000013c:	05d00893          	li	x17,93
    80000140:	00000513          	li	x10,0
    80000144:	00000073          	ecall
    80000148:	00000293          	li	x5,0
    8000014c:	00028a63          	beqz	x5,80000160 <reset_vector+0x118>
    80000150:	10529073          	csrw	stvec,x5
    80000154:	0000b2b7          	lui	x5,0xb
    80000158:	1092829b          	addiw	x5,x5,265
    8000015c:	30229073          	csrw	medeleg,x5
    80000160:	30005073          	csrwi	mstatus,0
    80000164:	00000297          	auipc	x5,0x0
    80000168:	01428293          	addi	x5,x5,20 # 80000178 <test_2>
    8000016c:	34129073          	csrw	mepc,x5
    80000170:	f1402573          	csrr	x10,mhartid
    80000174:	30200073          	mret

0000000080000178 <test_2>:
    80000178:	00200193          	li	x3,2
    8000017c:	ff0100b7          	lui	x1,0xff010
    80000180:	f000809b          	addiw	x1,x1,-256
    80000184:	f0f0e713          	ori	x14,x1,-241
    80000188:	f0f00393          	li	x7,-241
    8000018c:	1c771c63          	bne	x14,x7,80000364 <fail>

0000000080000190 <test_3>:
    80000190:	00300193          	li	x3,3
    80000194:	0ff010b7          	lui	x1,0xff01
    80000198:	ff00809b          	addiw	x1,x1,-16
    8000019c:	0f00e713          	ori	x14,x1,240
    800001a0:	0ff013b7          	lui	x7,0xff01
    800001a4:	ff03839b          	addiw	x7,x7,-16
    800001a8:	1a771e63          	bne	x14,x7,80000364 <fail>

00000000800001ac <test_4>:
    800001ac:	00400193          	li	x3,4
    800001b0:	00ff00b7          	lui	x1,0xff0
    800001b4:	0ff0809b          	addiw	x1,x1,255
    800001b8:	70f0e713          	ori	x14,x1,1807
    800001bc:	00ff03b7          	lui	x7,0xff0
    800001c0:	7ff3839b          	addiw	x7,x7,2047
    800001c4:	1a771063          	bne	x14,x7,80000364 <fail>

00000000800001c8 <test_5>:
    800001c8:	00500193          	li	x3,5
    800001cc:	f00ff0b7          	lui	x1,0xf00ff
    800001d0:	00f0809b          	addiw	x1,x1,15
    800001d4:	0f00e713          	ori	x14,x1,240
    800001d8:	f00ff3b7          	lui	x7,0xf00ff
    800001dc:	0ff3839b          	addiw	x7,x7,255
    800001e0:	18771263          	bne	x14,x7,80000364 <fail>

00000000800001e4 <test_6>:
    800001e4:	00600193          	li	x3,6
    800001e8:	000100b7          	lui	x1,0x10
    800001ec:	f010809b          	addiw	x1,x1,-255
    800001f0:	01009093          	slli	x1,x1,0x10
    800001f4:	f0008093          	addi	x1,x1,-256 # ff00 <_start-0x7fff0100>
    800001f8:	0f00e093          	ori	x1,x1,240
    800001fc:	000103b7          	lui	x7,0x10
    80000200:	f013839b          	addiw	x7,x7,-255
    80000204:	01039393          	slli	x7,x7,0x10
    80000208:	ff038393          	addi	x7,x7,-16 # fff0 <_start-0x7fff0010>
    8000020c:	14709c63          	bne	x1,x7,80000364 <fail>

0000000080000210 <test_7>:
    80000210:	00700193          	li	x3,7
    80000214:	00000213          	li	x4,0
    80000218:	0ff010b7          	lui	x1,0xff01
    8000021c:	ff00809b          	addiw	x1,x1,-16
    80000220:	0f00e713          	ori	x14,x1,240
    80000224:	00070313          	mv	x6,x14
    80000228:	00120213          	addi	x4,x4,1 # 1 <_start-0x7fffffff>
    8000022c:	00200293          	li	x5,2
    80000230:	fe5214e3          	bne	x4,x5,80000218 <test_7+0x8>
    80000234:	0ff013b7          	lui	x7,0xff01
    80000238:	ff03839b          	addiw	x7,x7,-16
    8000023c:	12731463          	bne	x6,x7,80000364 <fail>

0000000080000240 <test_8>:
    80000240:	00800193          	li	x3,8
    80000244:	00000213          	li	x4,0
    80000248:	00ff00b7          	lui	x1,0xff0
    8000024c:	0ff0809b          	addiw	x1,x1,255
    80000250:	70f0e713          	ori	x14,x1,1807
    80000254:	00000013          	nop
    80000258:	00070313          	mv	x6,x14
    8000025c:	00120213          	addi	x4,x4,1 # 1 <_start-0x7fffffff>
    80000260:	00200293          	li	x5,2
    80000264:	fe5212e3          	bne	x4,x5,80000248 <test_8+0x8>
    80000268:	00ff03b7          	lui	x7,0xff0
    8000026c:	7ff3839b          	addiw	x7,x7,2047
    80000270:	0e731a63          	bne	x6,x7,80000364 <fail>

0000000080000274 <test_9>:
    80000274:	00900193          	li	x3,9
    80000278:	00000213          	li	x4,0
    8000027c:	f00ff0b7          	lui	x1,0xf00ff
    80000280:	00f0809b          	addiw	x1,x1,15
    80000284:	0f00e713          	ori	x14,x1,240
    80000288:	00000013          	nop
    8000028c:	00000013          	nop
    80000290:	00070313          	mv	x6,x14
    80000294:	00120213          	addi	x4,x4,1 # 1 <_start-0x7fffffff>
    80000298:	00200293          	li	x5,2
    8000029c:	fe5210e3          	bne	x4,x5,8000027c <test_9+0x8>
    800002a0:	f00ff3b7          	lui	x7,0xf00ff
    800002a4:	0ff3839b          	addiw	x7,x7,255
    800002a8:	0a731e63          	bne	x6,x7,80000364 <fail>

00000000800002ac <test_10>:
    800002ac:	00a00193          	li	x3,10
    800002b0:	00000213          	li	x4,0
    800002b4:	0ff010b7          	lui	x1,0xff01
    800002b8:	ff00809b          	addiw	x1,x1,-16
    800002bc:	0f00e713          	ori	x14,x1,240
    800002c0:	00120213          	addi	x4,x4,1 # 1 <_start-0x7fffffff>
    800002c4:	00200293          	li	x5,2
    800002c8:	fe5216e3          	bne	x4,x5,800002b4 <test_10+0x8>
    800002cc:	0ff013b7          	lui	x7,0xff01
    800002d0:	ff03839b          	addiw	x7,x7,-16
    800002d4:	08771863          	bne	x14,x7,80000364 <fail>

00000000800002d8 <test_11>:
    800002d8:	00b00193          	li	x3,11
    800002dc:	00000213          	li	x4,0
    800002e0:	00ff00b7          	lui	x1,0xff0
    800002e4:	0ff0809b          	addiw	x1,x1,255
    800002e8:	00000013          	nop
    800002ec:	f0f0e713          	ori	x14,x1,-241
    800002f0:	00120213          	addi	x4,x4,1 # 1 <_start-0x7fffffff>
    800002f4:	00200293          	li	x5,2
    800002f8:	fe5214e3          	bne	x4,x5,800002e0 <test_11+0x8>
    800002fc:	fff00393          	li	x7,-1
    80000300:	06771263          	bne	x14,x7,80000364 <fail>

0000000080000304 <test_12>:
    80000304:	00c00193          	li	x3,12
    80000308:	00000213          	li	x4,0
    8000030c:	f00ff0b7          	lui	x1,0xf00ff
    80000310:	00f0809b          	addiw	x1,x1,15
    80000314:	00000013          	nop
    80000318:	00000013          	nop
    8000031c:	0f00e713          	ori	x14,x1,240
    80000320:	00120213          	addi	x4,x4,1 # 1 <_start-0x7fffffff>
    80000324:	00200293          	li	x5,2
    80000328:	fe5212e3          	bne	x4,x5,8000030c <test_12+0x8>
    8000032c:	f00ff3b7          	lui	x7,0xf00ff
    80000330:	0ff3839b          	addiw	x7,x7,255
    80000334:	02771863          	bne	x14,x7,80000364 <fail>

0000000080000338 <test_13>:
    80000338:	00d00193          	li	x3,13
    8000033c:	0f006093          	ori	x1,x0,240
    80000340:	0f000393          	li	x7,240
    80000344:	02709063          	bne	x1,x7,80000364 <fail>

0000000080000348 <test_14>:
    80000348:	00e00193          	li	x3,14
    8000034c:	00ff00b7          	lui	x1,0xff0
    80000350:	0ff0809b          	addiw	x1,x1,255
    80000354:	70f0e013          	ori	x0,x1,1807
    80000358:	00000393          	li	x7,0
    8000035c:	00701463          	bne	x0,x7,80000364 <fail>
    80000360:	02301063          	bne	x0,x3,80000380 <pass>

0000000080000364 <fail>:
    80000364:	0ff0000f          	fence
    80000368:	00018063          	beqz	x3,80000368 <fail+0x4>
    8000036c:	00119193          	slli	x3,x3,0x1
    80000370:	0011e193          	ori	x3,x3,1
    80000374:	05d00893          	li	x17,93
    80000378:	00018513          	mv	x10,x3
    8000037c:	00000073          	ecall

0000000080000380 <pass>:
    80000380:	0ff0000f          	fence
    80000384:	00100193          	li	x3,1
    80000388:	05d00893          	li	x17,93
    8000038c:	00000513          	li	x10,0
    80000390:	00000073          	ecall
    80000394:	c0001073          	unimp
    80000398:	0000                	unimp
    8000039a:	0000                	unimp
    8000039c:	0000                	unimp
    8000039e:	0000                	unimp
    800003a0:	0000                	unimp
    800003a2:	0000                	unimp
    800003a4:	0000                	unimp
    800003a6:	0000                	unimp
    800003a8:	0000                	unimp
    800003aa:	0000                	unimp
    800003ac:	0000                	unimp
    800003ae:	0000                	unimp
    800003b0:	0000                	unimp
    800003b2:	0000                	unimp
    800003b4:	0000                	unimp
    800003b6:	0000                	unimp
    800003b8:	0000                	unimp
    800003ba:	0000                	unimp
