
rv64ui-p-srlw:     file format elf64-littleriscv


Disassembly of section .text:

0000000040000000 <_start>:
    40000000:	0480006f          	j	40000048 <reset_vector>

0000000040000004 <trap_vector>:
    40000004:	34202f73          	csrr	x30,mcause
    40000008:	00800f93          	li	x31,8
    4000000c:	03ff0863          	beq	x30,x31,4000003c <write_tohost>
    40000010:	00900f93          	li	x31,9
    40000014:	03ff0463          	beq	x30,x31,4000003c <write_tohost>
    40000018:	00b00f93          	li	x31,11
    4000001c:	03ff0063          	beq	x30,x31,4000003c <write_tohost>
    40000020:	00000f13          	li	x30,0
    40000024:	000f0463          	beqz	x30,4000002c <trap_vector+0x28>
    40000028:	000f0067          	jr	x30
    4000002c:	34202f73          	csrr	x30,mcause
    40000030:	000f5463          	bgez	x30,40000038 <handle_exception>
    40000034:	0040006f          	j	40000038 <handle_exception>

0000000040000038 <handle_exception>:
    40000038:	5391e193          	ori	x3,x3,1337

000000004000003c <write_tohost>:
    4000003c:	40000f17          	auipc	x30,0x40000
    40000040:	fc3f2223          	sw	x3,-60(x30) # 80000000 <begin_signature>
    40000044:	ff9ff06f          	j	4000003c <write_tohost>

0000000040000048 <reset_vector>:
    40000048:	00000093          	li	x1,0
    4000004c:	00000113          	li	x2,0
    40000050:	00000193          	li	x3,0
    40000054:	00000213          	li	x4,0
    40000058:	00000293          	li	x5,0
    4000005c:	00000313          	li	x6,0
    40000060:	00000393          	li	x7,0
    40000064:	00000413          	li	x8,0
    40000068:	00000493          	li	x9,0
    4000006c:	00000513          	li	x10,0
    40000070:	00000593          	li	x11,0
    40000074:	00000613          	li	x12,0
    40000078:	00000693          	li	x13,0
    4000007c:	00000713          	li	x14,0
    40000080:	00000793          	li	x15,0
    40000084:	00000813          	li	x16,0
    40000088:	00000893          	li	x17,0
    4000008c:	00000913          	li	x18,0
    40000090:	00000993          	li	x19,0
    40000094:	00000a13          	li	x20,0
    40000098:	00000a93          	li	x21,0
    4000009c:	00000b13          	li	x22,0
    400000a0:	00000b93          	li	x23,0
    400000a4:	00000c13          	li	x24,0
    400000a8:	00000c93          	li	x25,0
    400000ac:	00000d13          	li	x26,0
    400000b0:	00000d93          	li	x27,0
    400000b4:	00000e13          	li	x28,0
    400000b8:	00000e93          	li	x29,0
    400000bc:	00000f13          	li	x30,0
    400000c0:	00000f93          	li	x31,0
    400000c4:	f1402573          	csrr	x10,mhartid
    400000c8:	00051063          	bnez	x10,400000c8 <reset_vector+0x80>
    400000cc:	00000297          	auipc	x5,0x0
    400000d0:	01028293          	addi	x5,x5,16 # 400000dc <reset_vector+0x94>
    400000d4:	30529073          	csrw	mtvec,x5
    400000d8:	18005073          	csrwi	satp,0
    400000dc:	00000297          	auipc	x5,0x0
    400000e0:	02428293          	addi	x5,x5,36 # 40000100 <reset_vector+0xb8>
    400000e4:	30529073          	csrw	mtvec,x5
    400000e8:	0010029b          	addiw	x5,x0,1
    400000ec:	03529293          	slli	x5,x5,0x35
    400000f0:	fff28293          	addi	x5,x5,-1
    400000f4:	3b029073          	csrw	pmpaddr0,x5
    400000f8:	01f00293          	li	x5,31
    400000fc:	3a029073          	csrw	pmpcfg0,x5
    40000100:	30405073          	csrwi	mie,0
    40000104:	00000297          	auipc	x5,0x0
    40000108:	01428293          	addi	x5,x5,20 # 40000118 <reset_vector+0xd0>
    4000010c:	30529073          	csrw	mtvec,x5
    40000110:	30205073          	csrwi	medeleg,0
    40000114:	30305073          	csrwi	mideleg,0
    40000118:	00000193          	li	x3,0
    4000011c:	00000297          	auipc	x5,0x0
    40000120:	ee828293          	addi	x5,x5,-280 # 40000004 <trap_vector>
    40000124:	30529073          	csrw	mtvec,x5
    40000128:	00100513          	li	x10,1
    4000012c:	01f51513          	slli	x10,x10,0x1f
    40000130:	00055c63          	bgez	x10,40000148 <reset_vector+0x100>
    40000134:	0ff0000f          	fence
    40000138:	00100193          	li	x3,1
    4000013c:	05d00893          	li	x17,93
    40000140:	00000513          	li	x10,0
    40000144:	00000073          	ecall
    40000148:	00000293          	li	x5,0
    4000014c:	00028a63          	beqz	x5,40000160 <reset_vector+0x118>
    40000150:	10529073          	csrw	stvec,x5
    40000154:	0000b2b7          	lui	x5,0xb
    40000158:	1092829b          	addiw	x5,x5,265
    4000015c:	30229073          	csrw	medeleg,x5
    40000160:	30005073          	csrwi	mstatus,0
    40000164:	00000297          	auipc	x5,0x0
    40000168:	01428293          	addi	x5,x5,20 # 40000178 <test_2>
    4000016c:	34129073          	csrw	mepc,x5
    40000170:	f1402573          	csrr	x10,mhartid
    40000174:	30200073          	mret

0000000040000178 <test_2>:
    40000178:	00200193          	li	x3,2
    4000017c:	800000b7          	lui	x1,0x80000
    40000180:	00000113          	li	x2,0
    40000184:	0020d73b          	srlw	x14,x1,x2
    40000188:	800003b7          	lui	x7,0x80000
    4000018c:	60771863          	bne	x14,x7,4000079c <fail>

0000000040000190 <test_3>:
    40000190:	00300193          	li	x3,3
    40000194:	800000b7          	lui	x1,0x80000
    40000198:	00100113          	li	x2,1
    4000019c:	0020d73b          	srlw	x14,x1,x2
    400001a0:	400003b7          	lui	x7,0x40000
    400001a4:	5e771c63          	bne	x14,x7,4000079c <fail>

00000000400001a8 <test_4>:
    400001a8:	00400193          	li	x3,4
    400001ac:	800000b7          	lui	x1,0x80000
    400001b0:	00700113          	li	x2,7
    400001b4:	0020d73b          	srlw	x14,x1,x2
    400001b8:	010003b7          	lui	x7,0x1000
    400001bc:	5e771063          	bne	x14,x7,4000079c <fail>

00000000400001c0 <test_5>:
    400001c0:	00500193          	li	x3,5
    400001c4:	800000b7          	lui	x1,0x80000
    400001c8:	00e00113          	li	x2,14
    400001cc:	0020d73b          	srlw	x14,x1,x2
    400001d0:	000203b7          	lui	x7,0x20
    400001d4:	5c771463          	bne	x14,x7,4000079c <fail>

00000000400001d8 <test_6>:
    400001d8:	00600193          	li	x3,6
    400001dc:	800000b7          	lui	x1,0x80000
    400001e0:	0010809b          	addiw	x1,x1,1
    400001e4:	01f00113          	li	x2,31
    400001e8:	0020d73b          	srlw	x14,x1,x2
    400001ec:	00100393          	li	x7,1
    400001f0:	5a771663          	bne	x14,x7,4000079c <fail>

00000000400001f4 <test_7>:
    400001f4:	00700193          	li	x3,7
    400001f8:	fff00093          	li	x1,-1
    400001fc:	00000113          	li	x2,0
    40000200:	0020d73b          	srlw	x14,x1,x2
    40000204:	fff00393          	li	x7,-1
    40000208:	58771a63          	bne	x14,x7,4000079c <fail>

000000004000020c <test_8>:
    4000020c:	00800193          	li	x3,8
    40000210:	fff00093          	li	x1,-1
    40000214:	00100113          	li	x2,1
    40000218:	0020d73b          	srlw	x14,x1,x2
    4000021c:	800003b7          	lui	x7,0x80000
    40000220:	fff3839b          	addiw	x7,x7,-1
    40000224:	56771c63          	bne	x14,x7,4000079c <fail>

0000000040000228 <test_9>:
    40000228:	00900193          	li	x3,9
    4000022c:	fff00093          	li	x1,-1
    40000230:	00700113          	li	x2,7
    40000234:	0020d73b          	srlw	x14,x1,x2
    40000238:	020003b7          	lui	x7,0x2000
    4000023c:	fff3839b          	addiw	x7,x7,-1
    40000240:	54771e63          	bne	x14,x7,4000079c <fail>

0000000040000244 <test_10>:
    40000244:	00a00193          	li	x3,10
    40000248:	fff00093          	li	x1,-1
    4000024c:	00e00113          	li	x2,14
    40000250:	0020d73b          	srlw	x14,x1,x2
    40000254:	000403b7          	lui	x7,0x40
    40000258:	fff3839b          	addiw	x7,x7,-1
    4000025c:	54771063          	bne	x14,x7,4000079c <fail>

0000000040000260 <test_11>:
    40000260:	00b00193          	li	x3,11
    40000264:	fff00093          	li	x1,-1
    40000268:	01f00113          	li	x2,31
    4000026c:	0020d73b          	srlw	x14,x1,x2
    40000270:	00100393          	li	x7,1
    40000274:	52771463          	bne	x14,x7,4000079c <fail>

0000000040000278 <test_12>:
    40000278:	00c00193          	li	x3,12
    4000027c:	212120b7          	lui	x1,0x21212
    40000280:	1210809b          	addiw	x1,x1,289
    40000284:	00000113          	li	x2,0
    40000288:	0020d73b          	srlw	x14,x1,x2
    4000028c:	212123b7          	lui	x7,0x21212
    40000290:	1213839b          	addiw	x7,x7,289
    40000294:	50771463          	bne	x14,x7,4000079c <fail>

0000000040000298 <test_13>:
    40000298:	00d00193          	li	x3,13
    4000029c:	212120b7          	lui	x1,0x21212
    400002a0:	1210809b          	addiw	x1,x1,289
    400002a4:	00100113          	li	x2,1
    400002a8:	0020d73b          	srlw	x14,x1,x2
    400002ac:	109093b7          	lui	x7,0x10909
    400002b0:	0903839b          	addiw	x7,x7,144
    400002b4:	4e771463          	bne	x14,x7,4000079c <fail>

00000000400002b8 <test_14>:
    400002b8:	00e00193          	li	x3,14
    400002bc:	212120b7          	lui	x1,0x21212
    400002c0:	1210809b          	addiw	x1,x1,289
    400002c4:	00700113          	li	x2,7
    400002c8:	0020d73b          	srlw	x14,x1,x2
    400002cc:	004243b7          	lui	x7,0x424
    400002d0:	2423839b          	addiw	x7,x7,578
    400002d4:	4c771463          	bne	x14,x7,4000079c <fail>

00000000400002d8 <test_15>:
    400002d8:	00f00193          	li	x3,15
    400002dc:	212120b7          	lui	x1,0x21212
    400002e0:	1210809b          	addiw	x1,x1,289
    400002e4:	00e00113          	li	x2,14
    400002e8:	0020d73b          	srlw	x14,x1,x2
    400002ec:	000083b7          	lui	x7,0x8
    400002f0:	4843839b          	addiw	x7,x7,1156
    400002f4:	4a771463          	bne	x14,x7,4000079c <fail>

00000000400002f8 <test_16>:
    400002f8:	01000193          	li	x3,16
    400002fc:	212120b7          	lui	x1,0x21212
    40000300:	1210809b          	addiw	x1,x1,289
    40000304:	01f00113          	li	x2,31
    40000308:	0020d73b          	srlw	x14,x1,x2
    4000030c:	00000393          	li	x7,0
    40000310:	48771663          	bne	x14,x7,4000079c <fail>

0000000040000314 <test_17>:
    40000314:	01100193          	li	x3,17
    40000318:	212120b7          	lui	x1,0x21212
    4000031c:	1210809b          	addiw	x1,x1,289
    40000320:	fe000113          	li	x2,-32
    40000324:	0020d73b          	srlw	x14,x1,x2
    40000328:	212123b7          	lui	x7,0x21212
    4000032c:	1213839b          	addiw	x7,x7,289
    40000330:	46771663          	bne	x14,x7,4000079c <fail>

0000000040000334 <test_18>:
    40000334:	01200193          	li	x3,18
    40000338:	212120b7          	lui	x1,0x21212
    4000033c:	1210809b          	addiw	x1,x1,289
    40000340:	fe100113          	li	x2,-31
    40000344:	0020d73b          	srlw	x14,x1,x2
    40000348:	109093b7          	lui	x7,0x10909
    4000034c:	0903839b          	addiw	x7,x7,144
    40000350:	44771663          	bne	x14,x7,4000079c <fail>

0000000040000354 <test_19>:
    40000354:	01300193          	li	x3,19
    40000358:	212120b7          	lui	x1,0x21212
    4000035c:	1210809b          	addiw	x1,x1,289
    40000360:	fe700113          	li	x2,-25
    40000364:	0020d73b          	srlw	x14,x1,x2
    40000368:	004243b7          	lui	x7,0x424
    4000036c:	2423839b          	addiw	x7,x7,578
    40000370:	42771663          	bne	x14,x7,4000079c <fail>

0000000040000374 <test_20>:
    40000374:	01400193          	li	x3,20
    40000378:	212120b7          	lui	x1,0x21212
    4000037c:	1210809b          	addiw	x1,x1,289
    40000380:	fee00113          	li	x2,-18
    40000384:	0020d73b          	srlw	x14,x1,x2
    40000388:	000083b7          	lui	x7,0x8
    4000038c:	4843839b          	addiw	x7,x7,1156
    40000390:	40771663          	bne	x14,x7,4000079c <fail>

0000000040000394 <test_21>:
    40000394:	01500193          	li	x3,21
    40000398:	212120b7          	lui	x1,0x21212
    4000039c:	1210809b          	addiw	x1,x1,289
    400003a0:	fff00113          	li	x2,-1
    400003a4:	0020d73b          	srlw	x14,x1,x2
    400003a8:	00000393          	li	x7,0
    400003ac:	3e771863          	bne	x14,x7,4000079c <fail>

00000000400003b0 <test_44>:
    400003b0:	02c00193          	li	x3,44
    400003b4:	fff120b7          	lui	x1,0xfff12
    400003b8:	3450809b          	addiw	x1,x1,837
    400003bc:	00c09093          	slli	x1,x1,0xc
    400003c0:	67808093          	addi	x1,x1,1656 # fffffffffff12678 <fromhost+0xffffffff7ff12638>
    400003c4:	00000113          	li	x2,0
    400003c8:	0020d73b          	srlw	x14,x1,x2
    400003cc:	123453b7          	lui	x7,0x12345
    400003d0:	6783839b          	addiw	x7,x7,1656
    400003d4:	3c771463          	bne	x14,x7,4000079c <fail>

00000000400003d8 <test_45>:
    400003d8:	02d00193          	li	x3,45
    400003dc:	fff120b7          	lui	x1,0xfff12
    400003e0:	3450809b          	addiw	x1,x1,837
    400003e4:	00c09093          	slli	x1,x1,0xc
    400003e8:	67808093          	addi	x1,x1,1656 # fffffffffff12678 <fromhost+0xffffffff7ff12638>
    400003ec:	00400113          	li	x2,4
    400003f0:	0020d73b          	srlw	x14,x1,x2
    400003f4:	012343b7          	lui	x7,0x1234
    400003f8:	5673839b          	addiw	x7,x7,1383
    400003fc:	3a771063          	bne	x14,x7,4000079c <fail>

0000000040000400 <test_46>:
    40000400:	02e00193          	li	x3,46
    40000404:	000920b7          	lui	x1,0x92
    40000408:	3450809b          	addiw	x1,x1,837
    4000040c:	00c09093          	slli	x1,x1,0xc
    40000410:	67808093          	addi	x1,x1,1656 # 92678 <_start-0x3ff6d988>
    40000414:	00000113          	li	x2,0
    40000418:	0020d73b          	srlw	x14,x1,x2
    4000041c:	923453b7          	lui	x7,0x92345
    40000420:	6783839b          	addiw	x7,x7,1656
    40000424:	36771c63          	bne	x14,x7,4000079c <fail>

0000000040000428 <test_47>:
    40000428:	02f00193          	li	x3,47
    4000042c:	000920b7          	lui	x1,0x92
    40000430:	3450809b          	addiw	x1,x1,837
    40000434:	00c09093          	slli	x1,x1,0xc
    40000438:	67808093          	addi	x1,x1,1656 # 92678 <_start-0x3ff6d988>
    4000043c:	00400113          	li	x2,4
    40000440:	0020d73b          	srlw	x14,x1,x2
    40000444:	092343b7          	lui	x7,0x9234
    40000448:	5673839b          	addiw	x7,x7,1383
    4000044c:	34771863          	bne	x14,x7,4000079c <fail>

0000000040000450 <test_22>:
    40000450:	01600193          	li	x3,22
    40000454:	800000b7          	lui	x1,0x80000
    40000458:	00700113          	li	x2,7
    4000045c:	0020d0bb          	srlw	x1,x1,x2
    40000460:	010003b7          	lui	x7,0x1000
    40000464:	32709c63          	bne	x1,x7,4000079c <fail>

0000000040000468 <test_23>:
    40000468:	01700193          	li	x3,23
    4000046c:	800000b7          	lui	x1,0x80000
    40000470:	00e00113          	li	x2,14
    40000474:	0020d13b          	srlw	x2,x1,x2
    40000478:	000203b7          	lui	x7,0x20
    4000047c:	32711063          	bne	x2,x7,4000079c <fail>

0000000040000480 <test_24>:
    40000480:	01800193          	li	x3,24
    40000484:	00700093          	li	x1,7
    40000488:	0010d0bb          	srlw	x1,x1,x1
    4000048c:	00000393          	li	x7,0
    40000490:	30709663          	bne	x1,x7,4000079c <fail>

0000000040000494 <test_25>:
    40000494:	01900193          	li	x3,25
    40000498:	00000213          	li	x4,0
    4000049c:	800000b7          	lui	x1,0x80000
    400004a0:	00700113          	li	x2,7
    400004a4:	0020d73b          	srlw	x14,x1,x2
    400004a8:	00070313          	mv	x6,x14
    400004ac:	00120213          	addi	x4,x4,1 # 1 <_start-0x3fffffff>
    400004b0:	00200293          	li	x5,2
    400004b4:	fe5214e3          	bne	x4,x5,4000049c <test_25+0x8>
    400004b8:	010003b7          	lui	x7,0x1000
    400004bc:	2e731063          	bne	x6,x7,4000079c <fail>

00000000400004c0 <test_26>:
    400004c0:	01a00193          	li	x3,26
    400004c4:	00000213          	li	x4,0
    400004c8:	800000b7          	lui	x1,0x80000
    400004cc:	00e00113          	li	x2,14
    400004d0:	0020d73b          	srlw	x14,x1,x2
    400004d4:	00000013          	nop
    400004d8:	00070313          	mv	x6,x14
    400004dc:	00120213          	addi	x4,x4,1 # 1 <_start-0x3fffffff>
    400004e0:	00200293          	li	x5,2
    400004e4:	fe5212e3          	bne	x4,x5,400004c8 <test_26+0x8>
    400004e8:	000203b7          	lui	x7,0x20
    400004ec:	2a731863          	bne	x6,x7,4000079c <fail>

00000000400004f0 <test_27>:
    400004f0:	01b00193          	li	x3,27
    400004f4:	00000213          	li	x4,0
    400004f8:	800000b7          	lui	x1,0x80000
    400004fc:	01f00113          	li	x2,31
    40000500:	0020d73b          	srlw	x14,x1,x2
    40000504:	00000013          	nop
    40000508:	00000013          	nop
    4000050c:	00070313          	mv	x6,x14
    40000510:	00120213          	addi	x4,x4,1 # 1 <_start-0x3fffffff>
    40000514:	00200293          	li	x5,2
    40000518:	fe5210e3          	bne	x4,x5,400004f8 <test_27+0x8>
    4000051c:	00100393          	li	x7,1
    40000520:	26731e63          	bne	x6,x7,4000079c <fail>

0000000040000524 <test_28>:
    40000524:	01c00193          	li	x3,28
    40000528:	00000213          	li	x4,0
    4000052c:	800000b7          	lui	x1,0x80000
    40000530:	00700113          	li	x2,7
    40000534:	0020d73b          	srlw	x14,x1,x2
    40000538:	00120213          	addi	x4,x4,1 # 1 <_start-0x3fffffff>
    4000053c:	00200293          	li	x5,2
    40000540:	fe5216e3          	bne	x4,x5,4000052c <test_28+0x8>
    40000544:	010003b7          	lui	x7,0x1000
    40000548:	24771a63          	bne	x14,x7,4000079c <fail>

000000004000054c <test_29>:
    4000054c:	01d00193          	li	x3,29
    40000550:	00000213          	li	x4,0
    40000554:	800000b7          	lui	x1,0x80000
    40000558:	00e00113          	li	x2,14
    4000055c:	00000013          	nop
    40000560:	0020d73b          	srlw	x14,x1,x2
    40000564:	00120213          	addi	x4,x4,1 # 1 <_start-0x3fffffff>
    40000568:	00200293          	li	x5,2
    4000056c:	fe5214e3          	bne	x4,x5,40000554 <test_29+0x8>
    40000570:	000203b7          	lui	x7,0x20
    40000574:	22771463          	bne	x14,x7,4000079c <fail>

0000000040000578 <test_30>:
    40000578:	01e00193          	li	x3,30
    4000057c:	00000213          	li	x4,0
    40000580:	800000b7          	lui	x1,0x80000
    40000584:	01f00113          	li	x2,31
    40000588:	00000013          	nop
    4000058c:	00000013          	nop
    40000590:	0020d73b          	srlw	x14,x1,x2
    40000594:	00120213          	addi	x4,x4,1 # 1 <_start-0x3fffffff>
    40000598:	00200293          	li	x5,2
    4000059c:	fe5212e3          	bne	x4,x5,40000580 <test_30+0x8>
    400005a0:	00100393          	li	x7,1
    400005a4:	1e771c63          	bne	x14,x7,4000079c <fail>

00000000400005a8 <test_31>:
    400005a8:	01f00193          	li	x3,31
    400005ac:	00000213          	li	x4,0
    400005b0:	800000b7          	lui	x1,0x80000
    400005b4:	00000013          	nop
    400005b8:	00700113          	li	x2,7
    400005bc:	0020d73b          	srlw	x14,x1,x2
    400005c0:	00120213          	addi	x4,x4,1 # 1 <_start-0x3fffffff>
    400005c4:	00200293          	li	x5,2
    400005c8:	fe5214e3          	bne	x4,x5,400005b0 <test_31+0x8>
    400005cc:	010003b7          	lui	x7,0x1000
    400005d0:	1c771663          	bne	x14,x7,4000079c <fail>

00000000400005d4 <test_32>:
    400005d4:	02000193          	li	x3,32
    400005d8:	00000213          	li	x4,0
    400005dc:	800000b7          	lui	x1,0x80000
    400005e0:	00000013          	nop
    400005e4:	00e00113          	li	x2,14
    400005e8:	00000013          	nop
    400005ec:	0020d73b          	srlw	x14,x1,x2
    400005f0:	00120213          	addi	x4,x4,1 # 1 <_start-0x3fffffff>
    400005f4:	00200293          	li	x5,2
    400005f8:	fe5212e3          	bne	x4,x5,400005dc <test_32+0x8>
    400005fc:	000203b7          	lui	x7,0x20
    40000600:	18771e63          	bne	x14,x7,4000079c <fail>

0000000040000604 <test_33>:
    40000604:	02100193          	li	x3,33
    40000608:	00000213          	li	x4,0
    4000060c:	800000b7          	lui	x1,0x80000
    40000610:	00000013          	nop
    40000614:	00000013          	nop
    40000618:	01f00113          	li	x2,31
    4000061c:	0020d73b          	srlw	x14,x1,x2
    40000620:	00120213          	addi	x4,x4,1 # 1 <_start-0x3fffffff>
    40000624:	00200293          	li	x5,2
    40000628:	fe5212e3          	bne	x4,x5,4000060c <test_33+0x8>
    4000062c:	00100393          	li	x7,1
    40000630:	16771663          	bne	x14,x7,4000079c <fail>

0000000040000634 <test_34>:
    40000634:	02200193          	li	x3,34
    40000638:	00000213          	li	x4,0
    4000063c:	00700113          	li	x2,7
    40000640:	800000b7          	lui	x1,0x80000
    40000644:	0020d73b          	srlw	x14,x1,x2
    40000648:	00120213          	addi	x4,x4,1 # 1 <_start-0x3fffffff>
    4000064c:	00200293          	li	x5,2
    40000650:	fe5216e3          	bne	x4,x5,4000063c <test_34+0x8>
    40000654:	010003b7          	lui	x7,0x1000
    40000658:	14771263          	bne	x14,x7,4000079c <fail>

000000004000065c <test_35>:
    4000065c:	02300193          	li	x3,35
    40000660:	00000213          	li	x4,0
    40000664:	00e00113          	li	x2,14
    40000668:	800000b7          	lui	x1,0x80000
    4000066c:	00000013          	nop
    40000670:	0020d73b          	srlw	x14,x1,x2
    40000674:	00120213          	addi	x4,x4,1 # 1 <_start-0x3fffffff>
    40000678:	00200293          	li	x5,2
    4000067c:	fe5214e3          	bne	x4,x5,40000664 <test_35+0x8>
    40000680:	000203b7          	lui	x7,0x20
    40000684:	10771c63          	bne	x14,x7,4000079c <fail>

0000000040000688 <test_36>:
    40000688:	02400193          	li	x3,36
    4000068c:	00000213          	li	x4,0
    40000690:	01f00113          	li	x2,31
    40000694:	800000b7          	lui	x1,0x80000
    40000698:	00000013          	nop
    4000069c:	00000013          	nop
    400006a0:	0020d73b          	srlw	x14,x1,x2
    400006a4:	00120213          	addi	x4,x4,1 # 1 <_start-0x3fffffff>
    400006a8:	00200293          	li	x5,2
    400006ac:	fe5212e3          	bne	x4,x5,40000690 <test_36+0x8>
    400006b0:	00100393          	li	x7,1
    400006b4:	0e771463          	bne	x14,x7,4000079c <fail>

00000000400006b8 <test_37>:
    400006b8:	02500193          	li	x3,37
    400006bc:	00000213          	li	x4,0
    400006c0:	00700113          	li	x2,7
    400006c4:	00000013          	nop
    400006c8:	800000b7          	lui	x1,0x80000
    400006cc:	0020d73b          	srlw	x14,x1,x2
    400006d0:	00120213          	addi	x4,x4,1 # 1 <_start-0x3fffffff>
    400006d4:	00200293          	li	x5,2
    400006d8:	fe5214e3          	bne	x4,x5,400006c0 <test_37+0x8>
    400006dc:	010003b7          	lui	x7,0x1000
    400006e0:	0a771e63          	bne	x14,x7,4000079c <fail>

00000000400006e4 <test_38>:
    400006e4:	02600193          	li	x3,38
    400006e8:	00000213          	li	x4,0
    400006ec:	00e00113          	li	x2,14
    400006f0:	00000013          	nop
    400006f4:	800000b7          	lui	x1,0x80000
    400006f8:	00000013          	nop
    400006fc:	0020d73b          	srlw	x14,x1,x2
    40000700:	00120213          	addi	x4,x4,1 # 1 <_start-0x3fffffff>
    40000704:	00200293          	li	x5,2
    40000708:	fe5212e3          	bne	x4,x5,400006ec <test_38+0x8>
    4000070c:	000203b7          	lui	x7,0x20
    40000710:	08771663          	bne	x14,x7,4000079c <fail>

0000000040000714 <test_39>:
    40000714:	02700193          	li	x3,39
    40000718:	00000213          	li	x4,0
    4000071c:	01f00113          	li	x2,31
    40000720:	00000013          	nop
    40000724:	00000013          	nop
    40000728:	800000b7          	lui	x1,0x80000
    4000072c:	0020d73b          	srlw	x14,x1,x2
    40000730:	00120213          	addi	x4,x4,1 # 1 <_start-0x3fffffff>
    40000734:	00200293          	li	x5,2
    40000738:	fe5212e3          	bne	x4,x5,4000071c <test_39+0x8>
    4000073c:	00100393          	li	x7,1
    40000740:	04771e63          	bne	x14,x7,4000079c <fail>

0000000040000744 <test_40>:
    40000744:	02800193          	li	x3,40
    40000748:	00f00093          	li	x1,15
    4000074c:	0010513b          	srlw	x2,x0,x1
    40000750:	00000393          	li	x7,0
    40000754:	04711463          	bne	x2,x7,4000079c <fail>

0000000040000758 <test_41>:
    40000758:	02900193          	li	x3,41
    4000075c:	02000093          	li	x1,32
    40000760:	0000d13b          	srlw	x2,x1,x0
    40000764:	02000393          	li	x7,32
    40000768:	02711a63          	bne	x2,x7,4000079c <fail>

000000004000076c <test_42>:
    4000076c:	02a00193          	li	x3,42
    40000770:	000050bb          	srlw	x1,x0,x0
    40000774:	00000393          	li	x7,0
    40000778:	02709263          	bne	x1,x7,4000079c <fail>

000000004000077c <test_43>:
    4000077c:	02b00193          	li	x3,43
    40000780:	40000093          	li	x1,1024
    40000784:	00001137          	lui	x2,0x1
    40000788:	8001011b          	addiw	x2,x2,-2048
    4000078c:	0020d03b          	srlw	x0,x1,x2
    40000790:	00000393          	li	x7,0
    40000794:	00701463          	bne	x0,x7,4000079c <fail>
    40000798:	02301063          	bne	x0,x3,400007b8 <pass>

000000004000079c <fail>:
    4000079c:	0ff0000f          	fence
    400007a0:	00018063          	beqz	x3,400007a0 <fail+0x4>
    400007a4:	00119193          	slli	x3,x3,0x1
    400007a8:	0011e193          	ori	x3,x3,1
    400007ac:	05d00893          	li	x17,93
    400007b0:	00018513          	mv	x10,x3
    400007b4:	00000073          	ecall

00000000400007b8 <pass>:
    400007b8:	0ff0000f          	fence
    400007bc:	00100193          	li	x3,1
    400007c0:	05d00893          	li	x17,93
    400007c4:	00000513          	li	x10,0
    400007c8:	00000073          	ecall
    400007cc:	c0001073          	unimp
    400007d0:	0000                	unimp
    400007d2:	0000                	unimp
    400007d4:	0000                	unimp
    400007d6:	0000                	unimp
    400007d8:	0000                	unimp
    400007da:	0000                	unimp
    400007dc:	0000                	unimp
    400007de:	0000                	unimp
    400007e0:	0000                	unimp
    400007e2:	0000                	unimp
    400007e4:	0000                	unimp
    400007e6:	0000                	unimp
    400007e8:	0000                	unimp
    400007ea:	0000                	unimp
    400007ec:	0000                	unimp
    400007ee:	0000                	unimp
    400007f0:	0000                	unimp
    400007f2:	0000                	unimp
    400007f4:	0000                	unimp
    400007f6:	0000                	unimp
    400007f8:	0000                	unimp
    400007fa:	0000                	unimp
