
rv64ui-p-ma_data:     file format elf64-littleriscv


Disassembly of section .text:

0000000040000000 <_start>:
    40000000:	0480006f          	j	40000048 <reset_vector>

0000000040000004 <trap_vector>:
    40000004:	34202f73          	csrr	x30,mcause
    40000008:	00800f93          	li	x31,8
    4000000c:	03ff0863          	beq	x30,x31,4000003c <write_tohost>
    40000010:	00900f93          	li	x31,9
    40000014:	03ff0463          	beq	x30,x31,4000003c <write_tohost>
    40000018:	00b00f93          	li	x31,11
    4000001c:	03ff0063          	beq	x30,x31,4000003c <write_tohost>
    40000020:	00000f13          	li	x30,0
    40000024:	000f0463          	beqz	x30,4000002c <trap_vector+0x28>
    40000028:	000f0067          	jr	x30
    4000002c:	34202f73          	csrr	x30,mcause
    40000030:	000f5463          	bgez	x30,40000038 <handle_exception>
    40000034:	0040006f          	j	40000038 <handle_exception>

0000000040000038 <handle_exception>:
    40000038:	5391e193          	ori	x3,x3,1337

000000004000003c <write_tohost>:
    4000003c:	00002f17          	auipc	x30,0x2
    40000040:	f83f2223          	sw	x3,-124(x30) # 40001fc0 <end_signature>
    40000044:	ff9ff06f          	j	4000003c <write_tohost>

0000000040000048 <reset_vector>:
    40000048:	00000093          	li	x1,0
    4000004c:	00000113          	li	x2,0
    40000050:	00000193          	li	x3,0
    40000054:	00000213          	li	x4,0
    40000058:	00000293          	li	x5,0
    4000005c:	00000313          	li	x6,0
    40000060:	00000393          	li	x7,0
    40000064:	00000413          	li	x8,0
    40000068:	00000493          	li	x9,0
    4000006c:	00000513          	li	x10,0
    40000070:	00000593          	li	x11,0
    40000074:	00000613          	li	x12,0
    40000078:	00000693          	li	x13,0
    4000007c:	00000713          	li	x14,0
    40000080:	00000793          	li	x15,0
    40000084:	00000813          	li	x16,0
    40000088:	00000893          	li	x17,0
    4000008c:	00000913          	li	x18,0
    40000090:	00000993          	li	x19,0
    40000094:	00000a13          	li	x20,0
    40000098:	00000a93          	li	x21,0
    4000009c:	00000b13          	li	x22,0
    400000a0:	00000b93          	li	x23,0
    400000a4:	00000c13          	li	x24,0
    400000a8:	00000c93          	li	x25,0
    400000ac:	00000d13          	li	x26,0
    400000b0:	00000d93          	li	x27,0
    400000b4:	00000e13          	li	x28,0
    400000b8:	00000e93          	li	x29,0
    400000bc:	00000f13          	li	x30,0
    400000c0:	00000f93          	li	x31,0
    400000c4:	f1402573          	csrr	x10,mhartid
    400000c8:	00051063          	bnez	x10,400000c8 <reset_vector+0x80>
    400000cc:	00000297          	auipc	x5,0x0
    400000d0:	01028293          	addi	x5,x5,16 # 400000dc <reset_vector+0x94>
    400000d4:	30529073          	csrw	mtvec,x5
    400000d8:	18005073          	csrwi	satp,0
    400000dc:	00000297          	auipc	x5,0x0
    400000e0:	02428293          	addi	x5,x5,36 # 40000100 <reset_vector+0xb8>
    400000e4:	30529073          	csrw	mtvec,x5
    400000e8:	0010029b          	addiw	x5,x0,1
    400000ec:	03529293          	slli	x5,x5,0x35
    400000f0:	fff28293          	addi	x5,x5,-1
    400000f4:	3b029073          	csrw	pmpaddr0,x5
    400000f8:	01f00293          	li	x5,31
    400000fc:	3a029073          	csrw	pmpcfg0,x5
    40000100:	30405073          	csrwi	mie,0
    40000104:	00000297          	auipc	x5,0x0
    40000108:	01428293          	addi	x5,x5,20 # 40000118 <reset_vector+0xd0>
    4000010c:	30529073          	csrw	mtvec,x5
    40000110:	30205073          	csrwi	medeleg,0
    40000114:	30305073          	csrwi	mideleg,0
    40000118:	00000193          	li	x3,0
    4000011c:	00000297          	auipc	x5,0x0
    40000120:	ee828293          	addi	x5,x5,-280 # 40000004 <trap_vector>
    40000124:	30529073          	csrw	mtvec,x5
    40000128:	00100513          	li	x10,1
    4000012c:	01f51513          	slli	x10,x10,0x1f
    40000130:	00055c63          	bgez	x10,40000148 <reset_vector+0x100>
    40000134:	0ff0000f          	fence
    40000138:	00100193          	li	x3,1
    4000013c:	05d00893          	li	x17,93
    40000140:	00000513          	li	x10,0
    40000144:	00000073          	ecall
    40000148:	00000293          	li	x5,0
    4000014c:	00028a63          	beqz	x5,40000160 <reset_vector+0x118>
    40000150:	10529073          	csrw	stvec,x5
    40000154:	0000b2b7          	lui	x5,0xb
    40000158:	1092829b          	addiw	x5,x5,265 # b109 <_start-0x3fff4ef7>
    4000015c:	30229073          	csrw	medeleg,x5
    40000160:	30005073          	csrwi	mstatus,0
    40000164:	00000297          	auipc	x5,0x0
    40000168:	01428293          	addi	x5,x5,20 # 40000178 <reset_vector+0x130>
    4000016c:	34129073          	csrw	mepc,x5
    40000170:	f1402573          	csrr	x10,mhartid
    40000174:	30200073          	mret
    40000178:	00002417          	auipc	x8,0x2
    4000017c:	cc840413          	addi	x8,x8,-824 # 40001e40 <begin_signature>
    40000180:	00100193          	li	x3,1
    40000184:	20100313          	li	x6,513
    40000188:	00141383          	lh	x7,1(x8)
    4000018c:	00730463          	beq	x6,x7,40000194 <reset_vector+0x14c>
    40000190:	4610106f          	j	40001df0 <fail>
    40000194:	00200193          	li	x3,2
    40000198:	20100313          	li	x6,513
    4000019c:	00145383          	lhu	x7,1(x8)
    400001a0:	00730463          	beq	x6,x7,400001a8 <reset_vector+0x160>
    400001a4:	44d0106f          	j	40001df0 <fail>
    400001a8:	00300193          	li	x3,3
    400001ac:	04030337          	lui	x6,0x4030
    400001b0:	2013031b          	addiw	x6,x6,513 # 4030201 <_start-0x3bfcfdff>
    400001b4:	00142383          	lw	x7,1(x8)
    400001b8:	00730463          	beq	x6,x7,400001c0 <reset_vector+0x178>
    400001bc:	4350106f          	j	40001df0 <fail>
    400001c0:	00400193          	li	x3,4
    400001c4:	05040337          	lui	x6,0x5040
    400001c8:	3023031b          	addiw	x6,x6,770 # 5040302 <_start-0x3afbfcfe>
    400001cc:	00242383          	lw	x7,2(x8)
    400001d0:	00730463          	beq	x6,x7,400001d8 <reset_vector+0x190>
    400001d4:	41d0106f          	j	40001df0 <fail>
    400001d8:	00500193          	li	x3,5
    400001dc:	06050337          	lui	x6,0x6050
    400001e0:	4033031b          	addiw	x6,x6,1027 # 6050403 <_start-0x39fafbfd>
    400001e4:	00342383          	lw	x7,3(x8)
    400001e8:	00730463          	beq	x6,x7,400001f0 <reset_vector+0x1a8>
    400001ec:	4050106f          	j	40001df0 <fail>
    400001f0:	00600193          	li	x3,6
    400001f4:	04030337          	lui	x6,0x4030
    400001f8:	2013031b          	addiw	x6,x6,513 # 4030201 <_start-0x3bfcfdff>
    400001fc:	00146383          	lwu	x7,1(x8)
    40000200:	00730463          	beq	x6,x7,40000208 <reset_vector+0x1c0>
    40000204:	3ed0106f          	j	40001df0 <fail>
    40000208:	00700193          	li	x3,7
    4000020c:	05040337          	lui	x6,0x5040
    40000210:	3023031b          	addiw	x6,x6,770 # 5040302 <_start-0x3afbfcfe>
    40000214:	00246383          	lwu	x7,2(x8)
    40000218:	00730463          	beq	x6,x7,40000220 <reset_vector+0x1d8>
    4000021c:	3d50106f          	j	40001df0 <fail>
    40000220:	00800193          	li	x3,8
    40000224:	06050337          	lui	x6,0x6050
    40000228:	4033031b          	addiw	x6,x6,1027 # 6050403 <_start-0x39fafbfd>
    4000022c:	00346383          	lwu	x7,3(x8)
    40000230:	00730463          	beq	x6,x7,40000238 <reset_vector+0x1f0>
    40000234:	3bd0106f          	j	40001df0 <fail>
    40000238:	00900193          	li	x3,9
    4000023c:	08070337          	lui	x6,0x8070
    40000240:	6053031b          	addiw	x6,x6,1541 # 8070605 <_start-0x37f8f9fb>
    40000244:	01031313          	slli	x6,x6,0x10
    40000248:	40330313          	addi	x6,x6,1027
    4000024c:	01031313          	slli	x6,x6,0x10
    40000250:	20130313          	addi	x6,x6,513
    40000254:	00143383          	ld	x7,1(x8)
    40000258:	00730463          	beq	x6,x7,40000260 <reset_vector+0x218>
    4000025c:	3950106f          	j	40001df0 <fail>
    40000260:	00a00193          	li	x3,10
    40000264:	04840337          	lui	x6,0x4840
    40000268:	3833031b          	addiw	x6,x6,899 # 4840383 <_start-0x3b7bfc7d>
    4000026c:	00f31313          	slli	x6,x6,0xf
    40000270:	14130313          	addi	x6,x6,321
    40000274:	01231313          	slli	x6,x6,0x12
    40000278:	30230313          	addi	x6,x6,770
    4000027c:	00243383          	ld	x7,2(x8)
    40000280:	00730463          	beq	x6,x7,40000288 <reset_vector+0x240>
    40000284:	36d0106f          	j	40001df0 <fail>
    40000288:	00b00193          	li	x3,11
    4000028c:	0a091337          	lui	x6,0xa091
    40000290:	8073031b          	addiw	x6,x6,-2041 # a090807 <_start-0x35f6f7f9>
    40000294:	01031313          	slli	x6,x6,0x10
    40000298:	60530313          	addi	x6,x6,1541
    4000029c:	01031313          	slli	x6,x6,0x10
    400002a0:	40330313          	addi	x6,x6,1027
    400002a4:	00343383          	ld	x7,3(x8)
    400002a8:	00730463          	beq	x6,x7,400002b0 <reset_vector+0x268>
    400002ac:	3450106f          	j	40001df0 <fail>
    400002b0:	00c00193          	li	x3,12
    400002b4:	01614337          	lui	x6,0x1614
    400002b8:	1213031b          	addiw	x6,x6,289 # 1614121 <_start-0x3e9ebedf>
    400002bc:	01231313          	slli	x6,x6,0x12
    400002c0:	38330313          	addi	x6,x6,899
    400002c4:	01131313          	slli	x6,x6,0x11
    400002c8:	50430313          	addi	x6,x6,1284
    400002cc:	00443383          	ld	x7,4(x8)
    400002d0:	00730463          	beq	x6,x7,400002d8 <reset_vector+0x290>
    400002d4:	31d0106f          	j	40001df0 <fail>
    400002d8:	00d00193          	li	x3,13
    400002dc:	00060337          	lui	x6,0x60
    400002e0:	5853031b          	addiw	x6,x6,1413 # 60585 <_start-0x3ff9fa7b>
    400002e4:	00d31313          	slli	x6,x6,0xd
    400002e8:	09130313          	addi	x6,x6,145
    400002ec:	00c31313          	slli	x6,x6,0xc
    400002f0:	80730313          	addi	x6,x6,-2041
    400002f4:	01031313          	slli	x6,x6,0x10
    400002f8:	60530313          	addi	x6,x6,1541
    400002fc:	00543383          	ld	x7,5(x8)
    40000300:	00730463          	beq	x6,x7,40000308 <reset_vector+0x2c0>
    40000304:	2ed0106f          	j	40001df0 <fail>
    40000308:	00e00193          	li	x3,14
    4000030c:	06860337          	lui	x6,0x6860
    40000310:	5853031b          	addiw	x6,x6,1413 # 6860585 <_start-0x3979fa7b>
    40000314:	00e31313          	slli	x6,x6,0xe
    40000318:	12130313          	addi	x6,x6,289
    4000031c:	01331313          	slli	x6,x6,0x13
    40000320:	70630313          	addi	x6,x6,1798
    40000324:	00643383          	ld	x7,6(x8)
    40000328:	00730463          	beq	x6,x7,40000330 <reset_vector+0x2e8>
    4000032c:	2c50106f          	j	40001df0 <fail>
    40000330:	00f00193          	li	x3,15
    40000334:	00038337          	lui	x6,0x38
    40000338:	3433031b          	addiw	x6,x6,835 # 38343 <_start-0x3ffc7cbd>
    4000033c:	01131313          	slli	x6,x6,0x11
    40000340:	58530313          	addi	x6,x6,1413
    40000344:	00d31313          	slli	x6,x6,0xd
    40000348:	09130313          	addi	x6,x6,145
    4000034c:	00c31313          	slli	x6,x6,0xc
    40000350:	80730313          	addi	x6,x6,-2041
    40000354:	00743383          	ld	x7,7(x8)
    40000358:	00730463          	beq	x6,x7,40000360 <reset_vector+0x318>
    4000035c:	2950106f          	j	40001df0 <fail>
    40000360:	01000193          	li	x3,16
    40000364:	00002337          	lui	x6,0x2
    40000368:	01f3031b          	addiw	x6,x6,31 # 201f <_start-0x3fffdfe1>
    4000036c:	01f41383          	lh	x7,31(x8)
    40000370:	00730463          	beq	x6,x7,40000378 <reset_vector+0x330>
    40000374:	27d0106f          	j	40001df0 <fail>
    40000378:	01100193          	li	x3,17
    4000037c:	00002337          	lui	x6,0x2
    40000380:	01f3031b          	addiw	x6,x6,31 # 201f <_start-0x3fffdfe1>
    40000384:	01f45383          	lhu	x7,31(x8)
    40000388:	00730463          	beq	x6,x7,40000390 <reset_vector+0x348>
    4000038c:	2650106f          	j	40001df0 <fail>
    40000390:	01200193          	li	x3,18
    40000394:	201f2337          	lui	x6,0x201f2
    40000398:	e1d3031b          	addiw	x6,x6,-483 # 201f1e1d <_start-0x1fe0e1e3>
    4000039c:	01d42383          	lw	x7,29(x8)
    400003a0:	00730463          	beq	x6,x7,400003a8 <reset_vector+0x360>
    400003a4:	24d0106f          	j	40001df0 <fail>
    400003a8:	01300193          	li	x3,19
    400003ac:	21202337          	lui	x6,0x21202
    400003b0:	f1e3031b          	addiw	x6,x6,-226 # 21201f1e <_start-0x1edfe0e2>
    400003b4:	01e42383          	lw	x7,30(x8)
    400003b8:	00730463          	beq	x6,x7,400003c0 <reset_vector+0x378>
    400003bc:	2350106f          	j	40001df0 <fail>
    400003c0:	01400193          	li	x3,20
    400003c4:	22212337          	lui	x6,0x22212
    400003c8:	01f3031b          	addiw	x6,x6,31 # 2221201f <_start-0x1ddedfe1>
    400003cc:	01f42383          	lw	x7,31(x8)
    400003d0:	00730463          	beq	x6,x7,400003d8 <reset_vector+0x390>
    400003d4:	21d0106f          	j	40001df0 <fail>
    400003d8:	01500193          	li	x3,21
    400003dc:	201f2337          	lui	x6,0x201f2
    400003e0:	e1d3031b          	addiw	x6,x6,-483 # 201f1e1d <_start-0x1fe0e1e3>
    400003e4:	01d46383          	lwu	x7,29(x8)
    400003e8:	00730463          	beq	x6,x7,400003f0 <reset_vector+0x3a8>
    400003ec:	2050106f          	j	40001df0 <fail>
    400003f0:	01600193          	li	x3,22
    400003f4:	21202337          	lui	x6,0x21202
    400003f8:	f1e3031b          	addiw	x6,x6,-226 # 21201f1e <_start-0x1edfe0e2>
    400003fc:	01e46383          	lwu	x7,30(x8)
    40000400:	00730463          	beq	x6,x7,40000408 <reset_vector+0x3c0>
    40000404:	1ed0106f          	j	40001df0 <fail>
    40000408:	01700193          	li	x3,23
    4000040c:	22212337          	lui	x6,0x22212
    40000410:	01f3031b          	addiw	x6,x6,31 # 2221201f <_start-0x1ddedfe1>
    40000414:	01f46383          	lwu	x7,31(x8)
    40000418:	00730463          	beq	x6,x7,40000420 <reset_vector+0x3d8>
    4000041c:	1d50106f          	j	40001df0 <fail>
    40000420:	01800193          	li	x3,24
    40000424:	00101337          	lui	x6,0x101
    40000428:	f8f3031b          	addiw	x6,x6,-113 # 100f8f <_start-0x3feff071>
    4000042c:	00f31313          	slli	x6,x6,0xf
    40000430:	74730313          	addi	x6,x6,1863
    40000434:	00d31313          	slli	x6,x6,0xd
    40000438:	0d930313          	addi	x6,x6,217
    4000043c:	00d31313          	slli	x6,x6,0xd
    40000440:	a1930313          	addi	x6,x6,-1511
    40000444:	01943383          	ld	x7,25(x8)
    40000448:	00730463          	beq	x6,x7,40000450 <reset_vector+0x408>
    4000044c:	1a50106f          	j	40001df0 <fail>
    40000450:	01900193          	li	x3,25
    40000454:	01090337          	lui	x6,0x1090
    40000458:	0f93031b          	addiw	x6,x6,249 # 10900f9 <_start-0x3ef6ff07>
    4000045c:	00c31313          	slli	x6,x6,0xc
    40000460:	f0f30313          	addi	x6,x6,-241
    40000464:	00c31313          	slli	x6,x6,0xc
    40000468:	8e130313          	addi	x6,x6,-1823
    4000046c:	00d31313          	slli	x6,x6,0xd
    40000470:	b1a30313          	addi	x6,x6,-1254
    40000474:	01a43383          	ld	x7,26(x8)
    40000478:	00730463          	beq	x6,x7,40000480 <reset_vector+0x438>
    4000047c:	1750106f          	j	40001df0 <fail>
    40000480:	01a00193          	li	x3,26
    40000484:	01111337          	lui	x6,0x1111
    40000488:	9013031b          	addiw	x6,x6,-1791 # 1110901 <_start-0x3eeef6ff>
    4000048c:	00c31313          	slli	x6,x6,0xc
    40000490:	f8f30313          	addi	x6,x6,-113
    40000494:	00c31313          	slli	x6,x6,0xc
    40000498:	0e930313          	addi	x6,x6,233
    4000049c:	00d31313          	slli	x6,x6,0xd
    400004a0:	c1b30313          	addi	x6,x6,-997
    400004a4:	01b43383          	ld	x7,27(x8)
    400004a8:	00730463          	beq	x6,x7,400004b0 <reset_vector+0x468>
    400004ac:	1450106f          	j	40001df0 <fail>
    400004b0:	01b00193          	li	x3,27
    400004b4:	00119337          	lui	x6,0x119
    400004b8:	1113031b          	addiw	x6,x6,273 # 119111 <_start-0x3fee6eef>
    400004bc:	00c31313          	slli	x6,x6,0xc
    400004c0:	90130313          	addi	x6,x6,-1791
    400004c4:	01031313          	slli	x6,x6,0x10
    400004c8:	8f130313          	addi	x6,x6,-1807
    400004cc:	00d31313          	slli	x6,x6,0xd
    400004d0:	d1c30313          	addi	x6,x6,-740
    400004d4:	01c43383          	ld	x7,28(x8)
    400004d8:	00730463          	beq	x6,x7,400004e0 <reset_vector+0x498>
    400004dc:	1150106f          	j	40001df0 <fail>
    400004e0:	01c00193          	li	x3,28
    400004e4:	00121337          	lui	x6,0x121
    400004e8:	1913031b          	addiw	x6,x6,401 # 121191 <_start-0x3fedee6f>
    400004ec:	00c31313          	slli	x6,x6,0xc
    400004f0:	10930313          	addi	x6,x6,265
    400004f4:	01031313          	slli	x6,x6,0x10
    400004f8:	0f930313          	addi	x6,x6,249
    400004fc:	00d31313          	slli	x6,x6,0xd
    40000500:	e1d30313          	addi	x6,x6,-483
    40000504:	01d43383          	ld	x7,29(x8)
    40000508:	00730463          	beq	x6,x7,40000510 <reset_vector+0x4c8>
    4000050c:	0e50106f          	j	40001df0 <fail>
    40000510:	01d00193          	li	x3,29
    40000514:	01292337          	lui	x6,0x1292
    40000518:	1193031b          	addiw	x6,x6,281 # 1292119 <_start-0x3ed6dee7>
    4000051c:	00c31313          	slli	x6,x6,0xc
    40000520:	11130313          	addi	x6,x6,273
    40000524:	00c31313          	slli	x6,x6,0xc
    40000528:	90130313          	addi	x6,x6,-1791
    4000052c:	00d31313          	slli	x6,x6,0xd
    40000530:	f1e30313          	addi	x6,x6,-226
    40000534:	01e43383          	ld	x7,30(x8)
    40000538:	00730463          	beq	x6,x7,40000540 <reset_vector+0x4f8>
    4000053c:	0b50106f          	j	40001df0 <fail>
    40000540:	01e00193          	li	x3,30
    40000544:	01313337          	lui	x6,0x1313
    40000548:	9213031b          	addiw	x6,x6,-1759 # 1312921 <_start-0x3eced6df>
    4000054c:	00c31313          	slli	x6,x6,0xc
    40000550:	19130313          	addi	x6,x6,401
    40000554:	00c31313          	slli	x6,x6,0xc
    40000558:	10930313          	addi	x6,x6,265
    4000055c:	00d31313          	slli	x6,x6,0xd
    40000560:	01f30313          	addi	x6,x6,31
    40000564:	01f43383          	ld	x7,31(x8)
    40000568:	00730463          	beq	x6,x7,40000570 <reset_vector+0x528>
    4000056c:	0850106f          	j	40001df0 <fail>
    40000570:	01f00193          	li	x3,31
    40000574:	00004337          	lui	x6,0x4
    40000578:	03f3031b          	addiw	x6,x6,63 # 403f <_start-0x3fffbfc1>
    4000057c:	03f41383          	lh	x7,63(x8)
    40000580:	00730463          	beq	x6,x7,40000588 <reset_vector+0x540>
    40000584:	06d0106f          	j	40001df0 <fail>
    40000588:	02000193          	li	x3,32
    4000058c:	00004337          	lui	x6,0x4
    40000590:	03f3031b          	addiw	x6,x6,63 # 403f <_start-0x3fffbfc1>
    40000594:	03f45383          	lhu	x7,63(x8)
    40000598:	00730463          	beq	x6,x7,400005a0 <reset_vector+0x558>
    4000059c:	0550106f          	j	40001df0 <fail>
    400005a0:	02100193          	li	x3,33
    400005a4:	403f4337          	lui	x6,0x403f4
    400005a8:	e3d3031b          	addiw	x6,x6,-451 # 403f3e3d <__STACK_START_+0x3f1a1d>
    400005ac:	03d42383          	lw	x7,61(x8)
    400005b0:	00730463          	beq	x6,x7,400005b8 <reset_vector+0x570>
    400005b4:	03d0106f          	j	40001df0 <fail>
    400005b8:	02200193          	li	x3,34
    400005bc:	41404337          	lui	x6,0x41404
    400005c0:	f3e3031b          	addiw	x6,x6,-194 # 41403f3e <__STACK_START_+0x1401b1e>
    400005c4:	03e42383          	lw	x7,62(x8)
    400005c8:	00730463          	beq	x6,x7,400005d0 <reset_vector+0x588>
    400005cc:	0250106f          	j	40001df0 <fail>
    400005d0:	02300193          	li	x3,35
    400005d4:	42414337          	lui	x6,0x42414
    400005d8:	03f3031b          	addiw	x6,x6,63 # 4241403f <__STACK_START_+0x2411c1f>
    400005dc:	03f42383          	lw	x7,63(x8)
    400005e0:	00730463          	beq	x6,x7,400005e8 <reset_vector+0x5a0>
    400005e4:	00d0106f          	j	40001df0 <fail>
    400005e8:	02400193          	li	x3,36
    400005ec:	403f4337          	lui	x6,0x403f4
    400005f0:	e3d3031b          	addiw	x6,x6,-451 # 403f3e3d <__STACK_START_+0x3f1a1d>
    400005f4:	03d46383          	lwu	x7,61(x8)
    400005f8:	00730463          	beq	x6,x7,40000600 <reset_vector+0x5b8>
    400005fc:	7f40106f          	j	40001df0 <fail>
    40000600:	02500193          	li	x3,37
    40000604:	41404337          	lui	x6,0x41404
    40000608:	f3e3031b          	addiw	x6,x6,-194 # 41403f3e <__STACK_START_+0x1401b1e>
    4000060c:	03e46383          	lwu	x7,62(x8)
    40000610:	00730463          	beq	x6,x7,40000618 <reset_vector+0x5d0>
    40000614:	7dc0106f          	j	40001df0 <fail>
    40000618:	02600193          	li	x3,38
    4000061c:	42414337          	lui	x6,0x42414
    40000620:	03f3031b          	addiw	x6,x6,63 # 4241403f <__STACK_START_+0x2411c1f>
    40000624:	03f46383          	lwu	x7,63(x8)
    40000628:	00730463          	beq	x6,x7,40000630 <reset_vector+0x5e8>
    4000062c:	7c40106f          	j	40001df0 <fail>
    40000630:	02700193          	li	x3,39
    40000634:	01010337          	lui	x6,0x1010
    40000638:	cf93031b          	addiw	x6,x6,-775 # 100fcf9 <_start-0x3eff0307>
    4000063c:	00c31313          	slli	x6,x6,0xc
    40000640:	f4f30313          	addi	x6,x6,-177
    40000644:	00c31313          	slli	x6,x6,0xc
    40000648:	0ed30313          	addi	x6,x6,237
    4000064c:	00e31313          	slli	x6,x6,0xe
    40000650:	a3930313          	addi	x6,x6,-1479
    40000654:	03943383          	ld	x7,57(x8)
    40000658:	00730463          	beq	x6,x7,40000660 <reset_vector+0x618>
    4000065c:	7940106f          	j	40001df0 <fail>
    40000660:	02800193          	li	x3,40
    40000664:	01050337          	lui	x6,0x1050
    40000668:	0fd3031b          	addiw	x6,x6,253 # 10500fd <_start-0x3efaff03>
    4000066c:	00c31313          	slli	x6,x6,0xc
    40000670:	f8f30313          	addi	x6,x6,-113
    40000674:	00c31313          	slli	x6,x6,0xc
    40000678:	4f130313          	addi	x6,x6,1265
    4000067c:	00e31313          	slli	x6,x6,0xe
    40000680:	b3a30313          	addi	x6,x6,-1222
    40000684:	03a43383          	ld	x7,58(x8)
    40000688:	00730463          	beq	x6,x7,40000690 <reset_vector+0x648>
    4000068c:	7640106f          	j	40001df0 <fail>
    40000690:	02900193          	li	x3,41
    40000694:	00011337          	lui	x6,0x11
    40000698:	9053031b          	addiw	x6,x6,-1787 # 10905 <_start-0x3ffef6fb>
    4000069c:	01031313          	slli	x6,x6,0x10
    400006a0:	0fd30313          	addi	x6,x6,253
    400006a4:	01031313          	slli	x6,x6,0x10
    400006a8:	8f530313          	addi	x6,x6,-1803
    400006ac:	00e31313          	slli	x6,x6,0xe
    400006b0:	c3b30313          	addi	x6,x6,-965
    400006b4:	03b43383          	ld	x7,59(x8)
    400006b8:	00730463          	beq	x6,x7,400006c0 <reset_vector+0x678>
    400006bc:	7340106f          	j	40001df0 <fail>
    400006c0:	02a00193          	li	x3,42
    400006c4:	00011337          	lui	x6,0x11
    400006c8:	d093031b          	addiw	x6,x6,-759 # 10d09 <_start-0x3ffef2f7>
    400006cc:	01031313          	slli	x6,x6,0x10
    400006d0:	50130313          	addi	x6,x6,1281
    400006d4:	01031313          	slli	x6,x6,0x10
    400006d8:	cf930313          	addi	x6,x6,-775
    400006dc:	00e31313          	slli	x6,x6,0xe
    400006e0:	d3c30313          	addi	x6,x6,-708
    400006e4:	03c43383          	ld	x7,60(x8)
    400006e8:	00730463          	beq	x6,x7,400006f0 <reset_vector+0x6a8>
    400006ec:	7040106f          	j	40001df0 <fail>
    400006f0:	02b00193          	li	x3,43
    400006f4:	00111337          	lui	x6,0x111
    400006f8:	0d13031b          	addiw	x6,x6,209 # 1110d1 <_start-0x3feeef2f>
    400006fc:	00c31313          	slli	x6,x6,0xc
    40000700:	90530313          	addi	x6,x6,-1787
    40000704:	01031313          	slli	x6,x6,0x10
    40000708:	0fd30313          	addi	x6,x6,253
    4000070c:	00e31313          	slli	x6,x6,0xe
    40000710:	e3d30313          	addi	x6,x6,-451
    40000714:	03d43383          	ld	x7,61(x8)
    40000718:	00730463          	beq	x6,x7,40000720 <reset_vector+0x6d8>
    4000071c:	6d40106f          	j	40001df0 <fail>
    40000720:	02c00193          	li	x3,44
    40000724:	00115337          	lui	x6,0x115
    40000728:	1113031b          	addiw	x6,x6,273 # 115111 <_start-0x3feeaeef>
    4000072c:	00c31313          	slli	x6,x6,0xc
    40000730:	d0930313          	addi	x6,x6,-759
    40000734:	01031313          	slli	x6,x6,0x10
    40000738:	50130313          	addi	x6,x6,1281
    4000073c:	00e31313          	slli	x6,x6,0xe
    40000740:	f3e30313          	addi	x6,x6,-194
    40000744:	03e43383          	ld	x7,62(x8)
    40000748:	00730463          	beq	x6,x7,40000750 <reset_vector+0x708>
    4000074c:	6a40106f          	j	40001df0 <fail>
    40000750:	02d00193          	li	x3,45
    40000754:	01191337          	lui	x6,0x1191
    40000758:	5113031b          	addiw	x6,x6,1297 # 1191511 <_start-0x3ee6eaef>
    4000075c:	00c31313          	slli	x6,x6,0xc
    40000760:	0d130313          	addi	x6,x6,209
    40000764:	00c31313          	slli	x6,x6,0xc
    40000768:	90530313          	addi	x6,x6,-1787
    4000076c:	00e31313          	slli	x6,x6,0xe
    40000770:	03f30313          	addi	x6,x6,63
    40000774:	03f43383          	ld	x7,63(x8)
    40000778:	00730463          	beq	x6,x7,40000780 <reset_vector+0x738>
    4000077c:	6740106f          	j	40001df0 <fail>
    40000780:	02e00193          	li	x3,46
    40000784:	ffff8337          	lui	x6,0xffff8
    40000788:	1803031b          	addiw	x6,x6,384 # ffffffffffff8180 <__STACK_START_+0xffffffffbfff5d60>
    4000078c:	006410a3          	sh	x6,1(x8)
    40000790:	00141383          	lh	x7,1(x8)
    40000794:	00730463          	beq	x6,x7,4000079c <reset_vector+0x754>
    40000798:	6580106f          	j	40001df0 <fail>
    4000079c:	02f00193          	li	x3,47
    400007a0:	00008337          	lui	x6,0x8
    400007a4:	3823031b          	addiw	x6,x6,898 # 8382 <_start-0x3fff7c7e>
    400007a8:	006410a3          	sh	x6,1(x8)
    400007ac:	00145383          	lhu	x7,1(x8)
    400007b0:	00730463          	beq	x6,x7,400007b8 <reset_vector+0x770>
    400007b4:	63c0106f          	j	40001df0 <fail>
    400007b8:	03000193          	li	x3,48
    400007bc:	87868337          	lui	x6,0x87868
    400007c0:	5843031b          	addiw	x6,x6,1412 # ffffffff87868584 <__STACK_START_+0xffffffff47866164>
    400007c4:	006420a3          	sw	x6,1(x8)
    400007c8:	00142383          	lw	x7,1(x8)
    400007cc:	00730463          	beq	x6,x7,400007d4 <reset_vector+0x78c>
    400007d0:	6200106f          	j	40001df0 <fail>
    400007d4:	03100193          	li	x3,49
    400007d8:	8b8a9337          	lui	x6,0x8b8a9
    400007dc:	9883031b          	addiw	x6,x6,-1656 # ffffffff8b8a8988 <__STACK_START_+0xffffffff4b8a6568>
    400007e0:	00642123          	sw	x6,2(x8)
    400007e4:	00242383          	lw	x7,2(x8)
    400007e8:	00730463          	beq	x6,x7,400007f0 <reset_vector+0x7a8>
    400007ec:	6040106f          	j	40001df0 <fail>
    400007f0:	03200193          	li	x3,50
    400007f4:	8f8e9337          	lui	x6,0x8f8e9
    400007f8:	d8c3031b          	addiw	x6,x6,-628 # ffffffff8f8e8d8c <__STACK_START_+0xffffffff4f8e696c>
    400007fc:	006421a3          	sw	x6,3(x8)
    40000800:	00342383          	lw	x7,3(x8)
    40000804:	00730463          	beq	x6,x7,4000080c <reset_vector+0x7c4>
    40000808:	5e80106f          	j	40001df0 <fail>
    4000080c:	03300193          	li	x3,51
    40000810:	00094337          	lui	x6,0x94
    40000814:	9293031b          	addiw	x6,x6,-1751 # 93929 <_start-0x3ff6c6d7>
    40000818:	00c31313          	slli	x6,x6,0xc
    4000081c:	19030313          	addi	x6,x6,400
    40000820:	006420a3          	sw	x6,1(x8)
    40000824:	00146383          	lwu	x7,1(x8)
    40000828:	00730463          	beq	x6,x7,40000830 <reset_vector+0x7e8>
    4000082c:	5c40106f          	j	40001df0 <fail>
    40000830:	03400193          	li	x3,52
    40000834:	00098337          	lui	x6,0x98
    40000838:	9693031b          	addiw	x6,x6,-1687 # 97969 <_start-0x3ff68697>
    4000083c:	00c31313          	slli	x6,x6,0xc
    40000840:	59430313          	addi	x6,x6,1428
    40000844:	00642123          	sw	x6,2(x8)
    40000848:	00246383          	lwu	x7,2(x8)
    4000084c:	00730463          	beq	x6,x7,40000854 <reset_vector+0x80c>
    40000850:	5a00106f          	j	40001df0 <fail>
    40000854:	03500193          	li	x3,53
    40000858:	0004e337          	lui	x6,0x4e
    4000085c:	cd53031b          	addiw	x6,x6,-811 # 4dcd5 <_start-0x3ffb232b>
    40000860:	00d31313          	slli	x6,x6,0xd
    40000864:	99830313          	addi	x6,x6,-1640
    40000868:	006421a3          	sw	x6,3(x8)
    4000086c:	00346383          	lwu	x7,3(x8)
    40000870:	00730463          	beq	x6,x7,40000878 <reset_vector+0x830>
    40000874:	57c0106f          	j	40001df0 <fail>
    40000878:	03600193          	li	x3,54
    4000087c:	ffd1d337          	lui	x6,0xffd1d
    40000880:	1513031b          	addiw	x6,x6,337 # ffffffffffd1d151 <__STACK_START_+0xffffffffbfd1ad31>
    40000884:	00c31313          	slli	x6,x6,0xc
    40000888:	d0530313          	addi	x6,x6,-763
    4000088c:	01031313          	slli	x6,x6,0x10
    40000890:	cf530313          	addi	x6,x6,-779
    40000894:	00d31313          	slli	x6,x6,0xd
    40000898:	d9c30313          	addi	x6,x6,-612
    4000089c:	006430a3          	sd	x6,1(x8)
    400008a0:	00143383          	ld	x7,1(x8)
    400008a4:	00730463          	beq	x6,x7,400008ac <reset_vector+0x864>
    400008a8:	5480106f          	j	40001df0 <fail>
    400008ac:	03700193          	li	x3,55
    400008b0:	ff575337          	lui	x6,0xff575
    400008b4:	5533031b          	addiw	x6,x6,1363 # ffffffffff575553 <__STACK_START_+0xffffffffbf573133>
    400008b8:	00c31313          	slli	x6,x6,0xc
    400008bc:	51530313          	addi	x6,x6,1301
    400008c0:	00e31313          	slli	x6,x6,0xe
    400008c4:	d3530313          	addi	x6,x6,-715
    400008c8:	00d31313          	slli	x6,x6,0xd
    400008cc:	5a430313          	addi	x6,x6,1444
    400008d0:	00643123          	sd	x6,2(x8)
    400008d4:	00243383          	ld	x7,2(x8)
    400008d8:	00730463          	beq	x6,x7,400008e0 <reset_vector+0x898>
    400008dc:	5140106f          	j	40001df0 <fail>
    400008e0:	03800193          	li	x3,56
    400008e4:	ffd9e337          	lui	x6,0xffd9e
    400008e8:	9593031b          	addiw	x6,x6,-1703 # ffffffffffd9d959 <__STACK_START_+0xffffffffbfd9b539>
    400008ec:	00d31313          	slli	x6,x6,0xd
    400008f0:	b0b30313          	addi	x6,x6,-1269
    400008f4:	01031313          	slli	x6,x6,0x10
    400008f8:	aeb30313          	addi	x6,x6,-1301
    400008fc:	00c31313          	slli	x6,x6,0xc
    40000900:	dac30313          	addi	x6,x6,-596
    40000904:	006431a3          	sd	x6,3(x8)
    40000908:	00343383          	ld	x7,3(x8)
    4000090c:	00730463          	beq	x6,x7,40000914 <reset_vector+0x8cc>
    40000910:	4e00106f          	j	40001df0 <fail>
    40000914:	03900193          	li	x3,57
    40000918:	ff777337          	lui	x6,0xff777
    4000091c:	5733031b          	addiw	x6,x6,1395 # ffffffffff777573 <__STACK_START_+0xffffffffbf775153>
    40000920:	00c31313          	slli	x6,x6,0xc
    40000924:	71730313          	addi	x6,x6,1815
    40000928:	00f31313          	slli	x6,x6,0xf
    4000092c:	b6b30313          	addi	x6,x6,-1173
    40000930:	00c31313          	slli	x6,x6,0xc
    40000934:	5b430313          	addi	x6,x6,1460
    40000938:	00643223          	sd	x6,4(x8)
    4000093c:	00443383          	ld	x7,4(x8)
    40000940:	00730463          	beq	x6,x7,40000948 <reset_vector+0x900>
    40000944:	4ac0106f          	j	40001df0 <fail>
    40000948:	03a00193          	li	x3,58
    4000094c:	ffff1337          	lui	x6,0xffff1
    40000950:	f0b3031b          	addiw	x6,x6,-245 # ffffffffffff0f0b <__STACK_START_+0xffffffffbffeeaeb>
    40000954:	01031313          	slli	x6,x6,0x10
    40000958:	70330313          	addi	x6,x6,1795
    4000095c:	01031313          	slli	x6,x6,0x10
    40000960:	efb30313          	addi	x6,x6,-261
    40000964:	00e31313          	slli	x6,x6,0xe
    40000968:	dbc30313          	addi	x6,x6,-580
    4000096c:	006432a3          	sd	x6,5(x8)
    40000970:	00543383          	ld	x7,5(x8)
    40000974:	00730463          	beq	x6,x7,4000097c <reset_vector+0x934>
    40000978:	4780106f          	j	40001df0 <fail>
    4000097c:	03b00193          	li	x3,59
    40000980:	ffe5e337          	lui	x6,0xffe5e
    40000984:	5653031b          	addiw	x6,x6,1381 # ffffffffffe5e565 <__STACK_START_+0xffffffffbfe5c145>
    40000988:	00e31313          	slli	x6,x6,0xe
    4000098c:	91930313          	addi	x6,x6,-1767
    40000990:	00d31313          	slli	x6,x6,0xd
    40000994:	f1b30313          	addi	x6,x6,-229
    40000998:	00e31313          	slli	x6,x6,0xe
    4000099c:	5c430313          	addi	x6,x6,1476
    400009a0:	00643323          	sd	x6,6(x8)
    400009a4:	00643383          	ld	x7,6(x8)
    400009a8:	00730463          	beq	x6,x7,400009b0 <reset_vector+0x968>
    400009ac:	4440106f          	j	40001df0 <fail>
    400009b0:	03c00193          	li	x3,60
    400009b4:	ffe9f337          	lui	x6,0xffe9f
    400009b8:	9693031b          	addiw	x6,x6,-1687 # ffffffffffe9e969 <__STACK_START_+0xffffffffbfe9c549>
    400009bc:	00d31313          	slli	x6,x6,0xd
    400009c0:	d0d30313          	addi	x6,x6,-755
    400009c4:	01031313          	slli	x6,x6,0x10
    400009c8:	ced30313          	addi	x6,x6,-787
    400009cc:	00c31313          	slli	x6,x6,0xc
    400009d0:	dcc30313          	addi	x6,x6,-564
    400009d4:	006433a3          	sd	x6,7(x8)
    400009d8:	00743383          	ld	x7,7(x8)
    400009dc:	00730463          	beq	x6,x7,400009e4 <reset_vector+0x99c>
    400009e0:	4100106f          	j	40001df0 <fail>
    400009e4:	03d00193          	li	x3,61
    400009e8:	ffffd337          	lui	x6,0xffffd
    400009ec:	5d43031b          	addiw	x6,x6,1492 # ffffffffffffd5d4 <__STACK_START_+0xffffffffbfffb1b4>
    400009f0:	00641fa3          	sh	x6,31(x8)
    400009f4:	01f41383          	lh	x7,31(x8)
    400009f8:	00730463          	beq	x6,x7,40000a00 <reset_vector+0x9b8>
    400009fc:	3f40106f          	j	40001df0 <fail>
    40000a00:	03e00193          	li	x3,62
    40000a04:	0000d337          	lui	x6,0xd
    40000a08:	7d63031b          	addiw	x6,x6,2006 # d7d6 <_start-0x3fff282a>
    40000a0c:	00641fa3          	sh	x6,31(x8)
    40000a10:	01f45383          	lhu	x7,31(x8)
    40000a14:	00730463          	beq	x6,x7,40000a1c <reset_vector+0x9d4>
    40000a18:	3d80106f          	j	40001df0 <fail>
    40000a1c:	03f00193          	li	x3,63
    40000a20:	dbdae337          	lui	x6,0xdbdae
    40000a24:	9d83031b          	addiw	x6,x6,-1576 # ffffffffdbdad9d8 <__STACK_START_+0xffffffff9bdab5b8>
    40000a28:	00642ea3          	sw	x6,29(x8)
    40000a2c:	01d42383          	lw	x7,29(x8)
    40000a30:	00730463          	beq	x6,x7,40000a38 <reset_vector+0x9f0>
    40000a34:	3bc0106f          	j	40001df0 <fail>
    40000a38:	04000193          	li	x3,64
    40000a3c:	dfdee337          	lui	x6,0xdfdee
    40000a40:	ddc3031b          	addiw	x6,x6,-548 # ffffffffdfdedddc <__STACK_START_+0xffffffff9fdeb9bc>
    40000a44:	00642f23          	sw	x6,30(x8)
    40000a48:	01e42383          	lw	x7,30(x8)
    40000a4c:	00730463          	beq	x6,x7,40000a54 <reset_vector+0xa0c>
    40000a50:	3a00106f          	j	40001df0 <fail>
    40000a54:	04100193          	li	x3,65
    40000a58:	e3e2e337          	lui	x6,0xe3e2e
    40000a5c:	1e03031b          	addiw	x6,x6,480 # ffffffffe3e2e1e0 <__STACK_START_+0xffffffffa3e2bdc0>
    40000a60:	00642fa3          	sw	x6,31(x8)
    40000a64:	01f42383          	lw	x7,31(x8)
    40000a68:	00730463          	beq	x6,x7,40000a70 <reset_vector+0xa28>
    40000a6c:	3840106f          	j	40001df0 <fail>
    40000a70:	04200193          	li	x3,66
    40000a74:	00074337          	lui	x6,0x74
    40000a78:	f373031b          	addiw	x6,x6,-201 # 73f37 <_start-0x3ff8c0c9>
    40000a7c:	00d31313          	slli	x6,x6,0xd
    40000a80:	5e430313          	addi	x6,x6,1508
    40000a84:	00642ea3          	sw	x6,29(x8)
    40000a88:	01d46383          	lwu	x7,29(x8)
    40000a8c:	00730463          	beq	x6,x7,40000a94 <reset_vector+0xa4c>
    40000a90:	3600106f          	j	40001df0 <fail>
    40000a94:	04300193          	li	x3,67
    40000a98:	000ec337          	lui	x6,0xec
    40000a9c:	eaf3031b          	addiw	x6,x6,-337 # ebeaf <_start-0x3ff14151>
    40000aa0:	00c31313          	slli	x6,x6,0xc
    40000aa4:	9e830313          	addi	x6,x6,-1560
    40000aa8:	00642f23          	sw	x6,30(x8)
    40000aac:	01e46383          	lwu	x7,30(x8)
    40000ab0:	00730463          	beq	x6,x7,40000ab8 <reset_vector+0xa70>
    40000ab4:	33c0106f          	j	40001df0 <fail>
    40000ab8:	04400193          	li	x3,68
    40000abc:	000f0337          	lui	x6,0xf0
    40000ac0:	eef3031b          	addiw	x6,x6,-273 # efeef <_start-0x3ff10111>
    40000ac4:	00c31313          	slli	x6,x6,0xc
    40000ac8:	dec30313          	addi	x6,x6,-532
    40000acc:	00642fa3          	sw	x6,31(x8)
    40000ad0:	01f46383          	lwu	x7,31(x8)
    40000ad4:	00730463          	beq	x6,x7,40000adc <reset_vector+0xa94>
    40000ad8:	3180106f          	j	40001df0 <fail>
    40000adc:	04500193          	li	x3,69
    40000ae0:	fffc0337          	lui	x6,0xfffc0
    40000ae4:	b7b3031b          	addiw	x6,x6,-1157 # fffffffffffbfb7b <__STACK_START_+0xffffffffbffbd75b>
    40000ae8:	00f31313          	slli	x6,x6,0xf
    40000aec:	d3d30313          	addi	x6,x6,-707
    40000af0:	00e31313          	slli	x6,x6,0xe
    40000af4:	f2f30313          	addi	x6,x6,-209
    40000af8:	00c31313          	slli	x6,x6,0xc
    40000afc:	1f030313          	addi	x6,x6,496
    40000b00:	00643ca3          	sd	x6,25(x8)
    40000b04:	01943383          	ld	x7,25(x8)
    40000b08:	00730463          	beq	x6,x7,40000b10 <reset_vector+0xac8>
    40000b0c:	2e40106f          	j	40001df0 <fail>
    40000b10:	04600193          	li	x3,70
    40000b14:	ffff0337          	lui	x6,0xffff0
    40000b18:	dfd3031b          	addiw	x6,x6,-515 # fffffffffffefdfd <__STACK_START_+0xffffffffbffed9dd>
    40000b1c:	01031313          	slli	x6,x6,0x10
    40000b20:	bfb30313          	addi	x6,x6,-1029
    40000b24:	01031313          	slli	x6,x6,0x10
    40000b28:	9f830313          	addi	x6,x6,-1544
    40000b2c:	00643d23          	sd	x6,26(x8)
    40000b30:	01a43383          	ld	x7,26(x8)
    40000b34:	00730463          	beq	x6,x7,40000b3c <reset_vector+0xaf4>
    40000b38:	2b80106f          	j	40001df0 <fail>
    40000b3c:	04700193          	li	x3,71
    40000b40:	01c18337          	lui	x6,0x1c18
    40000b44:	1413031b          	addiw	x6,x6,321 # 1c18141 <_start-0x3e3e7ebf>
    40000b48:	01131313          	slli	x6,x6,0x11
    40000b4c:	18130313          	addi	x6,x6,385
    40000b50:	01131313          	slli	x6,x6,0x11
    40000b54:	10030313          	addi	x6,x6,256
    40000b58:	00643da3          	sd	x6,27(x8)
    40000b5c:	01b43383          	ld	x7,27(x8)
    40000b60:	00730463          	beq	x6,x7,40000b68 <reset_vector+0xb20>
    40000b64:	28c0106f          	j	40001df0 <fail>
    40000b68:	04800193          	li	x3,72
    40000b6c:	00f0e337          	lui	x6,0xf0e
    40000b70:	0d13031b          	addiw	x6,x6,209 # f0e0d1 <_start-0x3f0f1f2f>
    40000b74:	00c31313          	slli	x6,x6,0xc
    40000b78:	c0b30313          	addi	x6,x6,-1013
    40000b7c:	00c31313          	slli	x6,x6,0xc
    40000b80:	0a130313          	addi	x6,x6,161
    40000b84:	00c31313          	slli	x6,x6,0xc
    40000b88:	90830313          	addi	x6,x6,-1784
    40000b8c:	00643e23          	sd	x6,28(x8)
    40000b90:	01c43383          	ld	x7,28(x8)
    40000b94:	00730463          	beq	x6,x7,40000b9c <reset_vector+0xb54>
    40000b98:	2580106f          	j	40001df0 <fail>
    40000b9c:	04900193          	li	x3,73
    40000ba0:	01716337          	lui	x6,0x1716
    40000ba4:	1513031b          	addiw	x6,x6,337 # 1716151 <_start-0x3e8e9eaf>
    40000ba8:	00c31313          	slli	x6,x6,0xc
    40000bac:	41330313          	addi	x6,x6,1043
    40000bb0:	00c31313          	slli	x6,x6,0xc
    40000bb4:	12130313          	addi	x6,x6,289
    40000bb8:	00c31313          	slli	x6,x6,0xc
    40000bbc:	11030313          	addi	x6,x6,272
    40000bc0:	00643ea3          	sd	x6,29(x8)
    40000bc4:	01d43383          	ld	x7,29(x8)
    40000bc8:	00730463          	beq	x6,x7,40000bd0 <reset_vector+0xb88>
    40000bcc:	2240106f          	j	40001df0 <fail>
    40000bd0:	04a00193          	li	x3,74
    40000bd4:	001f2337          	lui	x6,0x1f2
    40000bd8:	e1d3031b          	addiw	x6,x6,-483 # 1f1e1d <_start-0x3fe0e1e3>
    40000bdc:	00e31313          	slli	x6,x6,0xe
    40000be0:	70730313          	addi	x6,x6,1799
    40000be4:	00d31313          	slli	x6,x6,0xd
    40000be8:	8d130313          	addi	x6,x6,-1839
    40000bec:	00d31313          	slli	x6,x6,0xd
    40000bf0:	91830313          	addi	x6,x6,-1768
    40000bf4:	00643f23          	sd	x6,30(x8)
    40000bf8:	01e43383          	ld	x7,30(x8)
    40000bfc:	00730463          	beq	x6,x7,40000c04 <reset_vector+0xbbc>
    40000c00:	1f00106f          	j	40001df0 <fail>
    40000c04:	04b00193          	li	x3,75
    40000c08:	009ca337          	lui	x6,0x9ca
    40000c0c:	8953031b          	addiw	x6,x6,-1899 # 9c9895 <_start-0x3f63676b>
    40000c10:	00c31313          	slli	x6,x6,0xc
    40000c14:	90930313          	addi	x6,x6,-1783
    40000c18:	00d31313          	slli	x6,x6,0xd
    40000c1c:	91130313          	addi	x6,x6,-1775
    40000c20:	00d31313          	slli	x6,x6,0xd
    40000c24:	12030313          	addi	x6,x6,288
    40000c28:	00643fa3          	sd	x6,31(x8)
    40000c2c:	01f43383          	ld	x7,31(x8)
    40000c30:	00730463          	beq	x6,x7,40000c38 <reset_vector+0xbf0>
    40000c34:	1bc0106f          	j	40001df0 <fail>
    40000c38:	04c00193          	li	x3,76
    40000c3c:	00003337          	lui	x6,0x3
    40000c40:	5343031b          	addiw	x6,x6,1332 # 3534 <_start-0x3fffcacc>
    40000c44:	02641fa3          	sh	x6,63(x8)
    40000c48:	03f41383          	lh	x7,63(x8)
    40000c4c:	00730463          	beq	x6,x7,40000c54 <reset_vector+0xc0c>
    40000c50:	1a00106f          	j	40001df0 <fail>
    40000c54:	04d00193          	li	x3,77
    40000c58:	00003337          	lui	x6,0x3
    40000c5c:	7363031b          	addiw	x6,x6,1846 # 3736 <_start-0x3fffc8ca>
    40000c60:	02641fa3          	sh	x6,63(x8)
    40000c64:	03f45383          	lhu	x7,63(x8)
    40000c68:	00730463          	beq	x6,x7,40000c70 <reset_vector+0xc28>
    40000c6c:	1840106f          	j	40001df0 <fail>
    40000c70:	04e00193          	li	x3,78
    40000c74:	3b3a4337          	lui	x6,0x3b3a4
    40000c78:	9383031b          	addiw	x6,x6,-1736 # 3b3a3938 <_start-0x4c5c6c8>
    40000c7c:	02642ea3          	sw	x6,61(x8)
    40000c80:	03d42383          	lw	x7,61(x8)
    40000c84:	00730463          	beq	x6,x7,40000c8c <reset_vector+0xc44>
    40000c88:	1680106f          	j	40001df0 <fail>
    40000c8c:	04f00193          	li	x3,79
    40000c90:	3f3e4337          	lui	x6,0x3f3e4
    40000c94:	d3c3031b          	addiw	x6,x6,-708 # 3f3e3d3c <_start-0xc1c2c4>
    40000c98:	02642f23          	sw	x6,62(x8)
    40000c9c:	03e42383          	lw	x7,62(x8)
    40000ca0:	00730463          	beq	x6,x7,40000ca8 <reset_vector+0xc60>
    40000ca4:	14c0106f          	j	40001df0 <fail>
    40000ca8:	05000193          	li	x3,80
    40000cac:	43424337          	lui	x6,0x43424
    40000cb0:	1403031b          	addiw	x6,x6,320 # 43424140 <__STACK_START_+0x3421d20>
    40000cb4:	02642fa3          	sw	x6,63(x8)
    40000cb8:	03f42383          	lw	x7,63(x8)
    40000cbc:	00730463          	beq	x6,x7,40000cc4 <reset_vector+0xc7c>
    40000cc0:	1300106f          	j	40001df0 <fail>
    40000cc4:	05100193          	li	x3,81
    40000cc8:	47464337          	lui	x6,0x47464
    40000ccc:	5443031b          	addiw	x6,x6,1348 # 47464544 <__STACK_START_+0x7462124>
    40000cd0:	02642ea3          	sw	x6,61(x8)
    40000cd4:	03d46383          	lwu	x7,61(x8)
    40000cd8:	00730463          	beq	x6,x7,40000ce0 <reset_vector+0xc98>
    40000cdc:	1140106f          	j	40001df0 <fail>
    40000ce0:	05200193          	li	x3,82
    40000ce4:	4b4a5337          	lui	x6,0x4b4a5
    40000ce8:	9483031b          	addiw	x6,x6,-1720 # 4b4a4948 <__STACK_START_+0xb4a2528>
    40000cec:	02642f23          	sw	x6,62(x8)
    40000cf0:	03e46383          	lwu	x7,62(x8)
    40000cf4:	00730463          	beq	x6,x7,40000cfc <reset_vector+0xcb4>
    40000cf8:	0f80106f          	j	40001df0 <fail>
    40000cfc:	05300193          	li	x3,83
    40000d00:	4f4e5337          	lui	x6,0x4f4e5
    40000d04:	d4c3031b          	addiw	x6,x6,-692 # 4f4e4d4c <__STACK_START_+0xf4e292c>
    40000d08:	02642fa3          	sw	x6,63(x8)
    40000d0c:	03f46383          	lwu	x7,63(x8)
    40000d10:	00730463          	beq	x6,x7,40000d18 <reset_vector+0xcd0>
    40000d14:	0dc0106f          	j	40001df0 <fail>
    40000d18:	05400193          	li	x3,84
    40000d1c:	05756337          	lui	x6,0x5756
    40000d20:	5553031b          	addiw	x6,x6,1365 # 5756555 <_start-0x3a8a9aab>
    40000d24:	00c31313          	slli	x6,x6,0xc
    40000d28:	45330313          	addi	x6,x6,1107
    40000d2c:	00c31313          	slli	x6,x6,0xc
    40000d30:	52530313          	addi	x6,x6,1317
    40000d34:	00c31313          	slli	x6,x6,0xc
    40000d38:	15030313          	addi	x6,x6,336
    40000d3c:	02643ca3          	sd	x6,57(x8)
    40000d40:	03943383          	ld	x7,57(x8)
    40000d44:	00730463          	beq	x6,x7,40000d4c <reset_vector+0xd04>
    40000d48:	0a80106f          	j	40001df0 <fail>
    40000d4c:	05500193          	li	x3,85
    40000d50:	017d8337          	lui	x6,0x17d8
    40000d54:	9753031b          	addiw	x6,x6,-1675 # 17d7975 <_start-0x3e82868b>
    40000d58:	00c31313          	slli	x6,x6,0xc
    40000d5c:	71730313          	addi	x6,x6,1815
    40000d60:	00d31313          	slli	x6,x6,0xd
    40000d64:	ad330313          	addi	x6,x6,-1325
    40000d68:	00d31313          	slli	x6,x6,0xd
    40000d6c:	95830313          	addi	x6,x6,-1704
    40000d70:	02643d23          	sd	x6,58(x8)
    40000d74:	03a43383          	ld	x7,58(x8)
    40000d78:	00730463          	beq	x6,x7,40000d80 <reset_vector+0xd38>
    40000d7c:	0740106f          	j	40001df0 <fail>
    40000d80:	05600193          	li	x3,86
    40000d84:	00ced337          	lui	x6,0xced
    40000d88:	ccb3031b          	addiw	x6,x6,-821 # cecccb <_start-0x3f313335>
    40000d8c:	00d31313          	slli	x6,x6,0xd
    40000d90:	91930313          	addi	x6,x6,-1767
    40000d94:	00d31313          	slli	x6,x6,0xd
    40000d98:	b1330313          	addi	x6,x6,-1261
    40000d9c:	00d31313          	slli	x6,x6,0xd
    40000da0:	16030313          	addi	x6,x6,352
    40000da4:	02643da3          	sd	x6,59(x8)
    40000da8:	03b43383          	ld	x7,59(x8)
    40000dac:	00730463          	beq	x6,x7,40000db4 <reset_vector+0xd6c>
    40000db0:	0400106f          	j	40001df0 <fail>
    40000db4:	05700193          	li	x3,87
    40000db8:	06f6e337          	lui	x6,0x6f6e
    40000dbc:	6d73031b          	addiw	x6,x6,1751 # 6f6e6d7 <_start-0x39091929>
    40000dc0:	00c31313          	slli	x6,x6,0xc
    40000dc4:	c6b30313          	addi	x6,x6,-917
    40000dc8:	00c31313          	slli	x6,x6,0xc
    40000dcc:	6a730313          	addi	x6,x6,1703
    40000dd0:	00c31313          	slli	x6,x6,0xc
    40000dd4:	96830313          	addi	x6,x6,-1688
    40000dd8:	02643e23          	sd	x6,60(x8)
    40000ddc:	03c43383          	ld	x7,60(x8)
    40000de0:	00730463          	beq	x6,x7,40000de8 <reset_vector+0xda0>
    40000de4:	00c0106f          	j	40001df0 <fail>
    40000de8:	05800193          	li	x3,88
    40000dec:	07776337          	lui	x6,0x7776
    40000df0:	7573031b          	addiw	x6,x6,1879 # 7776757 <_start-0x388898a9>
    40000df4:	00c31313          	slli	x6,x6,0xc
    40000df8:	47330313          	addi	x6,x6,1139
    40000dfc:	00c31313          	slli	x6,x6,0xc
    40000e00:	72730313          	addi	x6,x6,1831
    40000e04:	00c31313          	slli	x6,x6,0xc
    40000e08:	17030313          	addi	x6,x6,368
    40000e0c:	02643ea3          	sd	x6,61(x8)
    40000e10:	03d43383          	ld	x7,61(x8)
    40000e14:	7c731ee3          	bne	x6,x7,40001df0 <fail>
    40000e18:	05900193          	li	x3,89
    40000e1c:	00ff0337          	lui	x6,0xff0
    40000e20:	cfb3031b          	addiw	x6,x6,-773 # fefcfb <_start-0x3f010305>
    40000e24:	00c31313          	slli	x6,x6,0xc
    40000e28:	f8f30313          	addi	x6,x6,-113
    40000e2c:	00c31313          	slli	x6,x6,0xc
    40000e30:	6f530313          	addi	x6,x6,1781
    40000e34:	00f31313          	slli	x6,x6,0xf
    40000e38:	97830313          	addi	x6,x6,-1672
    40000e3c:	02643f23          	sd	x6,62(x8)
    40000e40:	03e43383          	ld	x7,62(x8)
    40000e44:	7a7316e3          	bne	x6,x7,40001df0 <fail>
    40000e48:	05a00193          	li	x3,90
    40000e4c:	fff0f337          	lui	x6,0xfff0f
    40000e50:	0d13031b          	addiw	x6,x6,209 # fffffffffff0f0d1 <__STACK_START_+0xffffffffbff0ccb1>
    40000e54:	00c31313          	slli	x6,x6,0xc
    40000e58:	b0930313          	addi	x6,x6,-1271
    40000e5c:	01031313          	slli	x6,x6,0x10
    40000e60:	70530313          	addi	x6,x6,1797
    40000e64:	00f31313          	slli	x6,x6,0xf
    40000e68:	18030313          	addi	x6,x6,384
    40000e6c:	02643fa3          	sd	x6,63(x8)
    40000e70:	03f43383          	ld	x7,63(x8)
    40000e74:	76731ee3          	bne	x6,x7,40001df0 <fail>
    40000e78:	05b00193          	li	x3,91
    40000e7c:	0000a337          	lui	x6,0xa
    40000e80:	9983031b          	addiw	x6,x6,-1640 # 9998 <_start-0x3fff6668>
    40000e84:	f9800393          	li	x7,-104
    40000e88:	006410a3          	sh	x6,1(x8)
    40000e8c:	00140e03          	lb	x28,1(x8)
    40000e90:	77c390e3          	bne	x7,x28,40001df0 <fail>
    40000e94:	05c00193          	li	x3,92
    40000e98:	0000a337          	lui	x6,0xa
    40000e9c:	b9a3031b          	addiw	x6,x6,-1126 # 9b9a <_start-0x3fff6466>
    40000ea0:	f9b00393          	li	x7,-101
    40000ea4:	006410a3          	sh	x6,1(x8)
    40000ea8:	00240e03          	lb	x28,2(x8)
    40000eac:	75c392e3          	bne	x7,x28,40001df0 <fail>
    40000eb0:	05d00193          	li	x3,93
    40000eb4:	0000a337          	lui	x6,0xa
    40000eb8:	d9c3031b          	addiw	x6,x6,-612 # 9d9c <_start-0x3fff6264>
    40000ebc:	09c00393          	li	x7,156
    40000ec0:	006410a3          	sh	x6,1(x8)
    40000ec4:	00144e03          	lbu	x28,1(x8)
    40000ec8:	73c394e3          	bne	x7,x28,40001df0 <fail>
    40000ecc:	05e00193          	li	x3,94
    40000ed0:	0000a337          	lui	x6,0xa
    40000ed4:	f9e3031b          	addiw	x6,x6,-98 # 9f9e <_start-0x3fff6062>
    40000ed8:	09f00393          	li	x7,159
    40000edc:	006410a3          	sh	x6,1(x8)
    40000ee0:	00244e03          	lbu	x28,2(x8)
    40000ee4:	71c396e3          	bne	x7,x28,40001df0 <fail>
    40000ee8:	05f00193          	li	x3,95
    40000eec:	00052337          	lui	x6,0x52
    40000ef0:	d153031b          	addiw	x6,x6,-747 # 51d15 <_start-0x3ffae2eb>
    40000ef4:	00d31313          	slli	x6,x6,0xd
    40000ef8:	1a030313          	addi	x6,x6,416
    40000efc:	fa000393          	li	x7,-96
    40000f00:	006420a3          	sw	x6,1(x8)
    40000f04:	00140e03          	lb	x28,1(x8)
    40000f08:	6fc394e3          	bne	x7,x28,40001df0 <fail>
    40000f0c:	06000193          	li	x3,96
    40000f10:	00054337          	lui	x6,0x54
    40000f14:	d353031b          	addiw	x6,x6,-715 # 53d35 <_start-0x3ffac2cb>
    40000f18:	00d31313          	slli	x6,x6,0xd
    40000f1c:	5a430313          	addi	x6,x6,1444
    40000f20:	0a500393          	li	x7,165
    40000f24:	00642123          	sw	x6,2(x8)
    40000f28:	00344e03          	lbu	x28,3(x8)
    40000f2c:	6dc392e3          	bne	x7,x28,40001df0 <fail>
    40000f30:	06100193          	li	x3,97
    40000f34:	000ac337          	lui	x6,0xac
    40000f38:	aab3031b          	addiw	x6,x6,-1365 # abaab <_start-0x3ff54555>
    40000f3c:	00c31313          	slli	x6,x6,0xc
    40000f40:	9a830313          	addi	x6,x6,-1624
    40000f44:	ffffb3b7          	lui	x7,0xffffb
    40000f48:	aa93839b          	addiw	x7,x7,-1367 # ffffffffffffaaa9 <__STACK_START_+0xffffffffbfff8689>
    40000f4c:	006421a3          	sw	x6,3(x8)
    40000f50:	00441e03          	lh	x28,4(x8)
    40000f54:	69c39ee3          	bne	x7,x28,40001df0 <fail>
    40000f58:	06200193          	li	x3,98
    40000f5c:	000b0337          	lui	x6,0xb0
    40000f60:	aeb3031b          	addiw	x6,x6,-1301 # afaeb <_start-0x3ff50515>
    40000f64:	00c31313          	slli	x6,x6,0xc
    40000f68:	dac30313          	addi	x6,x6,-596
    40000f6c:	0000b3b7          	lui	x7,0xb
    40000f70:	fae3839b          	addiw	x7,x7,-82 # afae <_start-0x3fff5052>
    40000f74:	006421a3          	sw	x6,3(x8)
    40000f78:	00545e03          	lhu	x28,5(x8)
    40000f7c:	67c39ae3          	bne	x7,x28,40001df0 <fail>
    40000f80:	06300193          	li	x3,99
    40000f84:	fedee337          	lui	x6,0xfedee
    40000f88:	ad73031b          	addiw	x6,x6,-1321 # fffffffffededad7 <__STACK_START_+0xffffffffbedeb6b7>
    40000f8c:	00c31313          	slli	x6,x6,0xc
    40000f90:	d2d30313          	addi	x6,x6,-723
    40000f94:	00e31313          	slli	x6,x6,0xe
    40000f98:	b2b30313          	addi	x6,x6,-1237
    40000f9c:	00c31313          	slli	x6,x6,0xc
    40000fa0:	1b030313          	addi	x6,x6,432
    40000fa4:	fb600393          	li	x7,-74
    40000fa8:	006430a3          	sd	x6,1(x8)
    40000fac:	00740e03          	lb	x28,7(x8)
    40000fb0:	65c390e3          	bne	x7,x28,40001df0 <fail>
    40000fb4:	06400193          	li	x3,100
    40000fb8:	feff0337          	lui	x6,0xfeff0
    40000fbc:	af73031b          	addiw	x6,x6,-1289 # fffffffffefefaf7 <__STACK_START_+0xffffffffbefed6d7>
    40000fc0:	00c31313          	slli	x6,x6,0xc
    40000fc4:	f2f30313          	addi	x6,x6,-209
    40000fc8:	00c31313          	slli	x6,x6,0xc
    40000fcc:	eeb30313          	addi	x6,x6,-277
    40000fd0:	00e31313          	slli	x6,x6,0xe
    40000fd4:	9b830313          	addi	x6,x6,-1608
    40000fd8:	0b900393          	li	x7,185
    40000fdc:	00643123          	sd	x6,2(x8)
    40000fe0:	00344e03          	lbu	x28,3(x8)
    40000fe4:	61c396e3          	bne	x7,x28,40001df0 <fail>
    40000fe8:	06500193          	li	x3,101
    40000fec:	ff1f2337          	lui	x6,0xff1f2
    40000ff0:	b173031b          	addiw	x6,x6,-1257 # ffffffffff1f1b17 <__STACK_START_+0xffffffffbf1ef6f7>
    40000ff4:	00c31313          	slli	x6,x6,0xc
    40000ff8:	13130313          	addi	x6,x6,305
    40000ffc:	00c31313          	slli	x6,x6,0xc
    40001000:	f0b30313          	addi	x6,x6,-245
    40001004:	00e31313          	slli	x6,x6,0xe
    40001008:	1c030313          	addi	x6,x6,448
    4000100c:	ffffc3b7          	lui	x7,0xffffc
    40001010:	7c63839b          	addiw	x7,x7,1990 # ffffffffffffc7c6 <__STACK_START_+0xffffffffbfffa3a6>
    40001014:	006431a3          	sd	x6,3(x8)
    40001018:	00941e03          	lh	x28,9(x8)
    4000101c:	5dc39ae3          	bne	x7,x28,40001df0 <fail>
    40001020:	06600193          	li	x3,102
    40001024:	ff3f4337          	lui	x6,0xff3f4
    40001028:	b373031b          	addiw	x6,x6,-1225 # ffffffffff3f3b37 <__STACK_START_+0xffffffffbf3f1717>
    4000102c:	00c31313          	slli	x6,x6,0xc
    40001030:	33330313          	addi	x6,x6,819
    40001034:	00e31313          	slli	x6,x6,0xe
    40001038:	cad30313          	addi	x6,x6,-851
    4000103c:	00c31313          	slli	x6,x6,0xc
    40001040:	9c830313          	addi	x6,x6,-1592
    40001044:	0000d3b7          	lui	x7,0xd
    40001048:	ac93839b          	addiw	x7,x7,-1335 # cac9 <_start-0x3fff3537>
    4000104c:	00643223          	sd	x6,4(x8)
    40001050:	00545e03          	lhu	x28,5(x8)
    40001054:	59c39ee3          	bne	x7,x28,40001df0 <fail>
    40001058:	06700193          	li	x3,103
    4000105c:	ff5f6337          	lui	x6,0xff5f6
    40001060:	b573031b          	addiw	x6,x6,-1193 # ffffffffff5f5b57 <__STACK_START_+0xffffffffbf5f3737>
    40001064:	00c31313          	slli	x6,x6,0xc
    40001068:	53530313          	addi	x6,x6,1333
    4000106c:	00e31313          	slli	x6,x6,0xe
    40001070:	d2d30313          	addi	x6,x6,-723
    40001074:	00c31313          	slli	x6,x6,0xc
    40001078:	1d030313          	addi	x6,x6,464
    4000107c:	d7d6d3b7          	lui	x7,0xd7d6d
    40001080:	5d43839b          	addiw	x7,x7,1492 # ffffffffd7d6d5d4 <__STACK_START_+0xffffffff97d6b1b4>
    40001084:	006432a3          	sd	x6,5(x8)
    40001088:	00942e03          	lw	x28,9(x8)
    4000108c:	57c392e3          	bne	x7,x28,40001df0 <fail>
    40001090:	06800193          	li	x3,104
    40001094:	ff7f8337          	lui	x6,0xff7f8
    40001098:	b773031b          	addiw	x6,x6,-1161 # ffffffffff7f7b77 <__STACK_START_+0xffffffffbf7f5757>
    4000109c:	00c31313          	slli	x6,x6,0xc
    400010a0:	73730313          	addi	x6,x6,1847
    400010a4:	00d31313          	slli	x6,x6,0xd
    400010a8:	ed730313          	addi	x6,x6,-297
    400010ac:	00d31313          	slli	x6,x6,0xd
    400010b0:	9d830313          	addi	x6,x6,-1576
    400010b4:	dddce3b7          	lui	x7,0xdddce
    400010b8:	bda3839b          	addiw	x7,x7,-1062 # ffffffffdddcdbda <__STACK_START_+0xffffffff9ddcb7ba>
    400010bc:	00643323          	sd	x6,6(x8)
    400010c0:	00842e03          	lw	x28,8(x8)
    400010c4:	53c396e3          	bne	x7,x28,40001df0 <fail>
    400010c8:	06900193          	li	x3,105
    400010cc:	fff3f337          	lui	x6,0xfff3f
    400010d0:	3733031b          	addiw	x6,x6,883 # fffffffffff3f373 <__STACK_START_+0xffffffffbff3cf53>
    400010d4:	00f31313          	slli	x6,x6,0xf
    400010d8:	93930313          	addi	x6,x6,-1735
    400010dc:	00d31313          	slli	x6,x6,0xd
    400010e0:	f1730313          	addi	x6,x6,-233
    400010e4:	00d31313          	slli	x6,x6,0xd
    400010e8:	1e030313          	addi	x6,x6,480
    400010ec:	000723b7          	lui	x7,0x72
    400010f0:	71f3839b          	addiw	x7,x7,1823 # 7271f <_start-0x3ff8d8e1>
    400010f4:	00d39393          	slli	x7,x7,0xd
    400010f8:	2e138393          	addi	x7,x7,737
    400010fc:	006433a3          	sd	x6,7(x8)
    40001100:	00846e03          	lwu	x28,8(x8)
    40001104:	4fc396e3          	bne	x7,x28,40001df0 <fail>
    40001108:	06a00193          	li	x3,106
    4000110c:	0000f337          	lui	x6,0xf
    40001110:	9e83031b          	addiw	x6,x6,-1560 # e9e8 <_start-0x3fff1618>
    40001114:	fe800393          	li	x7,-24
    40001118:	00641fa3          	sh	x6,31(x8)
    4000111c:	01f40e03          	lb	x28,31(x8)
    40001120:	4dc398e3          	bne	x7,x28,40001df0 <fail>
    40001124:	06b00193          	li	x3,107
    40001128:	0000f337          	lui	x6,0xf
    4000112c:	bea3031b          	addiw	x6,x6,-1046 # ebea <_start-0x3fff1416>
    40001130:	feb00393          	li	x7,-21
    40001134:	00641fa3          	sh	x6,31(x8)
    40001138:	02040e03          	lb	x28,32(x8)
    4000113c:	4bc39ae3          	bne	x7,x28,40001df0 <fail>
    40001140:	06c00193          	li	x3,108
    40001144:	0000f337          	lui	x6,0xf
    40001148:	dec3031b          	addiw	x6,x6,-532 # edec <_start-0x3fff1214>
    4000114c:	0ec00393          	li	x7,236
    40001150:	00641fa3          	sh	x6,31(x8)
    40001154:	01f44e03          	lbu	x28,31(x8)
    40001158:	49c39ce3          	bne	x7,x28,40001df0 <fail>
    4000115c:	06d00193          	li	x3,109
    40001160:	0000f337          	lui	x6,0xf
    40001164:	fee3031b          	addiw	x6,x6,-18 # efee <_start-0x3fff1012>
    40001168:	0ef00393          	li	x7,239
    4000116c:	00641fa3          	sh	x6,31(x8)
    40001170:	02044e03          	lbu	x28,32(x8)
    40001174:	47c39ee3          	bne	x7,x28,40001df0 <fail>
    40001178:	06e00193          	li	x3,110
    4000117c:	000f4337          	lui	x6,0xf4
    40001180:	f2f3031b          	addiw	x6,x6,-209 # f3f2f <_start-0x3ff0c0d1>
    40001184:	00c31313          	slli	x6,x6,0xc
    40001188:	1f030313          	addi	x6,x6,496
    4000118c:	ff000393          	li	x7,-16
    40001190:	00642ea3          	sw	x6,29(x8)
    40001194:	01d40e03          	lb	x28,29(x8)
    40001198:	45c39ce3          	bne	x7,x28,40001df0 <fail>
    4000119c:	06f00193          	li	x3,111
    400011a0:	000f8337          	lui	x6,0xf8
    400011a4:	f6f3031b          	addiw	x6,x6,-145 # f7f6f <_start-0x3ff08091>
    400011a8:	00c31313          	slli	x6,x6,0xc
    400011ac:	5f430313          	addi	x6,x6,1524
    400011b0:	0f600393          	li	x7,246
    400011b4:	00642f23          	sw	x6,30(x8)
    400011b8:	02044e03          	lbu	x28,32(x8)
    400011bc:	43c39ae3          	bne	x7,x28,40001df0 <fail>
    400011c0:	07000193          	li	x3,112
    400011c4:	00010337          	lui	x6,0x10
    400011c8:	bfb3031b          	addiw	x6,x6,-1029 # fbfb <_start-0x3fff0405>
    400011cc:	01031313          	slli	x6,x6,0x10
    400011d0:	9f830313          	addi	x6,x6,-1544
    400011d4:	bfa00393          	li	x7,-1030
    400011d8:	00642ea3          	sw	x6,29(x8)
    400011dc:	01f41e03          	lh	x28,31(x8)
    400011e0:	41c398e3          	bne	x7,x28,40001df0 <fail>
    400011e4:	07100193          	li	x3,113
    400011e8:	00010337          	lui	x6,0x10
    400011ec:	fff3031b          	addiw	x6,x6,-1 # ffff <_start-0x3fff0001>
    400011f0:	01031313          	slli	x6,x6,0x10
    400011f4:	dfc30313          	addi	x6,x6,-516
    400011f8:	000103b7          	lui	x7,0x10
    400011fc:	dfc3839b          	addiw	x7,x7,-516 # fdfc <_start-0x3fff0204>
    40001200:	00642fa3          	sw	x6,31(x8)
    40001204:	01f45e03          	lhu	x28,31(x8)
    40001208:	3fc394e3          	bne	x7,x28,40001df0 <fail>
    4000120c:	07200193          	li	x3,114
    40001210:	01c18337          	lui	x6,0x1c18
    40001214:	1413031b          	addiw	x6,x6,321 # 1c18141 <_start-0x3e3e7ebf>
    40001218:	01131313          	slli	x6,x6,0x11
    4000121c:	18130313          	addi	x6,x6,385
    40001220:	01131313          	slli	x6,x6,0x11
    40001224:	10030313          	addi	x6,x6,256
    40001228:	00700393          	li	x7,7
    4000122c:	00643ca3          	sd	x6,25(x8)
    40001230:	02040e03          	lb	x28,32(x8)
    40001234:	3bc39ee3          	bne	x7,x28,40001df0 <fail>
    40001238:	07300193          	li	x3,115
    4000123c:	00f0e337          	lui	x6,0xf0e
    40001240:	0d13031b          	addiw	x6,x6,209 # f0e0d1 <_start-0x3f0f1f2f>
    40001244:	00c31313          	slli	x6,x6,0xc
    40001248:	c0b30313          	addi	x6,x6,-1013
    4000124c:	00c31313          	slli	x6,x6,0xc
    40001250:	0a130313          	addi	x6,x6,161
    40001254:	00c31313          	slli	x6,x6,0xc
    40001258:	90830313          	addi	x6,x6,-1784
    4000125c:	00f00393          	li	x7,15
    40001260:	00643d23          	sd	x6,26(x8)
    40001264:	02144e03          	lbu	x28,33(x8)
    40001268:	39c394e3          	bne	x7,x28,40001df0 <fail>
    4000126c:	07400193          	li	x3,116
    40001270:	01716337          	lui	x6,0x1716
    40001274:	1513031b          	addiw	x6,x6,337 # 1716151 <_start-0x3e8e9eaf>
    40001278:	00c31313          	slli	x6,x6,0xc
    4000127c:	41330313          	addi	x6,x6,1043
    40001280:	00c31313          	slli	x6,x6,0xc
    40001284:	12130313          	addi	x6,x6,289
    40001288:	00c31313          	slli	x6,x6,0xc
    4000128c:	11030313          	addi	x6,x6,272
    40001290:	000013b7          	lui	x7,0x1
    40001294:	5143839b          	addiw	x7,x7,1300 # 1514 <_start-0x3fffeaec>
    40001298:	00643da3          	sd	x6,27(x8)
    4000129c:	01f41e03          	lh	x28,31(x8)
    400012a0:	35c398e3          	bne	x7,x28,40001df0 <fail>
    400012a4:	07500193          	li	x3,117
    400012a8:	001f2337          	lui	x6,0x1f2
    400012ac:	e1d3031b          	addiw	x6,x6,-483 # 1f1e1d <_start-0x3fe0e1e3>
    400012b0:	00e31313          	slli	x6,x6,0xe
    400012b4:	70730313          	addi	x6,x6,1799
    400012b8:	00d31313          	slli	x6,x6,0xd
    400012bc:	8d130313          	addi	x6,x6,-1839
    400012c0:	00d31313          	slli	x6,x6,0xd
    400012c4:	91830313          	addi	x6,x6,-1768
    400012c8:	000023b7          	lui	x7,0x2
    400012cc:	c1b3839b          	addiw	x7,x7,-997 # 1c1b <_start-0x3fffe3e5>
    400012d0:	00643e23          	sd	x6,28(x8)
    400012d4:	01f45e03          	lhu	x28,31(x8)
    400012d8:	31c39ce3          	bne	x7,x28,40001df0 <fail>
    400012dc:	07600193          	li	x3,118
    400012e0:	009ca337          	lui	x6,0x9ca
    400012e4:	8953031b          	addiw	x6,x6,-1899 # 9c9895 <_start-0x3f63676b>
    400012e8:	00c31313          	slli	x6,x6,0xc
    400012ec:	90930313          	addi	x6,x6,-1783
    400012f0:	00d31313          	slli	x6,x6,0xd
    400012f4:	91130313          	addi	x6,x6,-1775
    400012f8:	00d31313          	slli	x6,x6,0xd
    400012fc:	12030313          	addi	x6,x6,288
    40001300:	232223b7          	lui	x7,0x23222
    40001304:	1203839b          	addiw	x7,x7,288 # 23222120 <_start-0x1cdddee0>
    40001308:	00643ea3          	sd	x6,29(x8)
    4000130c:	01d42e03          	lw	x28,29(x8)
    40001310:	2fc390e3          	bne	x7,x28,40001df0 <fail>
    40001314:	07700193          	li	x3,119
    40001318:	02f2e337          	lui	x6,0x2f2e
    4000131c:	2d33031b          	addiw	x6,x6,723 # 2f2e2d3 <_start-0x3d0d1d2d>
    40001320:	00c31313          	slli	x6,x6,0xc
    40001324:	c2b30313          	addi	x6,x6,-981
    40001328:	00c31313          	slli	x6,x6,0xc
    4000132c:	2a330313          	addi	x6,x6,675
    40001330:	00c31313          	slli	x6,x6,0xc
    40001334:	92830313          	addi	x6,x6,-1752
    40001338:	2b2a33b7          	lui	x7,0x2b2a3
    4000133c:	9283839b          	addiw	x7,x7,-1752 # 2b2a2928 <_start-0x14d5d6d8>
    40001340:	00643f23          	sd	x6,30(x8)
    40001344:	01e42e03          	lw	x28,30(x8)
    40001348:	2bc394e3          	bne	x7,x28,40001df0 <fail>
    4000134c:	07800193          	li	x3,120
    40001350:	03736337          	lui	x6,0x3736
    40001354:	3533031b          	addiw	x6,x6,851 # 3736353 <_start-0x3c8c9cad>
    40001358:	00c31313          	slli	x6,x6,0xc
    4000135c:	43330313          	addi	x6,x6,1075
    40001360:	00c31313          	slli	x6,x6,0xc
    40001364:	32330313          	addi	x6,x6,803
    40001368:	00c31313          	slli	x6,x6,0xc
    4000136c:	13030313          	addi	x6,x6,304
    40001370:	333233b7          	lui	x7,0x33323
    40001374:	1303839b          	addiw	x7,x7,304 # 33323130 <_start-0xccdced0>
    40001378:	00643fa3          	sd	x6,31(x8)
    4000137c:	01f46e03          	lwu	x28,31(x8)
    40001380:	27c398e3          	bne	x7,x28,40001df0 <fail>
    40001384:	07900193          	li	x3,121
    40001388:	00005337          	lui	x6,0x5
    4000138c:	9483031b          	addiw	x6,x6,-1720 # 4948 <_start-0x3fffb6b8>
    40001390:	04800393          	li	x7,72
    40001394:	02641fa3          	sh	x6,63(x8)
    40001398:	03f40e03          	lb	x28,63(x8)
    4000139c:	25c39ae3          	bne	x7,x28,40001df0 <fail>
    400013a0:	07a00193          	li	x3,122
    400013a4:	00005337          	lui	x6,0x5
    400013a8:	b4a3031b          	addiw	x6,x6,-1206 # 4b4a <_start-0x3fffb4b6>
    400013ac:	04b00393          	li	x7,75
    400013b0:	02641fa3          	sh	x6,63(x8)
    400013b4:	04040e03          	lb	x28,64(x8)
    400013b8:	23c39ce3          	bne	x7,x28,40001df0 <fail>
    400013bc:	07b00193          	li	x3,123
    400013c0:	00005337          	lui	x6,0x5
    400013c4:	d4c3031b          	addiw	x6,x6,-692 # 4d4c <_start-0x3fffb2b4>
    400013c8:	04c00393          	li	x7,76
    400013cc:	02641fa3          	sh	x6,63(x8)
    400013d0:	03f44e03          	lbu	x28,63(x8)
    400013d4:	21c39ee3          	bne	x7,x28,40001df0 <fail>
    400013d8:	07c00193          	li	x3,124
    400013dc:	00005337          	lui	x6,0x5
    400013e0:	f4e3031b          	addiw	x6,x6,-178 # 4f4e <_start-0x3fffb0b2>
    400013e4:	04f00393          	li	x7,79
    400013e8:	02641fa3          	sh	x6,63(x8)
    400013ec:	04044e03          	lbu	x28,64(x8)
    400013f0:	21c390e3          	bne	x7,x28,40001df0 <fail>
    400013f4:	07d00193          	li	x3,125
    400013f8:	53525337          	lui	x6,0x53525
    400013fc:	1503031b          	addiw	x6,x6,336 # 53525150 <__STACK_START_+0x13522d30>
    40001400:	05000393          	li	x7,80
    40001404:	02642ea3          	sw	x6,61(x8)
    40001408:	03d40e03          	lb	x28,61(x8)
    4000140c:	1fc392e3          	bne	x7,x28,40001df0 <fail>
    40001410:	07e00193          	li	x3,126
    40001414:	57565337          	lui	x6,0x57565
    40001418:	5543031b          	addiw	x6,x6,1364 # 57565554 <__STACK_START_+0x17563134>
    4000141c:	05600393          	li	x7,86
    40001420:	02642f23          	sw	x6,62(x8)
    40001424:	04044e03          	lbu	x28,64(x8)
    40001428:	1dc394e3          	bne	x7,x28,40001df0 <fail>
    4000142c:	07f00193          	li	x3,127
    40001430:	5b5a6337          	lui	x6,0x5b5a6
    40001434:	9583031b          	addiw	x6,x6,-1704 # 5b5a5958 <__STACK_START_+0x1b5a3538>
    40001438:	000063b7          	lui	x7,0x6
    4000143c:	b5a3839b          	addiw	x7,x7,-1190 # 5b5a <_start-0x3fffa4a6>
    40001440:	02642ea3          	sw	x6,61(x8)
    40001444:	03f41e03          	lh	x28,63(x8)
    40001448:	1bc394e3          	bne	x7,x28,40001df0 <fail>
    4000144c:	08000193          	li	x3,128
    40001450:	5f5e6337          	lui	x6,0x5f5e6
    40001454:	d5c3031b          	addiw	x6,x6,-676 # 5f5e5d5c <__STACK_START_+0x1f5e393c>
    40001458:	000063b7          	lui	x7,0x6
    4000145c:	d5c3839b          	addiw	x7,x7,-676 # 5d5c <_start-0x3fffa2a4>
    40001460:	02642fa3          	sw	x6,63(x8)
    40001464:	03f45e03          	lhu	x28,63(x8)
    40001468:	19c394e3          	bne	x7,x28,40001df0 <fail>
    4000146c:	08100193          	li	x3,129
    40001470:	00ced337          	lui	x6,0xced
    40001474:	ccb3031b          	addiw	x6,x6,-821 # cecccb <_start-0x3f313335>
    40001478:	00d31313          	slli	x6,x6,0xd
    4000147c:	91930313          	addi	x6,x6,-1767
    40001480:	00d31313          	slli	x6,x6,0xd
    40001484:	b1330313          	addi	x6,x6,-1261
    40001488:	00d31313          	slli	x6,x6,0xd
    4000148c:	16030313          	addi	x6,x6,352
    40001490:	06700393          	li	x7,103
    40001494:	02643ca3          	sd	x6,57(x8)
    40001498:	04040e03          	lb	x28,64(x8)
    4000149c:	15c39ae3          	bne	x7,x28,40001df0 <fail>
    400014a0:	08200193          	li	x3,130
    400014a4:	06f6e337          	lui	x6,0x6f6e
    400014a8:	6d73031b          	addiw	x6,x6,1751 # 6f6e6d7 <_start-0x39091929>
    400014ac:	00c31313          	slli	x6,x6,0xc
    400014b0:	c6b30313          	addi	x6,x6,-917
    400014b4:	00c31313          	slli	x6,x6,0xc
    400014b8:	6a730313          	addi	x6,x6,1703
    400014bc:	00c31313          	slli	x6,x6,0xc
    400014c0:	96830313          	addi	x6,x6,-1688
    400014c4:	06f00393          	li	x7,111
    400014c8:	02643d23          	sd	x6,58(x8)
    400014cc:	04144e03          	lbu	x28,65(x8)
    400014d0:	13c390e3          	bne	x7,x28,40001df0 <fail>
    400014d4:	08300193          	li	x3,131
    400014d8:	07776337          	lui	x6,0x7776
    400014dc:	7573031b          	addiw	x6,x6,1879 # 7776757 <_start-0x388898a9>
    400014e0:	00c31313          	slli	x6,x6,0xc
    400014e4:	47330313          	addi	x6,x6,1139
    400014e8:	00c31313          	slli	x6,x6,0xc
    400014ec:	72730313          	addi	x6,x6,1831
    400014f0:	00c31313          	slli	x6,x6,0xc
    400014f4:	17030313          	addi	x6,x6,368
    400014f8:	000073b7          	lui	x7,0x7
    400014fc:	5743839b          	addiw	x7,x7,1396 # 7574 <_start-0x3fff8a8c>
    40001500:	02643da3          	sd	x6,59(x8)
    40001504:	03f41e03          	lh	x28,63(x8)
    40001508:	0fc394e3          	bne	x7,x28,40001df0 <fail>
    4000150c:	08400193          	li	x3,132
    40001510:	00ff0337          	lui	x6,0xff0
    40001514:	cfb3031b          	addiw	x6,x6,-773 # fefcfb <_start-0x3f010305>
    40001518:	00c31313          	slli	x6,x6,0xc
    4000151c:	f8f30313          	addi	x6,x6,-113
    40001520:	00c31313          	slli	x6,x6,0xc
    40001524:	6f530313          	addi	x6,x6,1781
    40001528:	00f31313          	slli	x6,x6,0xf
    4000152c:	97830313          	addi	x6,x6,-1672
    40001530:	000083b7          	lui	x7,0x8
    40001534:	c7b3839b          	addiw	x7,x7,-901 # 7c7b <_start-0x3fff8385>
    40001538:	02643e23          	sd	x6,60(x8)
    4000153c:	03f45e03          	lhu	x28,63(x8)
    40001540:	0bc398e3          	bne	x7,x28,40001df0 <fail>
    40001544:	08500193          	li	x3,133
    40001548:	fff0f337          	lui	x6,0xfff0f
    4000154c:	0d13031b          	addiw	x6,x6,209 # fffffffffff0f0d1 <__STACK_START_+0xffffffffbff0ccb1>
    40001550:	00c31313          	slli	x6,x6,0xc
    40001554:	b0930313          	addi	x6,x6,-1271
    40001558:	01031313          	slli	x6,x6,0x10
    4000155c:	70530313          	addi	x6,x6,1797
    40001560:	00f31313          	slli	x6,x6,0xf
    40001564:	18030313          	addi	x6,x6,384
    40001568:	838283b7          	lui	x7,0x83828
    4000156c:	1803839b          	addiw	x7,x7,384 # ffffffff83828180 <__STACK_START_+0xffffffff43825d60>
    40001570:	02643ea3          	sd	x6,61(x8)
    40001574:	03d42e03          	lw	x28,61(x8)
    40001578:	07c39ce3          	bne	x7,x28,40001df0 <fail>
    4000157c:	08600193          	li	x3,134
    40001580:	ff1f2337          	lui	x6,0xff1f2
    40001584:	d1b3031b          	addiw	x6,x6,-741 # ffffffffff1f1d1b <__STACK_START_+0xffffffffbf1ef8fb>
    40001588:	00d31313          	slli	x6,x6,0xd
    4000158c:	32330313          	addi	x6,x6,803
    40001590:	00e31313          	slli	x6,x6,0xe
    40001594:	8a930313          	addi	x6,x6,-1879
    40001598:	00c31313          	slli	x6,x6,0xc
    4000159c:	98830313          	addi	x6,x6,-1656
    400015a0:	8b8a93b7          	lui	x7,0x8b8a9
    400015a4:	9883839b          	addiw	x7,x7,-1656 # ffffffff8b8a8988 <__STACK_START_+0xffffffff4b8a6568>
    400015a8:	02643f23          	sd	x6,62(x8)
    400015ac:	03e42e03          	lw	x28,62(x8)
    400015b0:	05c390e3          	bne	x7,x28,40001df0 <fail>
    400015b4:	08700193          	li	x3,135
    400015b8:	ff2f3337          	lui	x6,0xff2f3
    400015bc:	d2b3031b          	addiw	x6,x6,-725 # ffffffffff2f2d2b <__STACK_START_+0xffffffffbf2f090b>
    400015c0:	00d31313          	slli	x6,x6,0xd
    400015c4:	52530313          	addi	x6,x6,1317
    400015c8:	00e31313          	slli	x6,x6,0xe
    400015cc:	92930313          	addi	x6,x6,-1751
    400015d0:	00c31313          	slli	x6,x6,0xc
    400015d4:	19030313          	addi	x6,x6,400
    400015d8:	000943b7          	lui	x7,0x94
    400015dc:	9293839b          	addiw	x7,x7,-1751 # 93929 <_start-0x3ff6c6d7>
    400015e0:	00c39393          	slli	x7,x7,0xc
    400015e4:	19038393          	addi	x7,x7,400
    400015e8:	02643fa3          	sd	x6,63(x8)
    400015ec:	03f46e03          	lwu	x28,63(x8)
    400015f0:	01c390e3          	bne	x7,x28,40001df0 <fail>
    400015f4:	08800193          	li	x3,136
    400015f8:	09800313          	li	x6,152
    400015fc:	ffffc3b7          	lui	x7,0xffffc
    40001600:	8983839b          	addiw	x7,x7,-1896 # ffffffffffffb898 <__STACK_START_+0xffffffffbfff9478>
    40001604:	006400a3          	sb	x6,1(x8)
    40001608:	00141e03          	lh	x28,1(x8)
    4000160c:	7fc39263          	bne	x7,x28,40001df0 <fail>
    40001610:	08900193          	li	x3,137
    40001614:	09900313          	li	x6,153
    40001618:	0000a3b7          	lui	x7,0xa
    4000161c:	9983839b          	addiw	x7,x7,-1640 # 9998 <_start-0x3fff6668>
    40001620:	00640123          	sb	x6,2(x8)
    40001624:	00145e03          	lhu	x28,1(x8)
    40001628:	7dc39463          	bne	x7,x28,40001df0 <fail>
    4000162c:	08a00193          	li	x3,138
    40001630:	0000a337          	lui	x6,0xa
    40001634:	b9a3031b          	addiw	x6,x6,-1126 # 9b9a <_start-0x3fff6466>
    40001638:	c8c0a3b7          	lui	x7,0xc8c0a
    4000163c:	b9a3839b          	addiw	x7,x7,-1126 # ffffffffc8c09b9a <__STACK_START_+0xffffffff88c0777a>
    40001640:	006410a3          	sh	x6,1(x8)
    40001644:	00142e03          	lw	x28,1(x8)
    40001648:	7bc39463          	bne	x7,x28,40001df0 <fail>
    4000164c:	08b00193          	li	x3,139
    40001650:	0000a337          	lui	x6,0xa
    40001654:	d9c3031b          	addiw	x6,x6,-612 # 9d9c <_start-0x3fff6264>
    40001658:	d09da3b7          	lui	x7,0xd09da
    4000165c:	c9b3839b          	addiw	x7,x7,-869 # ffffffffd09d9c9b <__STACK_START_+0xffffffff909d787b>
    40001660:	006411a3          	sh	x6,3(x8)
    40001664:	00242e03          	lw	x28,2(x8)
    40001668:	79c39463          	bne	x7,x28,40001df0 <fail>
    4000166c:	08c00193          	li	x3,140
    40001670:	0000a337          	lui	x6,0xa
    40001674:	f9e3031b          	addiw	x6,x6,-98 # 9f9e <_start-0x3fff6062>
    40001678:	9f9ea3b7          	lui	x7,0x9f9ea
    4000167c:	d9c3839b          	addiw	x7,x7,-612 # ffffffff9f9e9d9c <__STACK_START_+0xffffffff5f9e797c>
    40001680:	006412a3          	sh	x6,5(x8)
    40001684:	00342e03          	lw	x28,3(x8)
    40001688:	77c39463          	bne	x7,x28,40001df0 <fail>
    4000168c:	08d00193          	li	x3,141
    40001690:	0a000313          	li	x6,160
    40001694:	0004f3b7          	lui	x7,0x4f
    40001698:	ce53839b          	addiw	x7,x7,-795 # 4ece5 <_start-0x3ffb131b>
    4000169c:	00d39393          	slli	x7,x7,0xd
    400016a0:	09a38393          	addi	x7,x7,154
    400016a4:	00640123          	sb	x6,2(x8)
    400016a8:	00146e03          	lwu	x28,1(x8)
    400016ac:	75c39263          	bne	x7,x28,40001df0 <fail>
    400016b0:	08e00193          	li	x3,142
    400016b4:	0000a337          	lui	x6,0xa
    400016b8:	2a13031b          	addiw	x6,x6,673 # a2a1 <_start-0x3fff5d5f>
    400016bc:	0004f3b7          	lui	x7,0x4f
    400016c0:	5153839b          	addiw	x7,x7,1301 # 4f515 <_start-0x3ffb0aeb>
    400016c4:	00d39393          	slli	x7,x7,0xd
    400016c8:	1a038393          	addi	x7,x7,416
    400016cc:	006411a3          	sh	x6,3(x8)
    400016d0:	00246e03          	lwu	x28,2(x8)
    400016d4:	71c39e63          	bne	x7,x28,40001df0 <fail>
    400016d8:	08f00193          	li	x3,143
    400016dc:	0000a337          	lui	x6,0xa
    400016e0:	4a33031b          	addiw	x6,x6,1187 # a4a3 <_start-0x3fff5b5d>
    400016e4:	000523b7          	lui	x7,0x52
    400016e8:	51d3839b          	addiw	x7,x7,1309 # 5251d <_start-0x3ffadae3>
    400016ec:	00d39393          	slli	x7,x7,0xd
    400016f0:	2a138393          	addi	x7,x7,673
    400016f4:	006412a3          	sh	x6,5(x8)
    400016f8:	00346e03          	lwu	x28,3(x8)
    400016fc:	6fc39a63          	bne	x7,x28,40001df0 <fail>
    40001700:	09000193          	li	x3,144
    40001704:	0a500313          	li	x6,165
    40001708:	ff0f03b7          	lui	x7,0xff0f0
    4000170c:	5253839b          	addiw	x7,x7,1317 # ffffffffff0f0525 <__STACK_START_+0xffffffffbf0ee105>
    40001710:	00c39393          	slli	x7,x7,0xc
    40001714:	1d138393          	addi	x7,x7,465
    40001718:	00c39393          	slli	x7,x7,0xc
    4000171c:	50d38393          	addi	x7,x7,1293
    40001720:	00d39393          	slli	x7,x7,0xd
    40001724:	59a38393          	addi	x7,x7,1434
    40001728:	00640123          	sb	x6,2(x8)
    4000172c:	00143e03          	ld	x28,1(x8)
    40001730:	6dc39063          	bne	x7,x28,40001df0 <fail>
    40001734:	09100193          	li	x3,145
    40001738:	0000a337          	lui	x6,0xa
    4000173c:	7a63031b          	addiw	x6,x6,1958 # a7a6 <_start-0x3fff585a>
    40001740:	ff8aa3b7          	lui	x7,0xff8aa
    40001744:	e9b3839b          	addiw	x7,x7,-357 # ffffffffff8a9e9b <__STACK_START_+0xffffffffbf8a7a7b>
    40001748:	00c39393          	slli	x7,x7,0xc
    4000174c:	92938393          	addi	x7,x7,-1751
    40001750:	00d39393          	slli	x7,x7,0xd
    40001754:	d1538393          	addi	x7,x7,-747
    40001758:	00d39393          	slli	x7,x7,0xd
    4000175c:	1a538393          	addi	x7,x7,421
    40001760:	006413a3          	sh	x6,7(x8)
    40001764:	00243e03          	ld	x28,2(x8)
    40001768:	69c39463          	bne	x7,x28,40001df0 <fail>
    4000176c:	09200193          	li	x3,146
    40001770:	0000b337          	lui	x6,0xb
    40001774:	9a83031b          	addiw	x6,x6,-1624 # a9a8 <_start-0x3fff5658>
    40001778:	fea6a3b7          	lui	x7,0xfea6a
    4000177c:	29f3839b          	addiw	x7,x7,671 # fffffffffea6a29f <__STACK_START_+0xffffffffbea67e7f>
    40001780:	00c39393          	slli	x7,x7,0xc
    40001784:	9a938393          	addi	x7,x7,-1623
    40001788:	00d39393          	slli	x7,x7,0xd
    4000178c:	51d38393          	addi	x7,x7,1309
    40001790:	00d39393          	slli	x7,x7,0xd
    40001794:	2a138393          	addi	x7,x7,673
    40001798:	006414a3          	sh	x6,9(x8)
    4000179c:	00343e03          	ld	x28,3(x8)
    400017a0:	65c39863          	bne	x7,x28,40001df0 <fail>
    400017a4:	09300193          	li	x3,147
    400017a8:	000ae337          	lui	x6,0xae
    400017ac:	acb3031b          	addiw	x6,x6,-1333 # adacb <_start-0x3ff52535>
    400017b0:	00c31313          	slli	x6,x6,0xc
    400017b4:	baa30313          	addi	x6,x6,-1110
    400017b8:	fe4aa3b7          	lui	x7,0xfe4aa
    400017bc:	a8b3839b          	addiw	x7,x7,-1397 # fffffffffe4a9a8b <__STACK_START_+0xffffffffbe4a766b>
    400017c0:	00c39393          	slli	x7,x7,0xc
    400017c4:	dad38393          	addi	x7,x7,-595
    400017c8:	00c39393          	slli	x7,x7,0xc
    400017cc:	abb38393          	addi	x7,x7,-1349
    400017d0:	00c39393          	slli	x7,x7,0xc
    400017d4:	aa238393          	addi	x7,x7,-1374
    400017d8:	006422a3          	sw	x6,5(x8)
    400017dc:	00443e03          	ld	x28,4(x8)
    400017e0:	61c39863          	bne	x7,x28,40001df0 <fail>
    400017e4:	09400193          	li	x3,148
    400017e8:	000b2337          	lui	x6,0xb2
    400017ec:	b0b3031b          	addiw	x6,x6,-1269 # b1b0b <_start-0x3ff4e4f5>
    400017f0:	00c31313          	slli	x6,x6,0xc
    400017f4:	fae30313          	addi	x6,x6,-82
    400017f8:	fff2f3b7          	lui	x7,0xfff2f
    400017fc:	2593839b          	addiw	x7,x7,601 # fffffffffff2f259 <__STACK_START_+0xffffffffbff2ce39>
    40001800:	00d39393          	slli	x7,x7,0xd
    40001804:	b0b38393          	addi	x7,x7,-1269
    40001808:	01039393          	slli	x7,x7,0x10
    4000180c:	aeb38393          	addi	x7,x7,-1301
    40001810:	00c39393          	slli	x7,x7,0xc
    40001814:	baa38393          	addi	x7,x7,-1110
    40001818:	006423a3          	sw	x6,7(x8)
    4000181c:	00543e03          	ld	x28,5(x8)
    40001820:	5dc39863          	bne	x7,x28,40001df0 <fail>
    40001824:	09500193          	li	x3,149
    40001828:	000b6337          	lui	x6,0xb6
    4000182c:	b4b3031b          	addiw	x6,x6,-1205 # b5b4b <_start-0x3ff4a4b5>
    40001830:	00c31313          	slli	x6,x6,0xc
    40001834:	3b230313          	addi	x6,x6,946
    40001838:	fe6b63b7          	lui	x7,0xfe6b6
    4000183c:	b4b3839b          	addiw	x7,x7,-1205 # fffffffffe6b5b4b <__STACK_START_+0xffffffffbe6b372b>
    40001840:	00c39393          	slli	x7,x7,0xc
    40001844:	3b338393          	addi	x7,x7,947
    40001848:	00c39393          	slli	x7,x7,0xc
    4000184c:	afb38393          	addi	x7,x7,-1285
    40001850:	00c39393          	slli	x7,x7,0xc
    40001854:	eab38393          	addi	x7,x7,-341
    40001858:	006424a3          	sw	x6,9(x8)
    4000185c:	00643e03          	ld	x28,6(x8)
    40001860:	59c39863          	bne	x7,x28,40001df0 <fail>
    40001864:	09600193          	li	x3,150
    40001868:	000ba337          	lui	x6,0xba
    4000186c:	b8b3031b          	addiw	x6,x6,-1141 # b9b8b <_start-0x3ff46475>
    40001870:	00c31313          	slli	x6,x6,0xc
    40001874:	7b630313          	addi	x6,x6,1974
    40001878:	fee6e3b7          	lui	x7,0xfee6e
    4000187c:	2df3839b          	addiw	x7,x7,735 # fffffffffee6e2df <__STACK_START_+0xffffffffbee6bebf>
    40001880:	00c39393          	slli	x7,x7,0xc
    40001884:	dad38393          	addi	x7,x7,-595
    40001888:	00e39393          	slli	x7,x7,0xe
    4000188c:	b2b38393          	addi	x7,x7,-1237
    40001890:	00c39393          	slli	x7,x7,0xc
    40001894:	fae38393          	addi	x7,x7,-82
    40001898:	006425a3          	sw	x6,11(x8)
    4000189c:	00743e03          	ld	x28,7(x8)
    400018a0:	55c39863          	bne	x7,x28,40001df0 <fail>
    400018a4:	09700193          	li	x3,151
    400018a8:	0ba00313          	li	x6,186
    400018ac:	000033b7          	lui	x7,0x3
    400018b0:	1ba3839b          	addiw	x7,x7,442 # 31ba <_start-0x3fffce46>
    400018b4:	00640fa3          	sb	x6,31(x8)
    400018b8:	01f41e03          	lh	x28,31(x8)
    400018bc:	53c39a63          	bne	x7,x28,40001df0 <fail>
    400018c0:	09800193          	li	x3,152
    400018c4:	0bb00313          	li	x6,187
    400018c8:	0000c3b7          	lui	x7,0xc
    400018cc:	bba3839b          	addiw	x7,x7,-1094 # bbba <_start-0x3fff4446>
    400018d0:	02640023          	sb	x6,32(x8)
    400018d4:	01f45e03          	lhu	x28,31(x8)
    400018d8:	51c39c63          	bne	x7,x28,40001df0 <fail>
    400018dc:	09900193          	li	x3,153
    400018e0:	0000c337          	lui	x6,0xc
    400018e4:	dbc3031b          	addiw	x6,x6,-580 # bdbc <_start-0x3fff4244>
    400018e8:	32bbc3b7          	lui	x7,0x32bbc
    400018ec:	dbc3839b          	addiw	x7,x7,-580 # 32bbbdbc <_start-0xd444244>
    400018f0:	00641f23          	sh	x6,30(x8)
    400018f4:	01e42e03          	lw	x28,30(x8)
    400018f8:	4fc39c63          	bne	x7,x28,40001df0 <fail>
    400018fc:	09a00193          	li	x3,154
    40001900:	0000c337          	lui	x6,0xc
    40001904:	fbe3031b          	addiw	x6,x6,-66 # bfbe <_start-0x3fff4042>
    40001908:	32bfc3b7          	lui	x7,0x32bfc
    4000190c:	ebc3839b          	addiw	x7,x7,-324 # 32bfbebc <_start-0xd404144>
    40001910:	00641fa3          	sh	x6,31(x8)
    40001914:	01e42e03          	lw	x28,30(x8)
    40001918:	4dc39c63          	bne	x7,x28,40001df0 <fail>
    4000191c:	09b00193          	li	x3,155
    40001920:	0000c337          	lui	x6,0xc
    40001924:	1c03031b          	addiw	x6,x6,448 # c1c0 <_start-0x3fff3e40>
    40001928:	c1c0c3b7          	lui	x7,0xc1c0c
    4000192c:	ebc3839b          	addiw	x7,x7,-324 # ffffffffc1c0bebc <__STACK_START_+0xffffffff81c09a9c>
    40001930:	02641023          	sh	x6,32(x8)
    40001934:	01e42e03          	lw	x28,30(x8)
    40001938:	4bc39c63          	bne	x7,x28,40001df0 <fail>
    4000193c:	09c00193          	li	x3,156
    40001940:	0c200313          	li	x6,194
    40001944:	33c1c3b7          	lui	x7,0x33c1c
    40001948:	2be3839b          	addiw	x7,x7,702 # 33c1c2be <_start-0xc3e3d42>
    4000194c:	02640023          	sb	x6,32(x8)
    40001950:	01f46e03          	lwu	x28,31(x8)
    40001954:	49c39e63          	bne	x7,x28,40001df0 <fail>
    40001958:	09d00193          	li	x3,157
    4000195c:	0000c337          	lui	x6,0xc
    40001960:	4c33031b          	addiw	x6,x6,1219 # c4c3 <_start-0x3fff3b3d>
    40001964:	000313b7          	lui	x7,0x31
    40001968:	30f3839b          	addiw	x7,x7,783 # 3130f <_start-0x3ffcecf1>
    4000196c:	00e39393          	slli	x7,x7,0xe
    40001970:	c2038393          	addi	x7,x7,-992
    40001974:	00641fa3          	sh	x6,31(x8)
    40001978:	01d46e03          	lwu	x28,29(x8)
    4000197c:	47c39a63          	bne	x7,x28,40001df0 <fail>
    40001980:	09e00193          	li	x3,158
    40001984:	0000c337          	lui	x6,0xc
    40001988:	6c53031b          	addiw	x6,x6,1733 # c6c5 <_start-0x3fff393b>
    4000198c:	000323b7          	lui	x7,0x32
    40001990:	b173839b          	addiw	x7,x7,-1257 # 31b17 <_start-0x3ffce4e9>
    40001994:	00e39393          	slli	x7,x7,0xe
    40001998:	3bc38393          	addi	x7,x7,956
    4000199c:	02641023          	sh	x6,32(x8)
    400019a0:	01e46e03          	lwu	x28,30(x8)
    400019a4:	45c39663          	bne	x7,x28,40001df0 <fail>
    400019a8:	09f00193          	li	x3,159
    400019ac:	0c700313          	li	x6,199
    400019b0:	fff1f3b7          	lui	x7,0xfff1f
    400019b4:	0ef3839b          	addiw	x7,x7,239 # fffffffffff1f0ef <__STACK_START_+0xffffffffbff1cccf>
    400019b8:	00f39393          	slli	x7,x7,0xf
    400019bc:	40338393          	addi	x7,x7,1027
    400019c0:	00f39393          	slli	x7,x7,0xf
    400019c4:	10138393          	addi	x7,x7,257
    400019c8:	00c39393          	slli	x7,x7,0xc
    400019cc:	80038393          	addi	x7,x7,-2048
    400019d0:	02640023          	sb	x6,32(x8)
    400019d4:	01943e03          	ld	x28,25(x8)
    400019d8:	41c39c63          	bne	x7,x28,40001df0 <fail>
    400019dc:	0a000193          	li	x3,160
    400019e0:	0000d337          	lui	x6,0xd
    400019e4:	9c83031b          	addiw	x6,x6,-1592 # c9c8 <_start-0x3fff3638>
    400019e8:	fff8e3b7          	lui	x7,0xfff8e
    400019ec:	9393839b          	addiw	x7,x7,-1735 # fffffffffff8d939 <__STACK_START_+0xffffffffbff8b519>
    400019f0:	00e39393          	slli	x7,x7,0xe
    400019f4:	5e138393          	addi	x7,x7,1505
    400019f8:	01139393          	slli	x7,x7,0x11
    400019fc:	18138393          	addi	x7,x7,385
    40001a00:	00c39393          	slli	x7,x7,0xc
    40001a04:	00838393          	addi	x7,x7,8
    40001a08:	00641fa3          	sh	x6,31(x8)
    40001a0c:	01a43e03          	ld	x28,26(x8)
    40001a10:	3fc39063          	bne	x7,x28,40001df0 <fail>
    40001a14:	0a100193          	li	x3,161
    40001a18:	0000d337          	lui	x6,0xd
    40001a1c:	bca3031b          	addiw	x6,x6,-1078 # cbca <_start-0x3fff3436>
    40001a20:	00cf23b7          	lui	x7,0xcf2
    40001a24:	b2f3839b          	addiw	x7,x7,-1233 # cf1b2f <_start-0x3f30e4d1>
    40001a28:	00c39393          	slli	x7,x7,0xc
    40001a2c:	2af38393          	addi	x7,x7,687
    40001a30:	00d39393          	slli	x7,x7,0xd
    40001a34:	10138393          	addi	x7,x7,257
    40001a38:	00d39393          	slli	x7,x7,0xd
    40001a3c:	81038393          	addi	x7,x7,-2032
    40001a40:	00641fa3          	sh	x6,31(x8)
    40001a44:	01b43e03          	ld	x28,27(x8)
    40001a48:	3bc39463          	bne	x7,x28,40001df0 <fail>
    40001a4c:	0a200193          	li	x3,162
    40001a50:	000d0337          	lui	x6,0xd0
    40001a54:	ced3031b          	addiw	x6,x6,-787 # cfced <_start-0x3ff30313>
    40001a58:	00c31313          	slli	x6,x6,0xc
    40001a5c:	dcc30313          	addi	x6,x6,-564
    40001a60:	ff3f43b7          	lui	x7,0xff3f4
    40001a64:	b373839b          	addiw	x7,x7,-1225 # ffffffffff3f3b37 <__STACK_START_+0xffffffffbf3f1717>
    40001a68:	00d39393          	slli	x7,x7,0xd
    40001a6c:	66538393          	addi	x7,x7,1637
    40001a70:	00c39393          	slli	x7,x7,0xc
    40001a74:	5e138393          	addi	x7,x7,1505
    40001a78:	00d39393          	slli	x7,x7,0xd
    40001a7c:	01838393          	addi	x7,x7,24
    40001a80:	02642023          	sw	x6,32(x8)
    40001a84:	01c43e03          	ld	x28,28(x8)
    40001a88:	37c39463          	bne	x7,x28,40001df0 <fail>
    40001a8c:	0a300193          	li	x3,163
    40001a90:	000d4337          	lui	x6,0xd4
    40001a94:	d2d3031b          	addiw	x6,x6,-723 # d3d2d <_start-0x3ff2c2d3>
    40001a98:	00c31313          	slli	x6,x6,0xc
    40001a9c:	1d030313          	addi	x6,x6,464
    40001aa0:	000d73b7          	lui	x7,0xd7
    40001aa4:	3f53839b          	addiw	x7,x7,1013 # d73f5 <_start-0x3ff28c0b>
    40001aa8:	00e39393          	slli	x7,x7,0xe
    40001aac:	d2d38393          	addi	x7,x7,-723
    40001ab0:	00e39393          	slli	x7,x7,0xe
    40001ab4:	74338393          	addi	x7,x7,1859
    40001ab8:	00e39393          	slli	x7,x7,0xe
    40001abc:	c2038393          	addi	x7,x7,-992
    40001ac0:	00642fa3          	sw	x6,31(x8)
    40001ac4:	01d43e03          	ld	x28,29(x8)
    40001ac8:	33c39463          	bne	x7,x28,40001df0 <fail>
    40001acc:	0a400193          	li	x3,164
    40001ad0:	000d8337          	lui	x6,0xd8
    40001ad4:	d6d3031b          	addiw	x6,x6,-659 # d7d6d <_start-0x3ff28293>
    40001ad8:	00c31313          	slli	x6,x6,0xc
    40001adc:	5d430313          	addi	x6,x6,1492
    40001ae0:	000363b7          	lui	x7,0x36
    40001ae4:	35d3839b          	addiw	x7,x7,861 # 3635d <_start-0x3ffc9ca3>
    40001ae8:	01139393          	slli	x7,x7,0x11
    40001aec:	a7b38393          	addi	x7,x7,-1413
    40001af0:	00f39393          	slli	x7,x7,0xf
    40001af4:	d6d38393          	addi	x7,x7,-659
    40001af8:	00c39393          	slli	x7,x7,0xc
    40001afc:	5d438393          	addi	x7,x7,1492
    40001b00:	00642f23          	sw	x6,30(x8)
    40001b04:	01e43e03          	ld	x28,30(x8)
    40001b08:	2fc39463          	bne	x7,x28,40001df0 <fail>
    40001b0c:	0a500193          	li	x3,165
    40001b10:	0006e337          	lui	x6,0x6e
    40001b14:	ed73031b          	addiw	x6,x6,-297 # 6ded7 <_start-0x3ff92129>
    40001b18:	00d31313          	slli	x6,x6,0xd
    40001b1c:	9d830313          	addi	x6,x6,-1576
    40001b20:	00dce3b7          	lui	x7,0xdce
    40001b24:	8d73839b          	addiw	x7,x7,-1833 # dcd8d7 <_start-0x3f232729>
    40001b28:	00c39393          	slli	x7,x7,0xc
    40001b2c:	3f538393          	addi	x7,x7,1013
    40001b30:	00d39393          	slli	x7,x7,0xd
    40001b34:	ebf38393          	addi	x7,x7,-321
    40001b38:	00d39393          	slli	x7,x7,0xd
    40001b3c:	bda38393          	addi	x7,x7,-1062
    40001b40:	00642ea3          	sw	x6,29(x8)
    40001b44:	01f43e03          	ld	x28,31(x8)
    40001b48:	2bc39463          	bne	x7,x28,40001df0 <fail>
    40001b4c:	0a600193          	li	x3,166
    40001b50:	0dc00313          	li	x6,220
    40001b54:	ffff93b7          	lui	x7,0xffff9
    40001b58:	1dc3839b          	addiw	x7,x7,476 # ffffffffffff91dc <__STACK_START_+0xffffffffbfff6dbc>
    40001b5c:	02640fa3          	sb	x6,63(x8)
    40001b60:	03f41e03          	lh	x28,63(x8)
    40001b64:	29c39663          	bne	x7,x28,40001df0 <fail>
    40001b68:	0a700193          	li	x3,167
    40001b6c:	0dd00313          	li	x6,221
    40001b70:	0000e3b7          	lui	x7,0xe
    40001b74:	ddc3839b          	addiw	x7,x7,-548 # dddc <_start-0x3fff2224>
    40001b78:	04640023          	sb	x6,64(x8)
    40001b7c:	03f45e03          	lhu	x28,63(x8)
    40001b80:	27c39863          	bne	x7,x28,40001df0 <fail>
    40001b84:	0a800193          	li	x3,168
    40001b88:	0000e337          	lui	x6,0xe
    40001b8c:	fde3031b          	addiw	x6,x6,-34 # dfde <_start-0x3fff2022>
    40001b90:	92dde3b7          	lui	x7,0x92dde
    40001b94:	fde3839b          	addiw	x7,x7,-34 # ffffffff92dddfde <__STACK_START_+0xffffffff52ddbbbe>
    40001b98:	02641f23          	sh	x6,62(x8)
    40001b9c:	03e42e03          	lw	x28,62(x8)
    40001ba0:	25c39863          	bne	x7,x28,40001df0 <fail>
    40001ba4:	0a900193          	li	x3,169
    40001ba8:	0000e337          	lui	x6,0xe
    40001bac:	1e03031b          	addiw	x6,x6,480 # e1e0 <_start-0x3fff1e20>
    40001bb0:	92e1e3b7          	lui	x7,0x92e1e
    40001bb4:	0de3839b          	addiw	x7,x7,222 # ffffffff92e1e0de <__STACK_START_+0xffffffff52e1bcbe>
    40001bb8:	02641fa3          	sh	x6,63(x8)
    40001bbc:	03e42e03          	lw	x28,62(x8)
    40001bc0:	23c39863          	bne	x7,x28,40001df0 <fail>
    40001bc4:	0aa00193          	li	x3,170
    40001bc8:	0000e337          	lui	x6,0xe
    40001bcc:	3e23031b          	addiw	x6,x6,994 # e3e2 <_start-0x3fff1c1e>
    40001bd0:	e3e2e3b7          	lui	x7,0xe3e2e
    40001bd4:	0de3839b          	addiw	x7,x7,222 # ffffffffe3e2e0de <__STACK_START_+0xffffffffa3e2bcbe>
    40001bd8:	04641023          	sh	x6,64(x8)
    40001bdc:	03e42e03          	lw	x28,62(x8)
    40001be0:	21c39863          	bne	x7,x28,40001df0 <fail>
    40001be4:	0ab00193          	li	x3,171
    40001be8:	0e400313          	li	x6,228
    40001bec:	0004a3b7          	lui	x7,0x4a
    40001bf0:	f1f3839b          	addiw	x7,x7,-225 # 49f1f <_start-0x3ffb60e1>
    40001bf4:	00d39393          	slli	x7,x7,0xd
    40001bf8:	4e038393          	addi	x7,x7,1248
    40001bfc:	04640023          	sb	x6,64(x8)
    40001c00:	03f46e03          	lwu	x28,63(x8)
    40001c04:	1fc39663          	bne	x7,x28,40001df0 <fail>
    40001c08:	0ac00193          	li	x3,172
    40001c0c:	0000e337          	lui	x6,0xe
    40001c10:	6e53031b          	addiw	x6,x6,1765 # e6e5 <_start-0x3fff191b>
    40001c14:	000733b7          	lui	x7,0x73
    40001c18:	72f3839b          	addiw	x7,x7,1839 # 7372f <_start-0x3ff8c8d1>
    40001c1c:	00d39393          	slli	x7,x7,0xd
    40001c20:	e8038393          	addi	x7,x7,-384
    40001c24:	02641fa3          	sh	x6,63(x8)
    40001c28:	03d46e03          	lwu	x28,61(x8)
    40001c2c:	1dc39263          	bne	x7,x28,40001df0 <fail>
    40001c30:	0ad00193          	li	x3,173
    40001c34:	0000f337          	lui	x6,0xf
    40001c38:	8e73031b          	addiw	x6,x6,-1817 # e8e7 <_start-0x3fff1719>
    40001c3c:	000743b7          	lui	x7,0x74
    40001c40:	73f3839b          	addiw	x7,x7,1855 # 7473f <_start-0x3ff8b8c1>
    40001c44:	00d39393          	slli	x7,x7,0xd
    40001c48:	5de38393          	addi	x7,x7,1502
    40001c4c:	04641023          	sh	x6,64(x8)
    40001c50:	03e46e03          	lwu	x28,62(x8)
    40001c54:	19c39e63          	bne	x7,x28,40001df0 <fail>
    40001c58:	0ae00193          	li	x3,174
    40001c5c:	0e900313          	li	x6,233
    40001c60:	ffd3d3b7          	lui	x7,0xffd3d
    40001c64:	bbd3839b          	addiw	x7,x7,-1091 # ffffffffffd3cbbd <__STACK_START_+0xffffffffbfd3a79d>
    40001c68:	00c39393          	slli	x7,x7,0xc
    40001c6c:	00f38393          	addi	x7,x7,15
    40001c70:	00f39393          	slli	x7,x7,0xf
    40001c74:	70738393          	addi	x7,x7,1799
    40001c78:	00c39393          	slli	x7,x7,0xc
    40001c7c:	86038393          	addi	x7,x7,-1952
    40001c80:	04640023          	sb	x6,64(x8)
    40001c84:	03943e03          	ld	x28,57(x8)
    40001c88:	17c39463          	bne	x7,x28,40001df0 <fail>
    40001c8c:	0af00193          	li	x3,175
    40001c90:	0000f337          	lui	x6,0xf
    40001c94:	bea3031b          	addiw	x6,x6,-1046 # ebea <_start-0x3fff1416>
    40001c98:	d1d7d3b7          	lui	x7,0xd1d7d
    40001c9c:	5bd3839b          	addiw	x7,x7,1469 # ffffffffd1d7d5bd <__STACK_START_+0xffffffff91d7b19d>
    40001ca0:	01339393          	slli	x7,x7,0x13
    40001ca4:	78738393          	addi	x7,x7,1927
    40001ca8:	00c39393          	slli	x7,x7,0xc
    40001cac:	06838393          	addi	x7,x7,104
    40001cb0:	02641fa3          	sh	x6,63(x8)
    40001cb4:	03a43e03          	ld	x28,58(x8)
    40001cb8:	13c39c63          	bne	x7,x28,40001df0 <fail>
    40001cbc:	0b000193          	li	x3,176
    40001cc0:	0000f337          	lui	x6,0xf
    40001cc4:	dec3031b          	addiw	x6,x6,-532 # edec <_start-0x3fff1214>
    40001cc8:	ffc9f3b7          	lui	x7,0xffc9f
    40001ccc:	4773839b          	addiw	x7,x7,1143 # ffffffffffc9f477 <__STACK_START_+0xffffffffbfc9d057>
    40001cd0:	00c39393          	slli	x7,x7,0xc
    40001cd4:	f6738393          	addi	x7,x7,-153
    40001cd8:	00e39393          	slli	x7,x7,0xe
    40001cdc:	d0138393          	addi	x7,x7,-767
    40001ce0:	00f39393          	slli	x7,x7,0xf
    40001ce4:	87038393          	addi	x7,x7,-1936
    40001ce8:	02641fa3          	sh	x6,63(x8)
    40001cec:	03b43e03          	ld	x28,59(x8)
    40001cf0:	11c39063          	bne	x7,x28,40001df0 <fail>
    40001cf4:	0b100193          	li	x3,177
    40001cf8:	000f2337          	lui	x6,0xf2
    40001cfc:	f0f3031b          	addiw	x6,x6,-241 # f1f0f <_start-0x3ff0e0f1>
    40001d00:	00c31313          	slli	x6,x6,0xc
    40001d04:	fee30313          	addi	x6,x6,-18
    40001d08:	ffff23b7          	lui	x7,0xffff2
    40001d0c:	f0f3839b          	addiw	x7,x7,-241 # ffffffffffff1f0f <__STACK_START_+0xffffffffbffefaef>
    40001d10:	01039393          	slli	x7,x7,0x10
    40001d14:	eef38393          	addi	x7,x7,-273
    40001d18:	00d39393          	slli	x7,x7,0xd
    40001d1c:	9bd38393          	addi	x7,x7,-1603
    40001d20:	00f39393          	slli	x7,x7,0xf
    40001d24:	07838393          	addi	x7,x7,120
    40001d28:	04642023          	sw	x6,64(x8)
    40001d2c:	03c43e03          	ld	x28,60(x8)
    40001d30:	0dc39063          	bne	x7,x28,40001df0 <fail>
    40001d34:	0b200193          	li	x3,178
    40001d38:	000f6337          	lui	x6,0xf6
    40001d3c:	f4f3031b          	addiw	x6,x6,-177 # f5f4f <_start-0x3ff0a0b1>
    40001d40:	00c31313          	slli	x6,x6,0xc
    40001d44:	3f230313          	addi	x6,x6,1010
    40001d48:	ffcb03b7          	lui	x7,0xffcb0
    40001d4c:	8fb3839b          	addiw	x7,x7,-1797 # ffffffffffcaf8fb <__STACK_START_+0xffffffffbfcad4db>
    40001d50:	00f39393          	slli	x7,x7,0xf
    40001d54:	d3d38393          	addi	x7,x7,-707
    40001d58:	00d39393          	slli	x7,x7,0xd
    40001d5c:	f9738393          	addi	x7,x7,-105
    40001d60:	00d39393          	slli	x7,x7,0xd
    40001d64:	e8038393          	addi	x7,x7,-384
    40001d68:	02642fa3          	sw	x6,63(x8)
    40001d6c:	03d43e03          	ld	x28,61(x8)
    40001d70:	09c39063          	bne	x7,x28,40001df0 <fail>
    40001d74:	0b300193          	li	x3,179
    40001d78:	000fa337          	lui	x6,0xfa
    40001d7c:	f8f3031b          	addiw	x6,x6,-113 # f9f8f <_start-0x3ff06071>
    40001d80:	00c31313          	slli	x6,x6,0xc
    40001d84:	7f630313          	addi	x6,x6,2038
    40001d88:	ffcb53b7          	lui	x7,0xffcb5
    40001d8c:	af93839b          	addiw	x7,x7,-1287 # ffffffffffcb4af9 <__STACK_START_+0xffffffffbfcb26d9>
    40001d90:	01039393          	slli	x7,x7,0x10
    40001d94:	afd38393          	addi	x7,x7,-1283
    40001d98:	00d39393          	slli	x7,x7,0xd
    40001d9c:	f8f38393          	addi	x7,x7,-113
    40001da0:	00c39393          	slli	x7,x7,0xc
    40001da4:	7f638393          	addi	x7,x7,2038
    40001da8:	02642f23          	sw	x6,62(x8)
    40001dac:	03e43e03          	ld	x28,62(x8)
    40001db0:	05c39063          	bne	x7,x28,40001df0 <fail>
    40001db4:	0b400193          	li	x3,180
    40001db8:	00010337          	lui	x6,0x10
    40001dbc:	dfd3031b          	addiw	x6,x6,-515 # fdfd <_start-0x3fff0203>
    40001dc0:	01031313          	slli	x6,x6,0x10
    40001dc4:	bfa30313          	addi	x6,x6,-1030
    40001dc8:	cbcb53b7          	lui	x7,0xcbcb5
    40001dcc:	af93839b          	addiw	x7,x7,-1287 # ffffffffcbcb4af9 <__STACK_START_+0xffffffff8bcb26d9>
    40001dd0:	01039393          	slli	x7,x7,0x10
    40001dd4:	afd38393          	addi	x7,x7,-1283
    40001dd8:	01139393          	slli	x7,x7,0x11
    40001ddc:	dfc38393          	addi	x7,x7,-516
    40001de0:	02642ea3          	sw	x6,61(x8)
    40001de4:	03f43e03          	ld	x28,63(x8)
    40001de8:	01c39463          	bne	x7,x28,40001df0 <fail>
    40001dec:	02301063          	bne	x0,x3,40001e0c <pass>

0000000040001df0 <fail>:
    40001df0:	0ff0000f          	fence
    40001df4:	00018063          	beqz	x3,40001df4 <fail+0x4>
    40001df8:	00119193          	slli	x3,x3,0x1
    40001dfc:	0011e193          	ori	x3,x3,1
    40001e00:	05d00893          	li	x17,93
    40001e04:	00018513          	mv	x10,x3
    40001e08:	00000073          	ecall

0000000040001e0c <pass>:
    40001e0c:	0ff0000f          	fence
    40001e10:	00100193          	li	x3,1
    40001e14:	05d00893          	li	x17,93
    40001e18:	00000513          	li	x10,0
    40001e1c:	00000073          	ecall
    40001e20:	c0001073          	unimp
    40001e24:	0000                	.2byte	0x0
    40001e26:	0000                	.2byte	0x0
    40001e28:	0000                	.2byte	0x0
    40001e2a:	0000                	.2byte	0x0
    40001e2c:	0000                	.2byte	0x0
    40001e2e:	0000                	.2byte	0x0
    40001e30:	0000                	.2byte	0x0
    40001e32:	0000                	.2byte	0x0
    40001e34:	0000                	.2byte	0x0
    40001e36:	0000                	.2byte	0x0
    40001e38:	0000                	.2byte	0x0
    40001e3a:	0000                	.2byte	0x0
