
rv64ui-p-sll:     file format elf64-littleriscv


Disassembly of section .text:

0000000080000000 <_start>:
    80000000:	0480006f          	j	80000048 <reset_vector>

0000000080000004 <trap_vector>:
    80000004:	34202f73          	csrr	x30,mcause
    80000008:	00800f93          	li	x31,8
    8000000c:	03ff0863          	beq	x30,x31,8000003c <write_tohost>
    80000010:	00900f93          	li	x31,9
    80000014:	03ff0463          	beq	x30,x31,8000003c <write_tohost>
    80000018:	00b00f93          	li	x31,11
    8000001c:	03ff0063          	beq	x30,x31,8000003c <write_tohost>
    80000020:	00000f13          	li	x30,0
    80000024:	000f0463          	beqz	x30,8000002c <trap_vector+0x28>
    80000028:	000f0067          	jr	x30
    8000002c:	34202f73          	csrr	x30,mcause
    80000030:	000f5463          	bgez	x30,80000038 <handle_exception>
    80000034:	0040006f          	j	80000038 <handle_exception>

0000000080000038 <handle_exception>:
    80000038:	5391e193          	ori	x3,x3,1337

000000008000003c <write_tohost>:
    8000003c:	00000f17          	auipc	x30,0x0
    80000040:	783f2223          	sw	x3,1924(x30) # 800007c0 <begin_signature>
    80000044:	ff9ff06f          	j	8000003c <write_tohost>

0000000080000048 <reset_vector>:
    80000048:	00000093          	li	x1,0
    8000004c:	00000113          	li	x2,0
    80000050:	00000193          	li	x3,0
    80000054:	00000213          	li	x4,0
    80000058:	00000293          	li	x5,0
    8000005c:	00000313          	li	x6,0
    80000060:	00000393          	li	x7,0
    80000064:	00000413          	li	x8,0
    80000068:	00000493          	li	x9,0
    8000006c:	00000513          	li	x10,0
    80000070:	00000593          	li	x11,0
    80000074:	00000613          	li	x12,0
    80000078:	00000693          	li	x13,0
    8000007c:	00000713          	li	x14,0
    80000080:	00000793          	li	x15,0
    80000084:	00000813          	li	x16,0
    80000088:	00000893          	li	x17,0
    8000008c:	00000913          	li	x18,0
    80000090:	00000993          	li	x19,0
    80000094:	00000a13          	li	x20,0
    80000098:	00000a93          	li	x21,0
    8000009c:	00000b13          	li	x22,0
    800000a0:	00000b93          	li	x23,0
    800000a4:	00000c13          	li	x24,0
    800000a8:	00000c93          	li	x25,0
    800000ac:	00000d13          	li	x26,0
    800000b0:	00000d93          	li	x27,0
    800000b4:	00000e13          	li	x28,0
    800000b8:	00000e93          	li	x29,0
    800000bc:	00000f13          	li	x30,0
    800000c0:	00000f93          	li	x31,0
    800000c4:	f1402573          	csrr	x10,mhartid
    800000c8:	00051063          	bnez	x10,800000c8 <reset_vector+0x80>
    800000cc:	00000297          	auipc	x5,0x0
    800000d0:	01028293          	addi	x5,x5,16 # 800000dc <reset_vector+0x94>
    800000d4:	30529073          	csrw	mtvec,x5
    800000d8:	18005073          	csrwi	satp,0
    800000dc:	00000297          	auipc	x5,0x0
    800000e0:	02428293          	addi	x5,x5,36 # 80000100 <reset_vector+0xb8>
    800000e4:	30529073          	csrw	mtvec,x5
    800000e8:	0010029b          	addiw	x5,x0,1
    800000ec:	03529293          	slli	x5,x5,0x35
    800000f0:	fff28293          	addi	x5,x5,-1
    800000f4:	3b029073          	csrw	pmpaddr0,x5
    800000f8:	01f00293          	li	x5,31
    800000fc:	3a029073          	csrw	pmpcfg0,x5
    80000100:	30405073          	csrwi	mie,0
    80000104:	00000297          	auipc	x5,0x0
    80000108:	01428293          	addi	x5,x5,20 # 80000118 <reset_vector+0xd0>
    8000010c:	30529073          	csrw	mtvec,x5
    80000110:	30205073          	csrwi	medeleg,0
    80000114:	30305073          	csrwi	mideleg,0
    80000118:	00000193          	li	x3,0
    8000011c:	00000297          	auipc	x5,0x0
    80000120:	ee828293          	addi	x5,x5,-280 # 80000004 <trap_vector>
    80000124:	30529073          	csrw	mtvec,x5
    80000128:	00100513          	li	x10,1
    8000012c:	01f51513          	slli	x10,x10,0x1f
    80000130:	00055c63          	bgez	x10,80000148 <reset_vector+0x100>
    80000134:	0ff0000f          	fence
    80000138:	00100193          	li	x3,1
    8000013c:	05d00893          	li	x17,93
    80000140:	00000513          	li	x10,0
    80000144:	00000073          	ecall
    80000148:	00000293          	li	x5,0
    8000014c:	00028a63          	beqz	x5,80000160 <reset_vector+0x118>
    80000150:	10529073          	csrw	stvec,x5
    80000154:	0000b2b7          	lui	x5,0xb
    80000158:	1092829b          	addiw	x5,x5,265
    8000015c:	30229073          	csrw	medeleg,x5
    80000160:	30005073          	csrwi	mstatus,0
    80000164:	00000297          	auipc	x5,0x0
    80000168:	01428293          	addi	x5,x5,20 # 80000178 <test_2>
    8000016c:	34129073          	csrw	mepc,x5
    80000170:	f1402573          	csrr	x10,mhartid
    80000174:	30200073          	mret

0000000080000178 <test_2>:
    80000178:	00200193          	li	x3,2
    8000017c:	00100093          	li	x1,1
    80000180:	00000113          	li	x2,0
    80000184:	00209733          	sll	x14,x1,x2
    80000188:	00100393          	li	x7,1
    8000018c:	5e771c63          	bne	x14,x7,80000784 <fail>

0000000080000190 <test_3>:
    80000190:	00300193          	li	x3,3
    80000194:	00100093          	li	x1,1
    80000198:	00100113          	li	x2,1
    8000019c:	00209733          	sll	x14,x1,x2
    800001a0:	00200393          	li	x7,2
    800001a4:	5e771063          	bne	x14,x7,80000784 <fail>

00000000800001a8 <test_4>:
    800001a8:	00400193          	li	x3,4
    800001ac:	00100093          	li	x1,1
    800001b0:	00700113          	li	x2,7
    800001b4:	00209733          	sll	x14,x1,x2
    800001b8:	08000393          	li	x7,128
    800001bc:	5c771463          	bne	x14,x7,80000784 <fail>

00000000800001c0 <test_5>:
    800001c0:	00500193          	li	x3,5
    800001c4:	00100093          	li	x1,1
    800001c8:	00e00113          	li	x2,14
    800001cc:	00209733          	sll	x14,x1,x2
    800001d0:	000043b7          	lui	x7,0x4
    800001d4:	5a771863          	bne	x14,x7,80000784 <fail>

00000000800001d8 <test_6>:
    800001d8:	00600193          	li	x3,6
    800001dc:	00100093          	li	x1,1
    800001e0:	01f00113          	li	x2,31
    800001e4:	00209733          	sll	x14,x1,x2
    800001e8:	0010039b          	addiw	x7,x0,1
    800001ec:	01f39393          	slli	x7,x7,0x1f
    800001f0:	58771a63          	bne	x14,x7,80000784 <fail>

00000000800001f4 <test_7>:
    800001f4:	00700193          	li	x3,7
    800001f8:	fff00093          	li	x1,-1
    800001fc:	00000113          	li	x2,0
    80000200:	00209733          	sll	x14,x1,x2
    80000204:	fff00393          	li	x7,-1
    80000208:	56771e63          	bne	x14,x7,80000784 <fail>

000000008000020c <test_8>:
    8000020c:	00800193          	li	x3,8
    80000210:	fff00093          	li	x1,-1
    80000214:	00100113          	li	x2,1
    80000218:	00209733          	sll	x14,x1,x2
    8000021c:	ffe00393          	li	x7,-2
    80000220:	56771263          	bne	x14,x7,80000784 <fail>

0000000080000224 <test_9>:
    80000224:	00900193          	li	x3,9
    80000228:	fff00093          	li	x1,-1
    8000022c:	00700113          	li	x2,7
    80000230:	00209733          	sll	x14,x1,x2
    80000234:	f8000393          	li	x7,-128
    80000238:	54771663          	bne	x14,x7,80000784 <fail>

000000008000023c <test_10>:
    8000023c:	00a00193          	li	x3,10
    80000240:	fff00093          	li	x1,-1
    80000244:	00e00113          	li	x2,14
    80000248:	00209733          	sll	x14,x1,x2
    8000024c:	ffffc3b7          	lui	x7,0xffffc
    80000250:	52771a63          	bne	x14,x7,80000784 <fail>

0000000080000254 <test_11>:
    80000254:	00b00193          	li	x3,11
    80000258:	fff00093          	li	x1,-1
    8000025c:	01f00113          	li	x2,31
    80000260:	00209733          	sll	x14,x1,x2
    80000264:	800003b7          	lui	x7,0x80000
    80000268:	50771e63          	bne	x14,x7,80000784 <fail>

000000008000026c <test_12>:
    8000026c:	00c00193          	li	x3,12
    80000270:	212120b7          	lui	x1,0x21212
    80000274:	1210809b          	addiw	x1,x1,289
    80000278:	00000113          	li	x2,0
    8000027c:	00209733          	sll	x14,x1,x2
    80000280:	212123b7          	lui	x7,0x21212
    80000284:	1213839b          	addiw	x7,x7,289
    80000288:	4e771e63          	bne	x14,x7,80000784 <fail>

000000008000028c <test_13>:
    8000028c:	00d00193          	li	x3,13
    80000290:	212120b7          	lui	x1,0x21212
    80000294:	1210809b          	addiw	x1,x1,289
    80000298:	00100113          	li	x2,1
    8000029c:	00209733          	sll	x14,x1,x2
    800002a0:	424243b7          	lui	x7,0x42424
    800002a4:	2423839b          	addiw	x7,x7,578
    800002a8:	4c771e63          	bne	x14,x7,80000784 <fail>

00000000800002ac <test_14>:
    800002ac:	00e00193          	li	x3,14
    800002b0:	212120b7          	lui	x1,0x21212
    800002b4:	1210809b          	addiw	x1,x1,289
    800002b8:	00700113          	li	x2,7
    800002bc:	00209733          	sll	x14,x1,x2
    800002c0:	010913b7          	lui	x7,0x1091
    800002c4:	9093839b          	addiw	x7,x7,-1783
    800002c8:	00c39393          	slli	x7,x7,0xc
    800002cc:	08038393          	addi	x7,x7,128 # 1091080 <_start-0x7ef6ef80>
    800002d0:	4a771a63          	bne	x14,x7,80000784 <fail>

00000000800002d4 <test_15>:
    800002d4:	00f00193          	li	x3,15
    800002d8:	212120b7          	lui	x1,0x21212
    800002dc:	1210809b          	addiw	x1,x1,289
    800002e0:	00e00113          	li	x2,14
    800002e4:	00209733          	sll	x14,x1,x2
    800002e8:	212123b7          	lui	x7,0x21212
    800002ec:	1213839b          	addiw	x7,x7,289
    800002f0:	00e39393          	slli	x7,x7,0xe
    800002f4:	48771863          	bne	x14,x7,80000784 <fail>

00000000800002f8 <test_16>:
    800002f8:	01000193          	li	x3,16
    800002fc:	212120b7          	lui	x1,0x21212
    80000300:	1210809b          	addiw	x1,x1,289
    80000304:	01f00113          	li	x2,31
    80000308:	00209733          	sll	x14,x1,x2
    8000030c:	212123b7          	lui	x7,0x21212
    80000310:	1213839b          	addiw	x7,x7,289
    80000314:	01f39393          	slli	x7,x7,0x1f
    80000318:	46771663          	bne	x14,x7,80000784 <fail>

000000008000031c <test_17>:
    8000031c:	01100193          	li	x3,17
    80000320:	212120b7          	lui	x1,0x21212
    80000324:	1210809b          	addiw	x1,x1,289
    80000328:	fc000113          	li	x2,-64
    8000032c:	00209733          	sll	x14,x1,x2
    80000330:	212123b7          	lui	x7,0x21212
    80000334:	1213839b          	addiw	x7,x7,289
    80000338:	44771663          	bne	x14,x7,80000784 <fail>

000000008000033c <test_18>:
    8000033c:	01200193          	li	x3,18
    80000340:	212120b7          	lui	x1,0x21212
    80000344:	1210809b          	addiw	x1,x1,289
    80000348:	fc100113          	li	x2,-63
    8000034c:	00209733          	sll	x14,x1,x2
    80000350:	424243b7          	lui	x7,0x42424
    80000354:	2423839b          	addiw	x7,x7,578
    80000358:	42771663          	bne	x14,x7,80000784 <fail>

000000008000035c <test_19>:
    8000035c:	01300193          	li	x3,19
    80000360:	212120b7          	lui	x1,0x21212
    80000364:	1210809b          	addiw	x1,x1,289
    80000368:	fc700113          	li	x2,-57
    8000036c:	00209733          	sll	x14,x1,x2
    80000370:	010913b7          	lui	x7,0x1091
    80000374:	9093839b          	addiw	x7,x7,-1783
    80000378:	00c39393          	slli	x7,x7,0xc
    8000037c:	08038393          	addi	x7,x7,128 # 1091080 <_start-0x7ef6ef80>
    80000380:	40771263          	bne	x14,x7,80000784 <fail>

0000000080000384 <test_20>:
    80000384:	01400193          	li	x3,20
    80000388:	212120b7          	lui	x1,0x21212
    8000038c:	1210809b          	addiw	x1,x1,289
    80000390:	fce00113          	li	x2,-50
    80000394:	00209733          	sll	x14,x1,x2
    80000398:	212123b7          	lui	x7,0x21212
    8000039c:	1213839b          	addiw	x7,x7,289
    800003a0:	00e39393          	slli	x7,x7,0xe
    800003a4:	3e771063          	bne	x14,x7,80000784 <fail>

00000000800003a8 <test_21>:
    800003a8:	01500193          	li	x3,21
    800003ac:	212120b7          	lui	x1,0x21212
    800003b0:	1210809b          	addiw	x1,x1,289
    800003b4:	fff00113          	li	x2,-1
    800003b8:	00209733          	sll	x14,x1,x2
    800003bc:	fff0039b          	addiw	x7,x0,-1
    800003c0:	03f39393          	slli	x7,x7,0x3f
    800003c4:	3c771063          	bne	x14,x7,80000784 <fail>

00000000800003c8 <test_50>:
    800003c8:	03200193          	li	x3,50
    800003cc:	00100093          	li	x1,1
    800003d0:	03f00113          	li	x2,63
    800003d4:	00209733          	sll	x14,x1,x2
    800003d8:	fff0039b          	addiw	x7,x0,-1
    800003dc:	03f39393          	slli	x7,x7,0x3f
    800003e0:	3a771263          	bne	x14,x7,80000784 <fail>

00000000800003e4 <test_51>:
    800003e4:	03300193          	li	x3,51
    800003e8:	fff00093          	li	x1,-1
    800003ec:	02700113          	li	x2,39
    800003f0:	00209733          	sll	x14,x1,x2
    800003f4:	fff0039b          	addiw	x7,x0,-1
    800003f8:	02739393          	slli	x7,x7,0x27
    800003fc:	38771463          	bne	x14,x7,80000784 <fail>

0000000080000400 <test_52>:
    80000400:	03400193          	li	x3,52
    80000404:	212120b7          	lui	x1,0x21212
    80000408:	1210809b          	addiw	x1,x1,289
    8000040c:	02b00113          	li	x2,43
    80000410:	00209733          	sll	x14,x1,x2
    80000414:	000123b7          	lui	x7,0x12
    80000418:	1213839b          	addiw	x7,x7,289
    8000041c:	02b39393          	slli	x7,x7,0x2b
    80000420:	36771263          	bne	x14,x7,80000784 <fail>

0000000080000424 <test_22>:
    80000424:	01600193          	li	x3,22
    80000428:	00100093          	li	x1,1
    8000042c:	00700113          	li	x2,7
    80000430:	002090b3          	sll	x1,x1,x2
    80000434:	08000393          	li	x7,128
    80000438:	34709663          	bne	x1,x7,80000784 <fail>

000000008000043c <test_23>:
    8000043c:	01700193          	li	x3,23
    80000440:	00100093          	li	x1,1
    80000444:	00e00113          	li	x2,14
    80000448:	00209133          	sll	x2,x1,x2
    8000044c:	000043b7          	lui	x7,0x4
    80000450:	32711a63          	bne	x2,x7,80000784 <fail>

0000000080000454 <test_24>:
    80000454:	01800193          	li	x3,24
    80000458:	00300093          	li	x1,3
    8000045c:	001090b3          	sll	x1,x1,x1
    80000460:	01800393          	li	x7,24
    80000464:	32709063          	bne	x1,x7,80000784 <fail>

0000000080000468 <test_25>:
    80000468:	01900193          	li	x3,25
    8000046c:	00000213          	li	x4,0
    80000470:	00100093          	li	x1,1
    80000474:	00700113          	li	x2,7
    80000478:	00209733          	sll	x14,x1,x2
    8000047c:	00070313          	mv	x6,x14
    80000480:	00120213          	addi	x4,x4,1 # 1 <_start-0x7fffffff>
    80000484:	00200293          	li	x5,2
    80000488:	fe5214e3          	bne	x4,x5,80000470 <test_25+0x8>
    8000048c:	08000393          	li	x7,128
    80000490:	2e731a63          	bne	x6,x7,80000784 <fail>

0000000080000494 <test_26>:
    80000494:	01a00193          	li	x3,26
    80000498:	00000213          	li	x4,0
    8000049c:	00100093          	li	x1,1
    800004a0:	00e00113          	li	x2,14
    800004a4:	00209733          	sll	x14,x1,x2
    800004a8:	00000013          	nop
    800004ac:	00070313          	mv	x6,x14
    800004b0:	00120213          	addi	x4,x4,1 # 1 <_start-0x7fffffff>
    800004b4:	00200293          	li	x5,2
    800004b8:	fe5212e3          	bne	x4,x5,8000049c <test_26+0x8>
    800004bc:	000043b7          	lui	x7,0x4
    800004c0:	2c731263          	bne	x6,x7,80000784 <fail>

00000000800004c4 <test_27>:
    800004c4:	01b00193          	li	x3,27
    800004c8:	00000213          	li	x4,0
    800004cc:	00100093          	li	x1,1
    800004d0:	01f00113          	li	x2,31
    800004d4:	00209733          	sll	x14,x1,x2
    800004d8:	00000013          	nop
    800004dc:	00000013          	nop
    800004e0:	00070313          	mv	x6,x14
    800004e4:	00120213          	addi	x4,x4,1 # 1 <_start-0x7fffffff>
    800004e8:	00200293          	li	x5,2
    800004ec:	fe5210e3          	bne	x4,x5,800004cc <test_27+0x8>
    800004f0:	0010039b          	addiw	x7,x0,1
    800004f4:	01f39393          	slli	x7,x7,0x1f
    800004f8:	28731663          	bne	x6,x7,80000784 <fail>

00000000800004fc <test_28>:
    800004fc:	01c00193          	li	x3,28
    80000500:	00000213          	li	x4,0
    80000504:	00100093          	li	x1,1
    80000508:	00700113          	li	x2,7
    8000050c:	00209733          	sll	x14,x1,x2
    80000510:	00120213          	addi	x4,x4,1 # 1 <_start-0x7fffffff>
    80000514:	00200293          	li	x5,2
    80000518:	fe5216e3          	bne	x4,x5,80000504 <test_28+0x8>
    8000051c:	08000393          	li	x7,128
    80000520:	26771263          	bne	x14,x7,80000784 <fail>

0000000080000524 <test_29>:
    80000524:	01d00193          	li	x3,29
    80000528:	00000213          	li	x4,0
    8000052c:	00100093          	li	x1,1
    80000530:	00e00113          	li	x2,14
    80000534:	00000013          	nop
    80000538:	00209733          	sll	x14,x1,x2
    8000053c:	00120213          	addi	x4,x4,1 # 1 <_start-0x7fffffff>
    80000540:	00200293          	li	x5,2
    80000544:	fe5214e3          	bne	x4,x5,8000052c <test_29+0x8>
    80000548:	000043b7          	lui	x7,0x4
    8000054c:	22771c63          	bne	x14,x7,80000784 <fail>

0000000080000550 <test_30>:
    80000550:	01e00193          	li	x3,30
    80000554:	00000213          	li	x4,0
    80000558:	00100093          	li	x1,1
    8000055c:	01f00113          	li	x2,31
    80000560:	00000013          	nop
    80000564:	00000013          	nop
    80000568:	00209733          	sll	x14,x1,x2
    8000056c:	00120213          	addi	x4,x4,1 # 1 <_start-0x7fffffff>
    80000570:	00200293          	li	x5,2
    80000574:	fe5212e3          	bne	x4,x5,80000558 <test_30+0x8>
    80000578:	0010039b          	addiw	x7,x0,1
    8000057c:	01f39393          	slli	x7,x7,0x1f
    80000580:	20771263          	bne	x14,x7,80000784 <fail>

0000000080000584 <test_31>:
    80000584:	01f00193          	li	x3,31
    80000588:	00000213          	li	x4,0
    8000058c:	00100093          	li	x1,1
    80000590:	00000013          	nop
    80000594:	00700113          	li	x2,7
    80000598:	00209733          	sll	x14,x1,x2
    8000059c:	00120213          	addi	x4,x4,1 # 1 <_start-0x7fffffff>
    800005a0:	00200293          	li	x5,2
    800005a4:	fe5214e3          	bne	x4,x5,8000058c <test_31+0x8>
    800005a8:	08000393          	li	x7,128
    800005ac:	1c771c63          	bne	x14,x7,80000784 <fail>

00000000800005b0 <test_32>:
    800005b0:	02000193          	li	x3,32
    800005b4:	00000213          	li	x4,0
    800005b8:	00100093          	li	x1,1
    800005bc:	00000013          	nop
    800005c0:	00e00113          	li	x2,14
    800005c4:	00000013          	nop
    800005c8:	00209733          	sll	x14,x1,x2
    800005cc:	00120213          	addi	x4,x4,1 # 1 <_start-0x7fffffff>
    800005d0:	00200293          	li	x5,2
    800005d4:	fe5212e3          	bne	x4,x5,800005b8 <test_32+0x8>
    800005d8:	000043b7          	lui	x7,0x4
    800005dc:	1a771463          	bne	x14,x7,80000784 <fail>

00000000800005e0 <test_33>:
    800005e0:	02100193          	li	x3,33
    800005e4:	00000213          	li	x4,0
    800005e8:	00100093          	li	x1,1
    800005ec:	00000013          	nop
    800005f0:	00000013          	nop
    800005f4:	01f00113          	li	x2,31
    800005f8:	00209733          	sll	x14,x1,x2
    800005fc:	00120213          	addi	x4,x4,1 # 1 <_start-0x7fffffff>
    80000600:	00200293          	li	x5,2
    80000604:	fe5212e3          	bne	x4,x5,800005e8 <test_33+0x8>
    80000608:	0010039b          	addiw	x7,x0,1
    8000060c:	01f39393          	slli	x7,x7,0x1f
    80000610:	16771a63          	bne	x14,x7,80000784 <fail>

0000000080000614 <test_34>:
    80000614:	02200193          	li	x3,34
    80000618:	00000213          	li	x4,0
    8000061c:	00700113          	li	x2,7
    80000620:	00100093          	li	x1,1
    80000624:	00209733          	sll	x14,x1,x2
    80000628:	00120213          	addi	x4,x4,1 # 1 <_start-0x7fffffff>
    8000062c:	00200293          	li	x5,2
    80000630:	fe5216e3          	bne	x4,x5,8000061c <test_34+0x8>
    80000634:	08000393          	li	x7,128
    80000638:	14771663          	bne	x14,x7,80000784 <fail>

000000008000063c <test_35>:
    8000063c:	02300193          	li	x3,35
    80000640:	00000213          	li	x4,0
    80000644:	00e00113          	li	x2,14
    80000648:	00100093          	li	x1,1
    8000064c:	00000013          	nop
    80000650:	00209733          	sll	x14,x1,x2
    80000654:	00120213          	addi	x4,x4,1 # 1 <_start-0x7fffffff>
    80000658:	00200293          	li	x5,2
    8000065c:	fe5214e3          	bne	x4,x5,80000644 <test_35+0x8>
    80000660:	000043b7          	lui	x7,0x4
    80000664:	12771063          	bne	x14,x7,80000784 <fail>

0000000080000668 <test_36>:
    80000668:	02400193          	li	x3,36
    8000066c:	00000213          	li	x4,0
    80000670:	01f00113          	li	x2,31
    80000674:	00100093          	li	x1,1
    80000678:	00000013          	nop
    8000067c:	00000013          	nop
    80000680:	00209733          	sll	x14,x1,x2
    80000684:	00120213          	addi	x4,x4,1 # 1 <_start-0x7fffffff>
    80000688:	00200293          	li	x5,2
    8000068c:	fe5212e3          	bne	x4,x5,80000670 <test_36+0x8>
    80000690:	0010039b          	addiw	x7,x0,1
    80000694:	01f39393          	slli	x7,x7,0x1f
    80000698:	0e771663          	bne	x14,x7,80000784 <fail>

000000008000069c <test_37>:
    8000069c:	02500193          	li	x3,37
    800006a0:	00000213          	li	x4,0
    800006a4:	00700113          	li	x2,7
    800006a8:	00000013          	nop
    800006ac:	00100093          	li	x1,1
    800006b0:	00209733          	sll	x14,x1,x2
    800006b4:	00120213          	addi	x4,x4,1 # 1 <_start-0x7fffffff>
    800006b8:	00200293          	li	x5,2
    800006bc:	fe5214e3          	bne	x4,x5,800006a4 <test_37+0x8>
    800006c0:	08000393          	li	x7,128
    800006c4:	0c771063          	bne	x14,x7,80000784 <fail>

00000000800006c8 <test_38>:
    800006c8:	02600193          	li	x3,38
    800006cc:	00000213          	li	x4,0
    800006d0:	00e00113          	li	x2,14
    800006d4:	00000013          	nop
    800006d8:	00100093          	li	x1,1
    800006dc:	00000013          	nop
    800006e0:	00209733          	sll	x14,x1,x2
    800006e4:	00120213          	addi	x4,x4,1 # 1 <_start-0x7fffffff>
    800006e8:	00200293          	li	x5,2
    800006ec:	fe5212e3          	bne	x4,x5,800006d0 <test_38+0x8>
    800006f0:	000043b7          	lui	x7,0x4
    800006f4:	08771863          	bne	x14,x7,80000784 <fail>

00000000800006f8 <test_39>:
    800006f8:	02700193          	li	x3,39
    800006fc:	00000213          	li	x4,0
    80000700:	01f00113          	li	x2,31
    80000704:	00000013          	nop
    80000708:	00000013          	nop
    8000070c:	00100093          	li	x1,1
    80000710:	00209733          	sll	x14,x1,x2
    80000714:	00120213          	addi	x4,x4,1 # 1 <_start-0x7fffffff>
    80000718:	00200293          	li	x5,2
    8000071c:	fe5212e3          	bne	x4,x5,80000700 <test_39+0x8>
    80000720:	0010039b          	addiw	x7,x0,1
    80000724:	01f39393          	slli	x7,x7,0x1f
    80000728:	04771e63          	bne	x14,x7,80000784 <fail>

000000008000072c <test_40>:
    8000072c:	02800193          	li	x3,40
    80000730:	00f00093          	li	x1,15
    80000734:	00101133          	sll	x2,x0,x1
    80000738:	00000393          	li	x7,0
    8000073c:	04711463          	bne	x2,x7,80000784 <fail>

0000000080000740 <test_41>:
    80000740:	02900193          	li	x3,41
    80000744:	02000093          	li	x1,32
    80000748:	00009133          	sll	x2,x1,x0
    8000074c:	02000393          	li	x7,32
    80000750:	02711a63          	bne	x2,x7,80000784 <fail>

0000000080000754 <test_42>:
    80000754:	02a00193          	li	x3,42
    80000758:	000010b3          	sll	x1,x0,x0
    8000075c:	00000393          	li	x7,0
    80000760:	02709263          	bne	x1,x7,80000784 <fail>

0000000080000764 <test_43>:
    80000764:	02b00193          	li	x3,43
    80000768:	40000093          	li	x1,1024
    8000076c:	00001137          	lui	x2,0x1
    80000770:	8001011b          	addiw	x2,x2,-2048
    80000774:	00209033          	sll	x0,x1,x2
    80000778:	00000393          	li	x7,0
    8000077c:	00701463          	bne	x0,x7,80000784 <fail>
    80000780:	02301063          	bne	x0,x3,800007a0 <pass>

0000000080000784 <fail>:
    80000784:	0ff0000f          	fence
    80000788:	00018063          	beqz	x3,80000788 <fail+0x4>
    8000078c:	00119193          	slli	x3,x3,0x1
    80000790:	0011e193          	ori	x3,x3,1
    80000794:	05d00893          	li	x17,93
    80000798:	00018513          	mv	x10,x3
    8000079c:	00000073          	ecall

00000000800007a0 <pass>:
    800007a0:	0ff0000f          	fence
    800007a4:	00100193          	li	x3,1
    800007a8:	05d00893          	li	x17,93
    800007ac:	00000513          	li	x10,0
    800007b0:	00000073          	ecall
    800007b4:	c0001073          	unimp
    800007b8:	0000                	unimp
    800007ba:	0000                	unimp
