
rv64ui-p-simple:     file format elf64-littleriscv


Disassembly of section .text:

0000000040000000 <_start>:
    40000000:	0480006f          	j	40000048 <reset_vector>

0000000040000004 <trap_vector>:
    40000004:	34202f73          	csrr	x30,mcause
    40000008:	00800f93          	li	x31,8
    4000000c:	03ff0863          	beq	x30,x31,4000003c <write_tohost>
    40000010:	00900f93          	li	x31,9
    40000014:	03ff0463          	beq	x30,x31,4000003c <write_tohost>
    40000018:	00b00f93          	li	x31,11
    4000001c:	03ff0063          	beq	x30,x31,4000003c <write_tohost>
    40000020:	00000f13          	li	x30,0
    40000024:	000f0463          	beqz	x30,4000002c <trap_vector+0x28>
    40000028:	000f0067          	jr	x30
    4000002c:	34202f73          	csrr	x30,mcause
    40000030:	000f5463          	bgez	x30,40000038 <handle_exception>
    40000034:	0040006f          	j	40000038 <handle_exception>

0000000040000038 <handle_exception>:
    40000038:	5391e193          	ori	x3,x3,1337

000000004000003c <write_tohost>:
    4000003c:	00000f17          	auipc	x30,0x0
    40000040:	183f2223          	sw	x3,388(x30) # 400001c0 <begin_signature>
    40000044:	ff9ff06f          	j	4000003c <write_tohost>

0000000040000048 <reset_vector>:
    40000048:	00000093          	li	x1,0
    4000004c:	00000113          	li	x2,0
    40000050:	00000193          	li	x3,0
    40000054:	00000213          	li	x4,0
    40000058:	00000293          	li	x5,0
    4000005c:	00000313          	li	x6,0
    40000060:	00000393          	li	x7,0
    40000064:	00000413          	li	x8,0
    40000068:	00000493          	li	x9,0
    4000006c:	00000513          	li	x10,0
    40000070:	00000593          	li	x11,0
    40000074:	00000613          	li	x12,0
    40000078:	00000693          	li	x13,0
    4000007c:	00000713          	li	x14,0
    40000080:	00000793          	li	x15,0
    40000084:	00000813          	li	x16,0
    40000088:	00000893          	li	x17,0
    4000008c:	00000913          	li	x18,0
    40000090:	00000993          	li	x19,0
    40000094:	00000a13          	li	x20,0
    40000098:	00000a93          	li	x21,0
    4000009c:	00000b13          	li	x22,0
    400000a0:	00000b93          	li	x23,0
    400000a4:	00000c13          	li	x24,0
    400000a8:	00000c93          	li	x25,0
    400000ac:	00000d13          	li	x26,0
    400000b0:	00000d93          	li	x27,0
    400000b4:	00000e13          	li	x28,0
    400000b8:	00000e93          	li	x29,0
    400000bc:	00000f13          	li	x30,0
    400000c0:	00000f93          	li	x31,0
    400000c4:	f1402573          	csrr	x10,mhartid
    400000c8:	00051063          	bnez	x10,400000c8 <reset_vector+0x80>
    400000cc:	00000297          	auipc	x5,0x0
    400000d0:	01028293          	addi	x5,x5,16 # 400000dc <reset_vector+0x94>
    400000d4:	30529073          	csrw	mtvec,x5
    400000d8:	18005073          	csrwi	satp,0
    400000dc:	00000297          	auipc	x5,0x0
    400000e0:	02428293          	addi	x5,x5,36 # 40000100 <reset_vector+0xb8>
    400000e4:	30529073          	csrw	mtvec,x5
    400000e8:	0010029b          	addiw	x5,x0,1
    400000ec:	03529293          	slli	x5,x5,0x35
    400000f0:	fff28293          	addi	x5,x5,-1
    400000f4:	3b029073          	csrw	pmpaddr0,x5
    400000f8:	01f00293          	li	x5,31
    400000fc:	3a029073          	csrw	pmpcfg0,x5
    40000100:	30405073          	csrwi	mie,0
    40000104:	00000297          	auipc	x5,0x0
    40000108:	01428293          	addi	x5,x5,20 # 40000118 <reset_vector+0xd0>
    4000010c:	30529073          	csrw	mtvec,x5
    40000110:	30205073          	csrwi	medeleg,0
    40000114:	30305073          	csrwi	mideleg,0
    40000118:	00000193          	li	x3,0
    4000011c:	00000297          	auipc	x5,0x0
    40000120:	ee828293          	addi	x5,x5,-280 # 40000004 <trap_vector>
    40000124:	30529073          	csrw	mtvec,x5
    40000128:	00100513          	li	x10,1
    4000012c:	01f51513          	slli	x10,x10,0x1f
    40000130:	00055c63          	bgez	x10,40000148 <reset_vector+0x100>
    40000134:	0ff0000f          	fence
    40000138:	00100193          	li	x3,1
    4000013c:	05d00893          	li	x17,93
    40000140:	00000513          	li	x10,0
    40000144:	00000073          	ecall
    40000148:	00000293          	li	x5,0
    4000014c:	00028a63          	beqz	x5,40000160 <reset_vector+0x118>
    40000150:	10529073          	csrw	stvec,x5
    40000154:	0000b2b7          	lui	x5,0xb
    40000158:	1092829b          	addiw	x5,x5,265 # b109 <_start-0x3fff4ef7>
    4000015c:	30229073          	csrw	medeleg,x5
    40000160:	30005073          	csrwi	mstatus,0
    40000164:	00000297          	auipc	x5,0x0
    40000168:	01428293          	addi	x5,x5,20 # 40000178 <reset_vector+0x130>
    4000016c:	34129073          	csrw	mepc,x5
    40000170:	f1402573          	csrr	x10,mhartid
    40000174:	30200073          	mret
    40000178:	0ff0000f          	fence
    4000017c:	00100193          	li	x3,1
    40000180:	05d00893          	li	x17,93
    40000184:	00000513          	li	x10,0
    40000188:	00000073          	ecall
    4000018c:	c0001073          	unimp
    40000190:	0000                	.2byte	0x0
    40000192:	0000                	.2byte	0x0
    40000194:	0000                	.2byte	0x0
    40000196:	0000                	.2byte	0x0
    40000198:	0000                	.2byte	0x0
    4000019a:	0000                	.2byte	0x0
    4000019c:	0000                	.2byte	0x0
    4000019e:	0000                	.2byte	0x0
    400001a0:	0000                	.2byte	0x0
    400001a2:	0000                	.2byte	0x0
    400001a4:	0000                	.2byte	0x0
    400001a6:	0000                	.2byte	0x0
    400001a8:	0000                	.2byte	0x0
    400001aa:	0000                	.2byte	0x0
    400001ac:	0000                	.2byte	0x0
    400001ae:	0000                	.2byte	0x0
    400001b0:	0000                	.2byte	0x0
    400001b2:	0000                	.2byte	0x0
    400001b4:	0000                	.2byte	0x0
    400001b6:	0000                	.2byte	0x0
    400001b8:	0000                	.2byte	0x0
    400001ba:	0000                	.2byte	0x0
