
rv64ui-p-sh:     file format elf64-littleriscv


Disassembly of section .text:

0000000040000000 <_start>:
    40000000:	0480006f          	j	40000048 <reset_vector>

0000000040000004 <trap_vector>:
    40000004:	34202f73          	csrr	x30,mcause
    40000008:	00800f93          	li	x31,8
    4000000c:	03ff0863          	beq	x30,x31,4000003c <write_tohost>
    40000010:	00900f93          	li	x31,9
    40000014:	03ff0463          	beq	x30,x31,4000003c <write_tohost>
    40000018:	00b00f93          	li	x31,11
    4000001c:	03ff0063          	beq	x30,x31,4000003c <write_tohost>
    40000020:	00000f13          	li	x30,0
    40000024:	000f0463          	beqz	x30,4000002c <trap_vector+0x28>
    40000028:	000f0067          	jr	x30
    4000002c:	34202f73          	csrr	x30,mcause
    40000030:	000f5463          	bgez	x30,40000038 <handle_exception>
    40000034:	0040006f          	j	40000038 <handle_exception>

0000000040000038 <handle_exception>:
    40000038:	5391e193          	ori	x3,x3,1337

000000004000003c <write_tohost>:
    4000003c:	00000f17          	auipc	x30,0x0
    40000040:	6c3f2223          	sw	x3,1732(x30) # 40000700 <tohost>
    40000044:	ff9ff06f          	j	4000003c <write_tohost>

0000000040000048 <reset_vector>:
    40000048:	00000093          	li	x1,0
    4000004c:	00000113          	li	x2,0
    40000050:	00000193          	li	x3,0
    40000054:	00000213          	li	x4,0
    40000058:	00000293          	li	x5,0
    4000005c:	00000313          	li	x6,0
    40000060:	00000393          	li	x7,0
    40000064:	00000413          	li	x8,0
    40000068:	00000493          	li	x9,0
    4000006c:	00000513          	li	x10,0
    40000070:	00000593          	li	x11,0
    40000074:	00000613          	li	x12,0
    40000078:	00000693          	li	x13,0
    4000007c:	00000713          	li	x14,0
    40000080:	00000793          	li	x15,0
    40000084:	00000813          	li	x16,0
    40000088:	00000893          	li	x17,0
    4000008c:	00000913          	li	x18,0
    40000090:	00000993          	li	x19,0
    40000094:	00000a13          	li	x20,0
    40000098:	00000a93          	li	x21,0
    4000009c:	00000b13          	li	x22,0
    400000a0:	00000b93          	li	x23,0
    400000a4:	00000c13          	li	x24,0
    400000a8:	00000c93          	li	x25,0
    400000ac:	00000d13          	li	x26,0
    400000b0:	00000d93          	li	x27,0
    400000b4:	00000e13          	li	x28,0
    400000b8:	00000e93          	li	x29,0
    400000bc:	00000f13          	li	x30,0
    400000c0:	00000f93          	li	x31,0
    400000c4:	f1402573          	csrr	x10,mhartid
    400000c8:	00051063          	bnez	x10,400000c8 <reset_vector+0x80>
    400000cc:	00000297          	auipc	x5,0x0
    400000d0:	01028293          	addi	x5,x5,16 # 400000dc <reset_vector+0x94>
    400000d4:	30529073          	csrw	mtvec,x5
    400000d8:	18005073          	csrwi	satp,0
    400000dc:	00000297          	auipc	x5,0x0
    400000e0:	02428293          	addi	x5,x5,36 # 40000100 <reset_vector+0xb8>
    400000e4:	30529073          	csrw	mtvec,x5
    400000e8:	0010029b          	addiw	x5,x0,1
    400000ec:	03529293          	slli	x5,x5,0x35
    400000f0:	fff28293          	addi	x5,x5,-1
    400000f4:	3b029073          	csrw	pmpaddr0,x5
    400000f8:	01f00293          	li	x5,31
    400000fc:	3a029073          	csrw	pmpcfg0,x5
    40000100:	30405073          	csrwi	mie,0
    40000104:	00000297          	auipc	x5,0x0
    40000108:	01428293          	addi	x5,x5,20 # 40000118 <reset_vector+0xd0>
    4000010c:	30529073          	csrw	mtvec,x5
    40000110:	30205073          	csrwi	medeleg,0
    40000114:	30305073          	csrwi	mideleg,0
    40000118:	00000193          	li	x3,0
    4000011c:	00000297          	auipc	x5,0x0
    40000120:	ee828293          	addi	x5,x5,-280 # 40000004 <trap_vector>
    40000124:	30529073          	csrw	mtvec,x5
    40000128:	00100513          	li	x10,1
    4000012c:	01f51513          	slli	x10,x10,0x1f
    40000130:	00055c63          	bgez	x10,40000148 <reset_vector+0x100>
    40000134:	0ff0000f          	fence
    40000138:	00100193          	li	x3,1
    4000013c:	05d00893          	li	x17,93
    40000140:	00000513          	li	x10,0
    40000144:	00000073          	ecall
    40000148:	00000293          	li	x5,0
    4000014c:	00028a63          	beqz	x5,40000160 <reset_vector+0x118>
    40000150:	10529073          	csrw	stvec,x5
    40000154:	0000b2b7          	lui	x5,0xb
    40000158:	1092829b          	addiw	x5,x5,265 # b109 <_start-0x3fff4ef7>
    4000015c:	30229073          	csrw	medeleg,x5
    40000160:	30005073          	csrwi	mstatus,0
    40000164:	00000297          	auipc	x5,0x0
    40000168:	01428293          	addi	x5,x5,20 # 40000178 <test_2>
    4000016c:	34129073          	csrw	mepc,x5
    40000170:	f1402573          	csrr	x10,mhartid
    40000174:	30200073          	mret

0000000040000178 <test_2>:
    40000178:	00200193          	li	x3,2
    4000017c:	00000097          	auipc	x1,0x0
    40000180:	54408093          	addi	x1,x1,1348 # 400006c0 <begin_signature>
    40000184:	0aa00113          	li	x2,170
    40000188:	00000797          	auipc	x15,0x0
    4000018c:	01478793          	addi	x15,x15,20 # 4000019c <test_2+0x24>
    40000190:	00209023          	sh	x2,0(x1)
    40000194:	00009703          	lh	x14,0(x1)
    40000198:	0080006f          	j	400001a0 <test_2+0x28>
    4000019c:	00010713          	mv	x14,x2
    400001a0:	0aa00393          	li	x7,170
    400001a4:	4c771663          	bne	x14,x7,40000670 <fail>

00000000400001a8 <test_3>:
    400001a8:	00300193          	li	x3,3
    400001ac:	00000097          	auipc	x1,0x0
    400001b0:	51408093          	addi	x1,x1,1300 # 400006c0 <begin_signature>
    400001b4:	ffffb137          	lui	x2,0xffffb
    400001b8:	a001011b          	addiw	x2,x2,-1536 # ffffffffffffaa00 <fromhost+0xffffffffbfffa2c0>
    400001bc:	00000797          	auipc	x15,0x0
    400001c0:	01478793          	addi	x15,x15,20 # 400001d0 <test_3+0x28>
    400001c4:	00209123          	sh	x2,2(x1)
    400001c8:	00209703          	lh	x14,2(x1)
    400001cc:	0080006f          	j	400001d4 <test_3+0x2c>
    400001d0:	00010713          	mv	x14,x2
    400001d4:	ffffb3b7          	lui	x7,0xffffb
    400001d8:	a003839b          	addiw	x7,x7,-1536 # ffffffffffffaa00 <fromhost+0xffffffffbfffa2c0>
    400001dc:	48771a63          	bne	x14,x7,40000670 <fail>

00000000400001e0 <test_4>:
    400001e0:	00400193          	li	x3,4
    400001e4:	00000097          	auipc	x1,0x0
    400001e8:	4dc08093          	addi	x1,x1,1244 # 400006c0 <begin_signature>
    400001ec:	beef1137          	lui	x2,0xbeef1
    400001f0:	aa01011b          	addiw	x2,x2,-1376 # ffffffffbeef0aa0 <fromhost+0xffffffff7eef0360>
    400001f4:	00000797          	auipc	x15,0x0
    400001f8:	01478793          	addi	x15,x15,20 # 40000208 <test_4+0x28>
    400001fc:	00209223          	sh	x2,4(x1)
    40000200:	0040a703          	lw	x14,4(x1)
    40000204:	0080006f          	j	4000020c <test_4+0x2c>
    40000208:	00010713          	mv	x14,x2
    4000020c:	beef13b7          	lui	x7,0xbeef1
    40000210:	aa03839b          	addiw	x7,x7,-1376 # ffffffffbeef0aa0 <fromhost+0xffffffff7eef0360>
    40000214:	44771e63          	bne	x14,x7,40000670 <fail>

0000000040000218 <test_5>:
    40000218:	00500193          	li	x3,5
    4000021c:	00000097          	auipc	x1,0x0
    40000220:	4a408093          	addi	x1,x1,1188 # 400006c0 <begin_signature>
    40000224:	ffffa137          	lui	x2,0xffffa
    40000228:	00a1011b          	addiw	x2,x2,10 # ffffffffffffa00a <fromhost+0xffffffffbfff98ca>
    4000022c:	00000797          	auipc	x15,0x0
    40000230:	01478793          	addi	x15,x15,20 # 40000240 <test_5+0x28>
    40000234:	00209323          	sh	x2,6(x1)
    40000238:	00609703          	lh	x14,6(x1)
    4000023c:	0080006f          	j	40000244 <test_5+0x2c>
    40000240:	00010713          	mv	x14,x2
    40000244:	ffffa3b7          	lui	x7,0xffffa
    40000248:	00a3839b          	addiw	x7,x7,10 # ffffffffffffa00a <fromhost+0xffffffffbfff98ca>
    4000024c:	42771263          	bne	x14,x7,40000670 <fail>

0000000040000250 <test_6>:
    40000250:	00600193          	li	x3,6
    40000254:	00000097          	auipc	x1,0x0
    40000258:	47a08093          	addi	x1,x1,1146 # 400006ce <tdat8>
    4000025c:	0aa00113          	li	x2,170
    40000260:	00000797          	auipc	x15,0x0
    40000264:	01478793          	addi	x15,x15,20 # 40000274 <test_6+0x24>
    40000268:	fe209d23          	sh	x2,-6(x1)
    4000026c:	ffa09703          	lh	x14,-6(x1)
    40000270:	0080006f          	j	40000278 <test_6+0x28>
    40000274:	00010713          	mv	x14,x2
    40000278:	0aa00393          	li	x7,170
    4000027c:	3e771a63          	bne	x14,x7,40000670 <fail>

0000000040000280 <test_7>:
    40000280:	00700193          	li	x3,7
    40000284:	00000097          	auipc	x1,0x0
    40000288:	44a08093          	addi	x1,x1,1098 # 400006ce <tdat8>
    4000028c:	ffffb137          	lui	x2,0xffffb
    40000290:	a001011b          	addiw	x2,x2,-1536 # ffffffffffffaa00 <fromhost+0xffffffffbfffa2c0>
    40000294:	00000797          	auipc	x15,0x0
    40000298:	01478793          	addi	x15,x15,20 # 400002a8 <test_7+0x28>
    4000029c:	fe209e23          	sh	x2,-4(x1)
    400002a0:	ffc09703          	lh	x14,-4(x1)
    400002a4:	0080006f          	j	400002ac <test_7+0x2c>
    400002a8:	00010713          	mv	x14,x2
    400002ac:	ffffb3b7          	lui	x7,0xffffb
    400002b0:	a003839b          	addiw	x7,x7,-1536 # ffffffffffffaa00 <fromhost+0xffffffffbfffa2c0>
    400002b4:	3a771e63          	bne	x14,x7,40000670 <fail>

00000000400002b8 <test_8>:
    400002b8:	00800193          	li	x3,8
    400002bc:	00000097          	auipc	x1,0x0
    400002c0:	41208093          	addi	x1,x1,1042 # 400006ce <tdat8>
    400002c4:	00001137          	lui	x2,0x1
    400002c8:	aa01011b          	addiw	x2,x2,-1376 # aa0 <_start-0x3ffff560>
    400002cc:	00000797          	auipc	x15,0x0
    400002d0:	01478793          	addi	x15,x15,20 # 400002e0 <test_8+0x28>
    400002d4:	fe209f23          	sh	x2,-2(x1)
    400002d8:	ffe09703          	lh	x14,-2(x1)
    400002dc:	0080006f          	j	400002e4 <test_8+0x2c>
    400002e0:	00010713          	mv	x14,x2
    400002e4:	000013b7          	lui	x7,0x1
    400002e8:	aa03839b          	addiw	x7,x7,-1376 # aa0 <_start-0x3ffff560>
    400002ec:	38771263          	bne	x14,x7,40000670 <fail>

00000000400002f0 <test_9>:
    400002f0:	00900193          	li	x3,9
    400002f4:	00000097          	auipc	x1,0x0
    400002f8:	3da08093          	addi	x1,x1,986 # 400006ce <tdat8>
    400002fc:	ffffa137          	lui	x2,0xffffa
    40000300:	00a1011b          	addiw	x2,x2,10 # ffffffffffffa00a <fromhost+0xffffffffbfff98ca>
    40000304:	00000797          	auipc	x15,0x0
    40000308:	01478793          	addi	x15,x15,20 # 40000318 <test_9+0x28>
    4000030c:	00209023          	sh	x2,0(x1)
    40000310:	00009703          	lh	x14,0(x1)
    40000314:	0080006f          	j	4000031c <test_9+0x2c>
    40000318:	00010713          	mv	x14,x2
    4000031c:	ffffa3b7          	lui	x7,0xffffa
    40000320:	00a3839b          	addiw	x7,x7,10 # ffffffffffffa00a <fromhost+0xffffffffbfff98ca>
    40000324:	34771663          	bne	x14,x7,40000670 <fail>

0000000040000328 <test_10>:
    40000328:	00a00193          	li	x3,10
    4000032c:	00000097          	auipc	x1,0x0
    40000330:	3a408093          	addi	x1,x1,932 # 400006d0 <tdat9>
    40000334:	12345137          	lui	x2,0x12345
    40000338:	6781011b          	addiw	x2,x2,1656 # 12345678 <_start-0x2dcba988>
    4000033c:	fe008213          	addi	x4,x1,-32
    40000340:	02221023          	sh	x2,32(x4) # 20 <_start-0x3fffffe0>
    40000344:	00009283          	lh	x5,0(x1)
    40000348:	000053b7          	lui	x7,0x5
    4000034c:	6783839b          	addiw	x7,x7,1656 # 5678 <_start-0x3fffa988>
    40000350:	32729063          	bne	x5,x7,40000670 <fail>

0000000040000354 <test_11>:
    40000354:	00b00193          	li	x3,11
    40000358:	00000097          	auipc	x1,0x0
    4000035c:	37808093          	addi	x1,x1,888 # 400006d0 <tdat9>
    40000360:	00003137          	lui	x2,0x3
    40000364:	0981011b          	addiw	x2,x2,152 # 3098 <_start-0x3fffcf68>
    40000368:	ffb08093          	addi	x1,x1,-5
    4000036c:	002093a3          	sh	x2,7(x1)
    40000370:	00000217          	auipc	x4,0x0
    40000374:	36220213          	addi	x4,x4,866 # 400006d2 <tdat10>
    40000378:	00021283          	lh	x5,0(x4) # 0 <_start-0x40000000>
    4000037c:	000033b7          	lui	x7,0x3
    40000380:	0983839b          	addiw	x7,x7,152 # 3098 <_start-0x3fffcf68>
    40000384:	2e729663          	bne	x5,x7,40000670 <fail>

0000000040000388 <test_12>:
    40000388:	00c00193          	li	x3,12
    4000038c:	00000213          	li	x4,0
    40000390:	ffffd0b7          	lui	x1,0xffffd
    40000394:	cdd0809b          	addiw	x1,x1,-803 # ffffffffffffccdd <fromhost+0xffffffffbfffc59d>
    40000398:	00000117          	auipc	x2,0x0
    4000039c:	32810113          	addi	x2,x2,808 # 400006c0 <begin_signature>
    400003a0:	00111023          	sh	x1,0(x2)
    400003a4:	00011703          	lh	x14,0(x2)
    400003a8:	ffffd3b7          	lui	x7,0xffffd
    400003ac:	cdd3839b          	addiw	x7,x7,-803 # ffffffffffffccdd <fromhost+0xffffffffbfffc59d>
    400003b0:	2c771063          	bne	x14,x7,40000670 <fail>
    400003b4:	00120213          	addi	x4,x4,1 # 1 <_start-0x3fffffff>
    400003b8:	00200293          	li	x5,2
    400003bc:	fc521ae3          	bne	x4,x5,40000390 <test_12+0x8>

00000000400003c0 <test_13>:
    400003c0:	00d00193          	li	x3,13
    400003c4:	00000213          	li	x4,0
    400003c8:	ffffc0b7          	lui	x1,0xffffc
    400003cc:	ccd0809b          	addiw	x1,x1,-819 # ffffffffffffbccd <fromhost+0xffffffffbfffb58d>
    400003d0:	00000117          	auipc	x2,0x0
    400003d4:	2f010113          	addi	x2,x2,752 # 400006c0 <begin_signature>
    400003d8:	00000013          	nop
    400003dc:	00111123          	sh	x1,2(x2)
    400003e0:	00211703          	lh	x14,2(x2)
    400003e4:	ffffc3b7          	lui	x7,0xffffc
    400003e8:	ccd3839b          	addiw	x7,x7,-819 # ffffffffffffbccd <fromhost+0xffffffffbfffb58d>
    400003ec:	28771263          	bne	x14,x7,40000670 <fail>
    400003f0:	00120213          	addi	x4,x4,1 # 1 <_start-0x3fffffff>
    400003f4:	00200293          	li	x5,2
    400003f8:	fc5218e3          	bne	x4,x5,400003c8 <test_13+0x8>

00000000400003fc <test_14>:
    400003fc:	00e00193          	li	x3,14
    40000400:	00000213          	li	x4,0
    40000404:	ffffc0b7          	lui	x1,0xffffc
    40000408:	bcc0809b          	addiw	x1,x1,-1076 # ffffffffffffbbcc <fromhost+0xffffffffbfffb48c>
    4000040c:	00000117          	auipc	x2,0x0
    40000410:	2b410113          	addi	x2,x2,692 # 400006c0 <begin_signature>
    40000414:	00000013          	nop
    40000418:	00000013          	nop
    4000041c:	00111223          	sh	x1,4(x2)
    40000420:	00411703          	lh	x14,4(x2)
    40000424:	ffffc3b7          	lui	x7,0xffffc
    40000428:	bcc3839b          	addiw	x7,x7,-1076 # ffffffffffffbbcc <fromhost+0xffffffffbfffb48c>
    4000042c:	24771263          	bne	x14,x7,40000670 <fail>
    40000430:	00120213          	addi	x4,x4,1 # 1 <_start-0x3fffffff>
    40000434:	00200293          	li	x5,2
    40000438:	fc5216e3          	bne	x4,x5,40000404 <test_14+0x8>

000000004000043c <test_15>:
    4000043c:	00f00193          	li	x3,15
    40000440:	00000213          	li	x4,0
    40000444:	ffffb0b7          	lui	x1,0xffffb
    40000448:	bbc0809b          	addiw	x1,x1,-1092 # ffffffffffffabbc <fromhost+0xffffffffbfffa47c>
    4000044c:	00000013          	nop
    40000450:	00000117          	auipc	x2,0x0
    40000454:	27010113          	addi	x2,x2,624 # 400006c0 <begin_signature>
    40000458:	00111323          	sh	x1,6(x2)
    4000045c:	00611703          	lh	x14,6(x2)
    40000460:	ffffb3b7          	lui	x7,0xffffb
    40000464:	bbc3839b          	addiw	x7,x7,-1092 # ffffffffffffabbc <fromhost+0xffffffffbfffa47c>
    40000468:	20771463          	bne	x14,x7,40000670 <fail>
    4000046c:	00120213          	addi	x4,x4,1 # 1 <_start-0x3fffffff>
    40000470:	00200293          	li	x5,2
    40000474:	fc5218e3          	bne	x4,x5,40000444 <test_15+0x8>

0000000040000478 <test_16>:
    40000478:	01000193          	li	x3,16
    4000047c:	00000213          	li	x4,0
    40000480:	ffffb0b7          	lui	x1,0xffffb
    40000484:	abb0809b          	addiw	x1,x1,-1349 # ffffffffffffaabb <fromhost+0xffffffffbfffa37b>
    40000488:	00000013          	nop
    4000048c:	00000117          	auipc	x2,0x0
    40000490:	23410113          	addi	x2,x2,564 # 400006c0 <begin_signature>
    40000494:	00000013          	nop
    40000498:	00111423          	sh	x1,8(x2)
    4000049c:	00811703          	lh	x14,8(x2)
    400004a0:	ffffb3b7          	lui	x7,0xffffb
    400004a4:	abb3839b          	addiw	x7,x7,-1349 # ffffffffffffaabb <fromhost+0xffffffffbfffa37b>
    400004a8:	1c771463          	bne	x14,x7,40000670 <fail>
    400004ac:	00120213          	addi	x4,x4,1 # 1 <_start-0x3fffffff>
    400004b0:	00200293          	li	x5,2
    400004b4:	fc5216e3          	bne	x4,x5,40000480 <test_16+0x8>

00000000400004b8 <test_17>:
    400004b8:	01100193          	li	x3,17
    400004bc:	00000213          	li	x4,0
    400004c0:	ffffe0b7          	lui	x1,0xffffe
    400004c4:	aab0809b          	addiw	x1,x1,-1365 # ffffffffffffdaab <fromhost+0xffffffffbfffd36b>
    400004c8:	00000013          	nop
    400004cc:	00000013          	nop
    400004d0:	00000117          	auipc	x2,0x0
    400004d4:	1f010113          	addi	x2,x2,496 # 400006c0 <begin_signature>
    400004d8:	00111523          	sh	x1,10(x2)
    400004dc:	00a11703          	lh	x14,10(x2)
    400004e0:	ffffe3b7          	lui	x7,0xffffe
    400004e4:	aab3839b          	addiw	x7,x7,-1365 # ffffffffffffdaab <fromhost+0xffffffffbfffd36b>
    400004e8:	18771463          	bne	x14,x7,40000670 <fail>
    400004ec:	00120213          	addi	x4,x4,1 # 1 <_start-0x3fffffff>
    400004f0:	00200293          	li	x5,2
    400004f4:	fc5216e3          	bne	x4,x5,400004c0 <test_17+0x8>

00000000400004f8 <test_18>:
    400004f8:	01200193          	li	x3,18
    400004fc:	00000213          	li	x4,0
    40000500:	00000117          	auipc	x2,0x0
    40000504:	1c010113          	addi	x2,x2,448 # 400006c0 <begin_signature>
    40000508:	000020b7          	lui	x1,0x2
    4000050c:	2330809b          	addiw	x1,x1,563 # 2233 <_start-0x3fffddcd>
    40000510:	00111023          	sh	x1,0(x2)
    40000514:	00011703          	lh	x14,0(x2)
    40000518:	000023b7          	lui	x7,0x2
    4000051c:	2333839b          	addiw	x7,x7,563 # 2233 <_start-0x3fffddcd>
    40000520:	14771863          	bne	x14,x7,40000670 <fail>
    40000524:	00120213          	addi	x4,x4,1 # 1 <_start-0x3fffffff>
    40000528:	00200293          	li	x5,2
    4000052c:	fc521ae3          	bne	x4,x5,40000500 <test_18+0x8>

0000000040000530 <test_19>:
    40000530:	01300193          	li	x3,19
    40000534:	00000213          	li	x4,0
    40000538:	00000117          	auipc	x2,0x0
    4000053c:	18810113          	addi	x2,x2,392 # 400006c0 <begin_signature>
    40000540:	000010b7          	lui	x1,0x1
    40000544:	2230809b          	addiw	x1,x1,547 # 1223 <_start-0x3fffeddd>
    40000548:	00000013          	nop
    4000054c:	00111123          	sh	x1,2(x2)
    40000550:	00211703          	lh	x14,2(x2)
    40000554:	000013b7          	lui	x7,0x1
    40000558:	2233839b          	addiw	x7,x7,547 # 1223 <_start-0x3fffeddd>
    4000055c:	10771a63          	bne	x14,x7,40000670 <fail>
    40000560:	00120213          	addi	x4,x4,1 # 1 <_start-0x3fffffff>
    40000564:	00200293          	li	x5,2
    40000568:	fc5218e3          	bne	x4,x5,40000538 <test_19+0x8>

000000004000056c <test_20>:
    4000056c:	01400193          	li	x3,20
    40000570:	00000213          	li	x4,0
    40000574:	00000117          	auipc	x2,0x0
    40000578:	14c10113          	addi	x2,x2,332 # 400006c0 <begin_signature>
    4000057c:	000010b7          	lui	x1,0x1
    40000580:	1220809b          	addiw	x1,x1,290 # 1122 <_start-0x3fffeede>
    40000584:	00000013          	nop
    40000588:	00000013          	nop
    4000058c:	00111223          	sh	x1,4(x2)
    40000590:	00411703          	lh	x14,4(x2)
    40000594:	000013b7          	lui	x7,0x1
    40000598:	1223839b          	addiw	x7,x7,290 # 1122 <_start-0x3fffeede>
    4000059c:	0c771a63          	bne	x14,x7,40000670 <fail>
    400005a0:	00120213          	addi	x4,x4,1 # 1 <_start-0x3fffffff>
    400005a4:	00200293          	li	x5,2
    400005a8:	fc5216e3          	bne	x4,x5,40000574 <test_20+0x8>

00000000400005ac <test_21>:
    400005ac:	01500193          	li	x3,21
    400005b0:	00000213          	li	x4,0
    400005b4:	00000117          	auipc	x2,0x0
    400005b8:	10c10113          	addi	x2,x2,268 # 400006c0 <begin_signature>
    400005bc:	00000013          	nop
    400005c0:	11200093          	li	x1,274
    400005c4:	00111323          	sh	x1,6(x2)
    400005c8:	00611703          	lh	x14,6(x2)
    400005cc:	11200393          	li	x7,274
    400005d0:	0a771063          	bne	x14,x7,40000670 <fail>
    400005d4:	00120213          	addi	x4,x4,1 # 1 <_start-0x3fffffff>
    400005d8:	00200293          	li	x5,2
    400005dc:	fc521ce3          	bne	x4,x5,400005b4 <test_21+0x8>

00000000400005e0 <test_22>:
    400005e0:	01600193          	li	x3,22
    400005e4:	00000213          	li	x4,0
    400005e8:	00000117          	auipc	x2,0x0
    400005ec:	0d810113          	addi	x2,x2,216 # 400006c0 <begin_signature>
    400005f0:	00000013          	nop
    400005f4:	01100093          	li	x1,17
    400005f8:	00000013          	nop
    400005fc:	00111423          	sh	x1,8(x2)
    40000600:	00811703          	lh	x14,8(x2)
    40000604:	01100393          	li	x7,17
    40000608:	06771463          	bne	x14,x7,40000670 <fail>
    4000060c:	00120213          	addi	x4,x4,1 # 1 <_start-0x3fffffff>
    40000610:	00200293          	li	x5,2
    40000614:	fc521ae3          	bne	x4,x5,400005e8 <test_22+0x8>

0000000040000618 <test_23>:
    40000618:	01700193          	li	x3,23
    4000061c:	00000213          	li	x4,0
    40000620:	00000117          	auipc	x2,0x0
    40000624:	0a010113          	addi	x2,x2,160 # 400006c0 <begin_signature>
    40000628:	00000013          	nop
    4000062c:	00000013          	nop
    40000630:	000030b7          	lui	x1,0x3
    40000634:	0010809b          	addiw	x1,x1,1 # 3001 <_start-0x3fffcfff>
    40000638:	00111523          	sh	x1,10(x2)
    4000063c:	00a11703          	lh	x14,10(x2)
    40000640:	000033b7          	lui	x7,0x3
    40000644:	0013839b          	addiw	x7,x7,1 # 3001 <_start-0x3fffcfff>
    40000648:	02771463          	bne	x14,x7,40000670 <fail>
    4000064c:	00120213          	addi	x4,x4,1 # 1 <_start-0x3fffffff>
    40000650:	00200293          	li	x5,2
    40000654:	fc5216e3          	bne	x4,x5,40000620 <test_23+0x8>
    40000658:	0000c537          	lui	x10,0xc
    4000065c:	eef5051b          	addiw	x10,x10,-273 # beef <_start-0x3fff4111>
    40000660:	00000597          	auipc	x11,0x0
    40000664:	06058593          	addi	x11,x11,96 # 400006c0 <begin_signature>
    40000668:	00a59323          	sh	x10,6(x11)
    4000066c:	02301063          	bne	x0,x3,4000068c <pass>

0000000040000670 <fail>:
    40000670:	0ff0000f          	fence
    40000674:	00018063          	beqz	x3,40000674 <fail+0x4>
    40000678:	00119193          	slli	x3,x3,0x1
    4000067c:	0011e193          	ori	x3,x3,1
    40000680:	05d00893          	li	x17,93
    40000684:	00018513          	mv	x10,x3
    40000688:	00000073          	ecall

000000004000068c <pass>:
    4000068c:	0ff0000f          	fence
    40000690:	00100193          	li	x3,1
    40000694:	05d00893          	li	x17,93
    40000698:	00000513          	li	x10,0
    4000069c:	00000073          	ecall
    400006a0:	c0001073          	unimp
    400006a4:	0000                	.2byte	0x0
    400006a6:	0000                	.2byte	0x0
    400006a8:	0000                	.2byte	0x0
    400006aa:	0000                	.2byte	0x0
    400006ac:	0000                	.2byte	0x0
    400006ae:	0000                	.2byte	0x0
    400006b0:	0000                	.2byte	0x0
    400006b2:	0000                	.2byte	0x0
    400006b4:	0000                	.2byte	0x0
    400006b6:	0000                	.2byte	0x0
    400006b8:	0000                	.2byte	0x0
    400006ba:	0000                	.2byte	0x0
