
enter_c.o:     file format elf64-littleriscv


Disassembly of section .text:

0000000080100000 <_start>:
    80100000:	00000117          	auipc	x2,0x0
    80100004:	08010113          	addi	x2,x2,128 # 80100080 <__BINARY_END_>
    80100008:	00020513          	addi	x10,x4,0 # 0 <_start-0x80100000>
    8010000c:	40010113          	addi	x2,x2,1024
    80100010:	00050663          	beq	x10,x0,8010001c <_start+0x1c>
    80100014:	fff50513          	addi	x10,x10,-1
    80100018:	ff5ff06f          	jal	x0,8010000c <_start+0xc>
    8010001c:	02c000ef          	jal	x1,80100048 <main>
    80100020:	00050193          	addi	x3,x10,0
    80100024:	0000006f          	jal	x0,80100024 <_start+0x24>

0000000080100028 <func>:
    80100028:	ff010113          	addi	x2,x2,-16
    8010002c:	00813423          	sd	x8,8(x2)
    80100030:	01010413          	addi	x8,x2,16
    80100034:	00500793          	addi	x15,x0,5
    80100038:	00078513          	addi	x10,x15,0
    8010003c:	00813403          	ld	x8,8(x2)
    80100040:	01010113          	addi	x2,x2,16
    80100044:	00008067          	jalr	x0,0(x1)

0000000080100048 <main>:
    80100048:	fe010113          	addi	x2,x2,-32
    8010004c:	00113c23          	sd	x1,24(x2)
    80100050:	00813823          	sd	x8,16(x2)
    80100054:	02010413          	addi	x8,x2,32
    80100058:	fd1ff0ef          	jal	x1,80100028 <func>
    8010005c:	00050793          	addi	x15,x10,0
    80100060:	fef42623          	sw	x15,-20(x8)
    80100064:	fec42783          	lw	x15,-20(x8)
    80100068:	00078513          	addi	x10,x15,0
    8010006c:	01813083          	ld	x1,24(x2)
    80100070:	01013403          	ld	x8,16(x2)
    80100074:	02010113          	addi	x2,x2,32
    80100078:	00008067          	jalr	x0,0(x1)
