
loader.o:     file format elf64-littleriscv


Disassembly of section .text:

0000000020000000 <_start>:
    20000000:	00100513          	addi	x10,x0,1
    20000004:	034000ef          	jal	x1,20000038 <_show_led>
    20000008:	0b0000ef          	jal	x1,200000b8 <_clear_bss>
    2000000c:	00200513          	addi	x10,x0,2
    20000010:	028000ef          	jal	x1,20000038 <_show_led>
    20000014:	080000ef          	jal	x1,20000094 <_set_sp>
    20000018:	00300513          	addi	x10,x0,3
    2000001c:	01c000ef          	jal	x1,20000038 <_show_led>
    20000020:	028000ef          	jal	x1,20000048 <_copy_loader_to_ram>
    20000024:	00400513          	addi	x10,x0,4
    20000028:	010000ef          	jal	x1,20000038 <_show_led>
    2000002c:	60000097          	auipc	x1,0x60000
    20000030:	fd4080e7          	jalr	x1,-44(x1) # 80000000 <__RAM_START>
    20000034:	0000006f          	jal	x0,20000034 <_start+0x34>

0000000020000038 <_show_led>:
    20000038:	f0012597          	auipc	x11,0xf0012
    2000003c:	fc858593          	addi	x11,x11,-56 # 10012000 <__GPIO_START>
    20000040:	00b50023          	sb	x11,0(x10)
    20000044:	00008067          	jalr	x0,0(x1)

0000000020000048 <_copy_loader_to_ram>:
    20000048:	00020513          	addi	x10,x4,0 # 0 <_binary_loader_binary_bin_size-0x52a0>
    2000004c:	00050a63          	beq	x10,x0,20000060 <_copy_loader_to_ram+0x18>
    20000050:	60100517          	auipc	x10,0x60100
    20000054:	fb150513          	addi	x10,x10,-79 # 80100001 <loader_init_done>
    20000058:	0cc000ef          	jal	x1,20000124 <_wait_for_init>
    2000005c:	00008067          	jalr	x0,0(x1)
    20000060:	00000517          	auipc	x10,0x0
    20000064:	0e850513          	addi	x10,x10,232 # 20000148 <_binary_loader_binary_bin_start>
    20000068:	00005597          	auipc	x11,0x5
    2000006c:	38058593          	addi	x11,x11,896 # 200053e8 <_binary_loader_binary_bin_end>
    20000070:	60000617          	auipc	x12,0x60000
    20000074:	f9060613          	addi	x12,x12,-112 # 80000000 <__RAM_START>
    20000078:	00b55c63          	bge	x10,x11,20000090 <_copy_loader_to_ram+0x48>
    2000007c:	00053683          	ld	x13,0(x10)
    20000080:	00d63023          	sd	x13,0(x12)
    20000084:	00850513          	addi	x10,x10,8
    20000088:	00860613          	addi	x12,x12,8
    2000008c:	fedff06f          	jal	x0,20000078 <_copy_loader_to_ram+0x30>
    20000090:	00008067          	jalr	x0,0(x1)

0000000020000094 <_set_sp>:
    20000094:	60000117          	auipc	x2,0x60000
    20000098:	f6c10113          	addi	x2,x2,-148 # 80000000 <__RAM_START>
    2000009c:	40010113          	addi	x2,x2,1024
    200000a0:	00020513          	addi	x10,x4,0 # 0 <_binary_loader_binary_bin_size-0x52a0>
    200000a4:	00050863          	beq	x10,x0,200000b4 <_set_sp+0x20>
    200000a8:	40010113          	addi	x2,x2,1024
    200000ac:	fff50513          	addi	x10,x10,-1
    200000b0:	ff5ff06f          	jal	x0,200000a4 <_set_sp+0x10>
    200000b4:	00008067          	jalr	x0,0(x1)

00000000200000b8 <_clear_bss>:
    200000b8:	60100517          	auipc	x10,0x60100
    200000bc:	f4850513          	addi	x10,x10,-184 # 80100000 <__BSS_START>
    200000c0:	00000593          	addi	x11,x0,0
    200000c4:	00b50023          	sb	x11,0(x10)
    200000c8:	00020a63          	beq	x4,x0,200000dc <_clear_bss+0x24>
    200000cc:	60100517          	auipc	x10,0x60100
    200000d0:	f3450513          	addi	x10,x10,-204 # 80100000 <__BSS_START>
    200000d4:	050000ef          	jal	x1,20000124 <_wait_for_init>
    200000d8:	00008067          	jalr	x0,0(x1)
    200000dc:	60100517          	auipc	x10,0x60100
    200000e0:	f2450513          	addi	x10,x10,-220 # 80100000 <__BSS_START>
    200000e4:	60100597          	auipc	x11,0x60100
    200000e8:	f1e58593          	addi	x11,x11,-226 # 80100002 <__BSS_END>
    200000ec:	00000613          	addi	x12,x0,0
    200000f0:	00c53023          	sd	x12,0(x10)
    200000f4:	00b55663          	bge	x10,x11,20000100 <_clear_bss+0x48>
    200000f8:	00850513          	addi	x10,x10,8
    200000fc:	ff5ff06f          	jal	x0,200000f0 <_clear_bss+0x38>
    20000100:	60100517          	auipc	x10,0x60100
    20000104:	f0050513          	addi	x10,x10,-256 # 80100000 <__BSS_START>
    20000108:	00100593          	addi	x11,x0,1
    2000010c:	00b50023          	sb	x11,0(x10)
    20000110:	0040006f          	jal	x0,20000114 <_clear_bss+0x5c>
    20000114:	00000513          	addi	x10,x0,0
    20000118:	00000593          	addi	x11,x0,0
    2000011c:	00000613          	addi	x12,x0,0
    20000120:	00008067          	jalr	x0,0(x1)

0000000020000124 <_wait_for_init>:
    20000124:	06400613          	addi	x12,x0,100
    20000128:	00060663          	beq	x12,x0,20000134 <_wait_for_init+0x10>
    2000012c:	fff60613          	addi	x12,x12,-1
    20000130:	ff9ff06f          	jal	x0,20000128 <_wait_for_init+0x4>
    20000134:	00050583          	lb	x11,0(x10)
    20000138:	00059463          	bne	x11,x0,20000140 <_wait_for_init+0x1c>
    2000013c:	fe9ff06f          	jal	x0,20000124 <_wait_for_init>
    20000140:	00008067          	jalr	x0,0(x1)
