
loader.o:     file format elf64-littleriscv


Disassembly of section .text:

0000000020000000 <_start>:
    20000000:	00100513          	addi	x10,x0,1
    20000004:	034000ef          	jal	x1,20000038 <_show_led>
    20000008:	0b0000ef          	jal	x1,200000b8 <_clear_bss>
    2000000c:	00200513          	addi	x10,x0,2
    20000010:	028000ef          	jal	x1,20000038 <_show_led>
    20000014:	080000ef          	jal	x1,20000094 <_set_sp>
    20000018:	00300513          	addi	x10,x0,3
    2000001c:	01c000ef          	jal	x1,20000038 <_show_led>
    20000020:	028000ef          	jal	x1,20000048 <_copy_loader_to_ram>
    20000024:	00400513          	addi	x10,x0,4
    20000028:	010000ef          	jal	x1,20000038 <_show_led>
    2000002c:	60000097          	auipc	x1,0x60000
    20000030:	fd4080e7          	jalr	x1,-44(x1) # 80000000 <__RAM_START>
    20000034:	0000006f          	jal	x0,20000034 <_start+0x34>

0000000020000038 <_show_led>:
    20000038:	f0012597          	auipc	x11,0xf0012
    2000003c:	fc858593          	addi	x11,x11,-56 # 10012000 <__GPIO_START>
    20000040:	00b50023          	sb	x11,0(x10)
    20000044:	00008067          	jalr	x0,0(x1)

0000000020000048 <_copy_loader_to_ram>:
    20000048:	00020513          	addi	x10,x4,0 # 0 <_binary_loader_binary_bin_size-0x52a0>
    2000004c:	00050a63          	beq	x10,x0,20000060 <_copy_loader_to_ram+0x18>
    20000050:	60100517          	auipc	x10,0x60100
    20000054:	fb150513          	addi	x10,x10,-79 # 80100001 <loader_init_done>
    20000058:	0cc000ef          	jal	x1,20000124 <_wait_for_init>
    2000005c:	00008067          	jalr	x0,0(x1)
    20000060:	00000517          	auipc	x10,0x0
    20000064:	0e850513          	addi	x10,x10,232 # 20000148 <_binary_loader_binary_bin_start>
    20000068:	00005597          	auipc	x11,0x5
    2000006c:	38058593          	addi	x11,x11,896 # 200053e8 <_binary_loader_binary_bin_end>
    20000070:	60000617          	auipc	x12,0x60000
    20000074:	f9060613          	addi	x12,x12,-112 # 80000000 <__RAM_START>
    20000078:	00b55c63          	bge	x10,x11,20000090 <_copy_loader_to_ram+0x48>
    2000007c:	00053683          	ld	x13,0(x10)
    20000080:	00d63023          	sd	x13,0(x12)
    20000084:	00850513          	addi	x10,x10,8
    20000088:	00860613          	addi	x12,x12,8
    2000008c:	fedff06f          	jal	x0,20000078 <_copy_loader_to_ram+0x30>
    20000090:	00008067          	jalr	x0,0(x1)

0000000020000094 <_set_sp>:
    20000094:	60000117          	auipc	x2,0x60000
    20000098:	f6c10113          	addi	x2,x2,-148 # 80000000 <__RAM_START>
    2000009c:	40010113          	addi	x2,x2,1024
    200000a0:	00020513          	addi	x10,x4,0 # 0 <_binary_loader_binary_bin_size-0x52a0>
    200000a4:	00050863          	beq	x10,x0,200000b4 <_set_sp+0x20>
    200000a8:	40010113          	addi	x2,x2,1024
    200000ac:	fff50513          	addi	x10,x10,-1
    200000b0:	ff5ff06f          	jal	x0,200000a4 <_set_sp+0x10>
    200000b4:	00008067          	jalr	x0,0(x1)

00000000200000b8 <_clear_bss>:
    200000b8:	60100517          	auipc	x10,0x60100
    200000bc:	f4850513          	addi	x10,x10,-184 # 80100000 <__BSS_START>
    200000c0:	00000593          	addi	x11,x0,0
    200000c4:	00b50023          	sb	x11,0(x10)
    200000c8:	00020a63          	beq	x4,x0,200000dc <_clear_bss+0x24>
    200000cc:	60100517          	auipc	x10,0x60100
    200000d0:	f3450513          	addi	x10,x10,-204 # 80100000 <__BSS_START>
    200000d4:	050000ef          	jal	x1,20000124 <_wait_for_init>
    200000d8:	00008067          	jalr	x0,0(x1)
    200000dc:	60100517          	auipc	x10,0x60100
    200000e0:	f2450513          	addi	x10,x10,-220 # 80100000 <__BSS_START>
    200000e4:	60100597          	auipc	x11,0x60100
    200000e8:	f1e58593          	addi	x11,x11,-226 # 80100002 <__BSS_END>
    200000ec:	00000613          	addi	x12,x0,0
    200000f0:	00c53023          	sd	x12,0(x10)
    200000f4:	00b55663          	bge	x10,x11,20000100 <_clear_bss+0x48>
    200000f8:	00850513          	addi	x10,x10,8
    200000fc:	ff5ff06f          	jal	x0,200000f0 <_clear_bss+0x38>
    20000100:	60100517          	auipc	x10,0x60100
    20000104:	f0050513          	addi	x10,x10,-256 # 80100000 <__BSS_START>
    20000108:	00100593          	addi	x11,x0,1
    2000010c:	00b50023          	sb	x11,0(x10)
    20000110:	0040006f          	jal	x0,20000114 <_clear_bss+0x5c>
    20000114:	00000513          	addi	x10,x0,0
    20000118:	00000593          	addi	x11,x0,0
    2000011c:	00000613          	addi	x12,x0,0
    20000120:	00008067          	jalr	x0,0(x1)

0000000020000124 <_wait_for_init>:
    20000124:	06400613          	addi	x12,x0,100
    20000128:	00060663          	beq	x12,x0,20000134 <_wait_for_init+0x10>
    2000012c:	fff60613          	addi	x12,x12,-1
    20000130:	ff9ff06f          	jal	x0,20000128 <_wait_for_init+0x4>
    20000134:	00050583          	lb	x11,0(x10)
    20000138:	00059463          	bne	x11,x0,20000140 <_wait_for_init+0x1c>
    2000013c:	fe9ff06f          	jal	x0,20000124 <_wait_for_init>
    20000140:	00008067          	jalr	x0,0(x1)

Disassembly of section .data:

0000000020000144 <_binary_loader_binary_bin_start-0x4>:
    20000144:	0000                	c.unimp
	...

0000000020000148 <_binary_loader_binary_bin_start>:
    20000148:	014000ef          	jal	x1,2000015c <_binary_loader_binary_bin_start+0x14>
    2000014c:	034000ef          	jal	x1,20000180 <_binary_loader_binary_bin_start+0x38>
    20000150:	744030ef          	jal	x1,20003894 <_binary_loader_binary_bin_start+0x374c>
    20000154:	7f5ff0ef          	jal	x1,20100148 <_binary_loader_binary_bin_end+0xfad60>
    20000158:	0000006f          	jal	x0,20000158 <_binary_loader_binary_bin_start+0x10>
    2000015c:	00005117          	auipc	x2,0x5
    20000160:	26c13103          	ld	x2,620(x2) # 200053c8 <_binary_loader_binary_bin_start+0x5280>
    20000164:	40010113          	addi	x2,x2,1024
    20000168:	00020513          	addi	x10,x4,0 # 0 <_binary_loader_binary_bin_size-0x52a0>
    2000016c:	00050863          	beq	x10,x0,2000017c <_binary_loader_binary_bin_start+0x34>
    20000170:	40010113          	addi	x2,x2,1024
    20000174:	fff50513          	addi	x10,x10,-1
    20000178:	ff5ff06f          	jal	x0,2000016c <_binary_loader_binary_bin_start+0x24>
    2000017c:	00008067          	jalr	x0,0(x1)
    20000180:	00005517          	auipc	x10,0x5
    20000184:	26053503          	ld	x10,608(x10) # 200053e0 <_binary_loader_binary_bin_start+0x5298>
    20000188:	00000593          	addi	x11,x0,0
    2000018c:	00b50023          	sb	x11,0(x10)
    20000190:	02021e63          	bne	x4,x0,200001cc <_binary_loader_binary_bin_start+0x84>
    20000194:	00005517          	auipc	x10,0x5
    20000198:	23c53503          	ld	x10,572(x10) # 200053d0 <_binary_loader_binary_bin_start+0x5288>
    2000019c:	00005597          	auipc	x11,0x5
    200001a0:	23c5b583          	ld	x11,572(x11) # 200053d8 <_binary_loader_binary_bin_start+0x5290>
    200001a4:	00000613          	addi	x12,x0,0
    200001a8:	00c53023          	sd	x12,0(x10)
    200001ac:	00b55663          	bge	x10,x11,200001b8 <_binary_loader_binary_bin_start+0x70>
    200001b0:	00850513          	addi	x10,x10,8
    200001b4:	ff5ff06f          	jal	x0,200001a8 <_binary_loader_binary_bin_start+0x60>
    200001b8:	00005517          	auipc	x10,0x5
    200001bc:	22853503          	ld	x10,552(x10) # 200053e0 <_binary_loader_binary_bin_start+0x5298>
    200001c0:	00100593          	addi	x11,x0,1
    200001c4:	00b50023          	sb	x11,0(x10)
    200001c8:	0200006f          	jal	x0,200001e8 <_binary_loader_binary_bin_start+0xa0>
    200001cc:	06400613          	addi	x12,x0,100
    200001d0:	00060663          	beq	x12,x0,200001dc <_binary_loader_binary_bin_start+0x94>
    200001d4:	fff60613          	addi	x12,x12,-1
    200001d8:	ff9ff06f          	jal	x0,200001d0 <_binary_loader_binary_bin_start+0x88>
    200001dc:	00050583          	lb	x11,0(x10)
    200001e0:	00059463          	bne	x11,x0,200001e8 <_binary_loader_binary_bin_start+0xa0>
    200001e4:	fe9ff06f          	jal	x0,200001cc <_binary_loader_binary_bin_start+0x84>
    200001e8:	00000513          	addi	x10,x0,0
    200001ec:	00000593          	addi	x11,x0,0
    200001f0:	00000613          	addi	x12,x0,0
    200001f4:	00008067          	jalr	x0,0(x1)
    200001f8:	00008067          	jalr	x0,0(x1)
    200001fc:	ff010113          	addi	x2,x2,-16
    20000200:	00053503          	ld	x10,0(x10)
    20000204:	00053503          	ld	x10,0(x10)
    20000208:	0005861b          	addiw	x12,x11,0
    2000020c:	08000693          	addi	x13,x0,128
    20000210:	00012623          	sw	x0,12(x2)
    20000214:	00d67863          	bgeu	x12,x13,20000224 <_binary_loader_binary_bin_start+0xdc>
    20000218:	00b10623          	sb	x11,12(x2)
    2000021c:	00100613          	addi	x12,x0,1
    20000220:	0b40006f          	jal	x0,200002d4 <_binary_loader_binary_bin_start+0x18c>
    20000224:	00b5d61b          	srliw	x12,x11,0xb
    20000228:	02061263          	bne	x12,x0,2000024c <_binary_loader_binary_bin_start+0x104>
    2000022c:	0065d613          	srli	x12,x11,0x6
    20000230:	0c066613          	ori	x12,x12,192
    20000234:	00c10623          	sb	x12,12(x2)
    20000238:	03f5f593          	andi	x11,x11,63
    2000023c:	0805e593          	ori	x11,x11,128
    20000240:	00b106a3          	sb	x11,13(x2)
    20000244:	00200613          	addi	x12,x0,2
    20000248:	08c0006f          	jal	x0,200002d4 <_binary_loader_binary_bin_start+0x18c>
    2000024c:	0105d61b          	srliw	x12,x11,0x10
    20000250:	02061e63          	bne	x12,x0,2000028c <_binary_loader_binary_bin_start+0x144>
    20000254:	02059613          	slli	x12,x11,0x20
    20000258:	02065613          	srli	x12,x12,0x20
    2000025c:	00c5d69b          	srliw	x13,x11,0xc
    20000260:	0e06e693          	ori	x13,x13,224
    20000264:	00d10623          	sb	x13,12(x2)
    20000268:	03461613          	slli	x12,x12,0x34
    2000026c:	03a65613          	srli	x12,x12,0x3a
    20000270:	08066613          	ori	x12,x12,128
    20000274:	00c106a3          	sb	x12,13(x2)
    20000278:	03f5f593          	andi	x11,x11,63
    2000027c:	0805e593          	ori	x11,x11,128
    20000280:	00b10723          	sb	x11,14(x2)
    20000284:	00300613          	addi	x12,x0,3
    20000288:	04c0006f          	jal	x0,200002d4 <_binary_loader_binary_bin_start+0x18c>
    2000028c:	02059613          	slli	x12,x11,0x20
    20000290:	02065613          	srli	x12,x12,0x20
    20000294:	02b61693          	slli	x13,x12,0x2b
    20000298:	03d6d693          	srli	x13,x13,0x3d
    2000029c:	0f06e693          	ori	x13,x13,240
    200002a0:	00d10623          	sb	x13,12(x2)
    200002a4:	02e61693          	slli	x13,x12,0x2e
    200002a8:	03a6d693          	srli	x13,x13,0x3a
    200002ac:	0806e693          	ori	x13,x13,128
    200002b0:	00d106a3          	sb	x13,13(x2)
    200002b4:	03461613          	slli	x12,x12,0x34
    200002b8:	03a65613          	srli	x12,x12,0x3a
    200002bc:	08066613          	ori	x12,x12,128
    200002c0:	00c10723          	sb	x12,14(x2)
    200002c4:	03f5f593          	andi	x11,x11,63
    200002c8:	0805e593          	ori	x11,x11,128
    200002cc:	00b107a3          	sb	x11,15(x2)
    200002d0:	00400613          	addi	x12,x0,4
    200002d4:	00c10593          	addi	x11,x2,12
    200002d8:	00c58633          	add	x12,x11,x12
    200002dc:	08000693          	addi	x13,x0,128
    200002e0:	0df00713          	addi	x14,x0,223
    200002e4:	0f000793          	addi	x15,x0,240
    200002e8:	00110837          	lui	x16,0x110
    200002ec:	00c0006f          	jal	x0,200002f8 <_binary_loader_binary_bin_start+0x1b0>
    200002f0:	01150223          	sb	x17,4(x10)
    200002f4:	08c58c63          	beq	x11,x12,2000038c <_binary_loader_binary_bin_start+0x244>
    200002f8:	00058283          	lb	x5,0(x11)
    200002fc:	0ff2f893          	andi	x17,x5,255
    20000300:	0002c663          	blt	x5,x0,2000030c <_binary_loader_binary_bin_start+0x1c4>
    20000304:	00158593          	addi	x11,x11,1
    20000308:	06c0006f          	jal	x0,20000374 <_binary_loader_binary_bin_start+0x22c>
    2000030c:	0015c303          	lbu	x6,1(x11)
    20000310:	01f8f293          	andi	x5,x17,31
    20000314:	03f37313          	andi	x6,x6,63
    20000318:	05177063          	bgeu	x14,x17,20000358 <_binary_loader_binary_bin_start+0x210>
    2000031c:	0025c383          	lbu	x7,2(x11)
    20000320:	00631313          	slli	x6,x6,0x6
    20000324:	03f3f393          	andi	x7,x7,63
    20000328:	00736333          	or	x6,x6,x7
    2000032c:	02f8ee63          	bltu	x17,x15,20000368 <_binary_loader_binary_bin_start+0x220>
    20000330:	0035c883          	lbu	x17,3(x11)
    20000334:	03d29293          	slli	x5,x5,0x3d
    20000338:	02b2d293          	srli	x5,x5,0x2b
    2000033c:	00631313          	slli	x6,x6,0x6
    20000340:	03f8f893          	andi	x17,x17,63
    20000344:	011368b3          	or	x17,x6,x17
    20000348:	0058e8b3          	or	x17,x17,x5
    2000034c:	05088063          	beq	x17,x16,2000038c <_binary_loader_binary_bin_start+0x244>
    20000350:	00458593          	addi	x11,x11,4
    20000354:	0200006f          	jal	x0,20000374 <_binary_loader_binary_bin_start+0x22c>
    20000358:	00258593          	addi	x11,x11,2
    2000035c:	00629893          	slli	x17,x5,0x6
    20000360:	0068e8b3          	or	x17,x17,x6
    20000364:	0100006f          	jal	x0,20000374 <_binary_loader_binary_bin_start+0x22c>
    20000368:	00358593          	addi	x11,x11,3
    2000036c:	00c29893          	slli	x17,x5,0xc
    20000370:	011368b3          	or	x17,x6,x17
    20000374:	00854283          	lbu	x5,8(x10)
    20000378:	0082f293          	andi	x5,x5,8
    2000037c:	fe029ce3          	bne	x5,x0,20000374 <_binary_loader_binary_bin_start+0x22c>
    20000380:	f6d8e8e3          	bltu	x17,x13,200002f0 <_binary_loader_binary_bin_start+0x1a8>
    20000384:	02e00893          	addi	x17,x0,46
    20000388:	f69ff06f          	jal	x0,200002f0 <_binary_loader_binary_bin_start+0x1a8>
    2000038c:	00000513          	addi	x10,x0,0
    20000390:	01010113          	addi	x2,x2,16
    20000394:	00008067          	jalr	x0,0(x1)
    20000398:	fc010113          	addi	x2,x2,-64
    2000039c:	02113c23          	sd	x1,56(x2)
    200003a0:	00053503          	ld	x10,0(x10)
    200003a4:	0285b603          	ld	x12,40(x11)
    200003a8:	0205b683          	ld	x13,32(x11)
    200003ac:	00a13023          	sd	x10,0(x2)
    200003b0:	02c13823          	sd	x12,48(x2)
    200003b4:	02d13423          	sd	x13,40(x2)
    200003b8:	0185b503          	ld	x10,24(x11)
    200003bc:	0105b603          	ld	x12,16(x11)
    200003c0:	0085b683          	ld	x13,8(x11)
    200003c4:	0005b583          	ld	x11,0(x11)
    200003c8:	02a13023          	sd	x10,32(x2)
    200003cc:	00c13c23          	sd	x12,24(x2)
    200003d0:	00d13823          	sd	x13,16(x2)
    200003d4:	00b13423          	sd	x11,8(x2)
    200003d8:	00004597          	auipc	x11,0x4
    200003dc:	c7858593          	addi	x11,x11,-904 # 20004050 <_binary_loader_binary_bin_start+0x3f08>
    200003e0:	00010513          	addi	x10,x2,0
    200003e4:	00810613          	addi	x12,x2,8
    200003e8:	00001097          	auipc	x1,0x1
    200003ec:	600080e7          	jalr	x1,1536(x1) # 200019e8 <_binary_loader_binary_bin_start+0x18a0>
    200003f0:	03813083          	ld	x1,56(x2)
    200003f4:	04010113          	addi	x2,x2,64
    200003f8:	00008067          	jalr	x0,0(x1)
    200003fc:	0c060063          	beq	x12,x0,200004bc <_binary_loader_binary_bin_start+0x374>
    20000400:	00053683          	ld	x13,0(x10)
    20000404:	00c58533          	add	x10,x11,x12
    20000408:	0006b603          	ld	x12,0(x13)
    2000040c:	08000693          	addi	x13,x0,128
    20000410:	0df00713          	addi	x14,x0,223
    20000414:	0f000793          	addi	x15,x0,240
    20000418:	00110837          	lui	x16,0x110
    2000041c:	00c0006f          	jal	x0,20000428 <_binary_loader_binary_bin_start+0x2e0>
    20000420:	01160223          	sb	x17,4(x12)
    20000424:	08a58c63          	beq	x11,x10,200004bc <_binary_loader_binary_bin_start+0x374>
    20000428:	00058283          	lb	x5,0(x11)
    2000042c:	0ff2f893          	andi	x17,x5,255
    20000430:	0002c663          	blt	x5,x0,2000043c <_binary_loader_binary_bin_start+0x2f4>
    20000434:	00158593          	addi	x11,x11,1
    20000438:	06c0006f          	jal	x0,200004a4 <_binary_loader_binary_bin_start+0x35c>
    2000043c:	0015c303          	lbu	x6,1(x11)
    20000440:	01f8f293          	andi	x5,x17,31
    20000444:	03f37313          	andi	x6,x6,63
    20000448:	05177063          	bgeu	x14,x17,20000488 <_binary_loader_binary_bin_start+0x340>
    2000044c:	0025c383          	lbu	x7,2(x11)
    20000450:	00631313          	slli	x6,x6,0x6
    20000454:	03f3f393          	andi	x7,x7,63
    20000458:	00736333          	or	x6,x6,x7
    2000045c:	02f8ee63          	bltu	x17,x15,20000498 <_binary_loader_binary_bin_start+0x350>
    20000460:	0035c883          	lbu	x17,3(x11)
    20000464:	03d29293          	slli	x5,x5,0x3d
    20000468:	02b2d293          	srli	x5,x5,0x2b
    2000046c:	00631313          	slli	x6,x6,0x6
    20000470:	03f8f893          	andi	x17,x17,63
    20000474:	011368b3          	or	x17,x6,x17
    20000478:	0058e8b3          	or	x17,x17,x5
    2000047c:	05088063          	beq	x17,x16,200004bc <_binary_loader_binary_bin_start+0x374>
    20000480:	00458593          	addi	x11,x11,4
    20000484:	0200006f          	jal	x0,200004a4 <_binary_loader_binary_bin_start+0x35c>
    20000488:	00258593          	addi	x11,x11,2
    2000048c:	00629893          	slli	x17,x5,0x6
    20000490:	0068e8b3          	or	x17,x17,x6
    20000494:	0100006f          	jal	x0,200004a4 <_binary_loader_binary_bin_start+0x35c>
    20000498:	00358593          	addi	x11,x11,3
    2000049c:	00c29893          	slli	x17,x5,0xc
    200004a0:	011368b3          	or	x17,x6,x17
    200004a4:	00864283          	lbu	x5,8(x12)
    200004a8:	0082f293          	andi	x5,x5,8
    200004ac:	fe029ce3          	bne	x5,x0,200004a4 <_binary_loader_binary_bin_start+0x35c>
    200004b0:	f6d8e8e3          	bltu	x17,x13,20000420 <_binary_loader_binary_bin_start+0x2d8>
    200004b4:	02e00893          	addi	x17,x0,46
    200004b8:	f69ff06f          	jal	x0,20000420 <_binary_loader_binary_bin_start+0x2d8>
    200004bc:	00000513          	addi	x10,x0,0
    200004c0:	00008067          	jalr	x0,0(x1)
    200004c4:	fb010113          	addi	x2,x2,-80
    200004c8:	04113423          	sd	x1,72(x2)
    200004cc:	04813023          	sd	x8,64(x2)
    200004d0:	0330000f          	fence	rw,rw
    200004d4:	00005417          	auipc	x8,0x5
    200004d8:	f1440413          	addi	x8,x8,-236 # 200053e8 <_binary_loader_binary_bin_end>
    200004dc:	00043583          	ld	x11,0(x8)
    200004e0:	0230000f          	fence	r,rw
    200004e4:	04059263          	bne	x11,x0,20000528 <_binary_loader_binary_bin_start+0x3e0>
    200004e8:	00100613          	addi	x12,x0,1
    200004ec:	160435af          	lr.d.aqrl	x11,(x8)
    200004f0:	00059663          	bne	x11,x0,200004fc <_binary_loader_binary_bin_start+0x3b4>
    200004f4:	1ec436af          	sc.d.aqrl	x13,x12,(x8)
    200004f8:	fe069ae3          	bne	x13,x0,200004ec <_binary_loader_binary_bin_start+0x3a4>
    200004fc:	02059663          	bne	x11,x0,20000528 <_binary_loader_binary_bin_start+0x3e0>
    20000500:	90013597          	auipc	x11,0x90013
    20000504:	c4858593          	addi	x11,x11,-952 # ffffffffb0013148 <__BSS_END+0xffffffff2ff13146>
    20000508:	0005b583          	ld	x11,0(x11)
    2000050c:	00c43423          	sd	x12,8(x8)
    20000510:	00040823          	sb	x0,16(x8)
    20000514:	00b43c23          	sd	x11,24(x8)
    20000518:	0310000f          	fence	rw,w
    2000051c:	00200593          	addi	x11,x0,2
    20000520:	00b43023          	sd	x11,0(x8)
    20000524:	0280006f          	jal	x0,2000054c <_binary_loader_binary_bin_start+0x404>
    20000528:	00100613          	addi	x12,x0,1
    2000052c:	00c59c63          	bne	x11,x12,20000544 <_binary_loader_binary_bin_start+0x3fc>
    20000530:	0100000f          	fence	w,unknown
    20000534:	0330000f          	fence	rw,rw
    20000538:	00043583          	ld	x11,0(x8)
    2000053c:	0230000f          	fence	r,rw
    20000540:	fec588e3          	beq	x11,x12,20000530 <_binary_loader_binary_bin_start+0x3e8>
    20000544:	00200613          	addi	x12,x0,2
    20000548:	0cc59e63          	bne	x11,x12,20000624 <_binary_loader_binary_bin_start+0x4dc>
    2000054c:	01040693          	addi	x13,x8,16
    20000550:	0036f593          	andi	x11,x13,3
    20000554:	0035961b          	slliw	x12,x11,0x3
    20000558:	0ff00593          	addi	x11,x0,255
    2000055c:	00c595bb          	sllw	x11,x11,x12
    20000560:	00100713          	addi	x14,x0,1
    20000564:	00c7163b          	sllw	x12,x14,x12
    20000568:	02061613          	slli	x12,x12,0x20
    2000056c:	02065613          	srli	x12,x12,0x20
    20000570:	ffc6f693          	andi	x13,x13,-4
    20000574:	1406a72f          	lr.w.aq	x14,(x13)
    20000578:	00b777b3          	and	x15,x14,x11
    2000057c:	00079c63          	bne	x15,x0,20000594 <_binary_loader_binary_bin_start+0x44c>
    20000580:	00c747b3          	xor	x15,x14,x12
    20000584:	00b7f7b3          	and	x15,x15,x11
    20000588:	00f747b3          	xor	x15,x14,x15
    2000058c:	18f6a7af          	sc.w	x15,x15,(x13)
    20000590:	fe0792e3          	bne	x15,x0,20000574 <_binary_loader_binary_bin_start+0x42c>
    20000594:	00b77733          	and	x14,x14,x11
    20000598:	0007071b          	addiw	x14,x14,0
    2000059c:	00070e63          	beq	x14,x0,200005b8 <_binary_loader_binary_bin_start+0x470>
    200005a0:	01040703          	lb	x14,16(x8)
    200005a4:	fc0708e3          	beq	x14,x0,20000574 <_binary_loader_binary_bin_start+0x42c>
    200005a8:	0100000f          	fence	w,unknown
    200005ac:	01040703          	lb	x14,16(x8)
    200005b0:	fe071ce3          	bne	x14,x0,200005a8 <_binary_loader_binary_bin_start+0x460>
    200005b4:	fc1ff06f          	jal	x0,20000574 <_binary_loader_binary_bin_start+0x42c>
    200005b8:	02853583          	ld	x11,40(x10)
    200005bc:	02053603          	ld	x12,32(x10)
    200005c0:	01840693          	addi	x13,x8,24
    200005c4:	00d13023          	sd	x13,0(x2)
    200005c8:	02b13823          	sd	x11,48(x2)
    200005cc:	02c13423          	sd	x12,40(x2)
    200005d0:	01853583          	ld	x11,24(x10)
    200005d4:	01053603          	ld	x12,16(x10)
    200005d8:	00853683          	ld	x13,8(x10)
    200005dc:	00053503          	ld	x10,0(x10)
    200005e0:	02b13023          	sd	x11,32(x2)
    200005e4:	00c13c23          	sd	x12,24(x2)
    200005e8:	00d13823          	sd	x13,16(x2)
    200005ec:	00a13423          	sd	x10,8(x2)
    200005f0:	00004597          	auipc	x11,0x4
    200005f4:	a6058593          	addi	x11,x11,-1440 # 20004050 <_binary_loader_binary_bin_start+0x3f08>
    200005f8:	00010513          	addi	x10,x2,0
    200005fc:	00810613          	addi	x12,x2,8
    20000600:	00001097          	auipc	x1,0x1
    20000604:	3e8080e7          	jalr	x1,1000(x1) # 200019e8 <_binary_loader_binary_bin_start+0x18a0>
    20000608:	06051063          	bne	x10,x0,20000668 <_binary_loader_binary_bin_start+0x520>
    2000060c:	0310000f          	fence	rw,w
    20000610:	00040823          	sb	x0,16(x8)
    20000614:	04813083          	ld	x1,72(x2)
    20000618:	04013403          	ld	x8,64(x2)
    2000061c:	05010113          	addi	x2,x2,80
    20000620:	00008067          	jalr	x0,0(x1)
    20000624:	02059263          	bne	x11,x0,20000648 <_binary_loader_binary_bin_start+0x500>
    20000628:	00005517          	auipc	x10,0x5
    2000062c:	c4050513          	addi	x10,x10,-960 # 20005268 <_binary_loader_binary_bin_start+0x5120>
    20000630:	00005617          	auipc	x12,0x5
    20000634:	c6060613          	addi	x12,x12,-928 # 20005290 <_binary_loader_binary_bin_start+0x5148>
    20000638:	02800593          	addi	x11,x0,40
    2000063c:	00003097          	auipc	x1,0x3
    20000640:	b34080e7          	jalr	x1,-1228(x1) # 20003170 <_binary_loader_binary_bin_start+0x3028>
    20000644:	c0001073          	unimp
    20000648:	00005517          	auipc	x10,0x5
    2000064c:	ba050513          	addi	x10,x10,-1120 # 200051e8 <_binary_loader_binary_bin_start+0x50a0>
    20000650:	00005617          	auipc	x12,0x5
    20000654:	c0060613          	addi	x12,x12,-1024 # 20005250 <_binary_loader_binary_bin_start+0x5108>
    20000658:	01100593          	addi	x11,x0,17
    2000065c:	00003097          	auipc	x1,0x3
    20000660:	b14080e7          	jalr	x1,-1260(x1) # 20003170 <_binary_loader_binary_bin_start+0x3028>
    20000664:	c0001073          	unimp
    20000668:	03810513          	addi	x10,x2,56
    2000066c:	00003097          	auipc	x1,0x3
    20000670:	bec080e7          	jalr	x1,-1044(x1) # 20003258 <_binary_loader_binary_bin_start+0x3110>
    20000674:	c0001073          	unimp
    20000678:	f7010113          	addi	x2,x2,-144
    2000067c:	08113423          	sd	x1,136(x2)
    20000680:	00000613          	addi	x12,x0,0
    20000684:	00053883          	ld	x17,0(x10)
    20000688:	00810513          	addi	x10,x2,8
    2000068c:	00a00693          	addi	x13,x0,10
    20000690:	00f00713          	addi	x14,x0,15
    20000694:	01c0006f          	jal	x0,200006b0 <_binary_loader_binary_bin_start+0x568>
    20000698:	00c50333          	add	x6,x10,x12
    2000069c:	0047d893          	srli	x17,x15,0x4
    200006a0:	0102883b          	addw	x16,x5,x16
    200006a4:	07030fa3          	sb	x16,127(x6)
    200006a8:	fff60613          	addi	x12,x12,-1
    200006ac:	00f77e63          	bgeu	x14,x15,200006c8 <_binary_loader_binary_bin_start+0x580>
    200006b0:	00088793          	addi	x15,x17,0
    200006b4:	00f8f813          	andi	x16,x17,15
    200006b8:	03000293          	addi	x5,x0,48
    200006bc:	fcd86ee3          	bltu	x16,x13,20000698 <_binary_loader_binary_bin_start+0x550>
    200006c0:	03700293          	addi	x5,x0,55
    200006c4:	fd5ff06f          	jal	x0,20000698 <_binary_loader_binary_bin_start+0x550>
    200006c8:	08060513          	addi	x10,x12,128
    200006cc:	08100693          	addi	x13,x0,129
    200006d0:	02d57e63          	bgeu	x10,x13,2000070c <_binary_loader_binary_bin_start+0x5c4>
    200006d4:	00810513          	addi	x10,x2,8
    200006d8:	00c50533          	add	x10,x10,x12
    200006dc:	08050693          	addi	x13,x10,128
    200006e0:	40c00733          	sub	x14,x0,x12
    200006e4:	00004797          	auipc	x15,0x4
    200006e8:	a9c78793          	addi	x15,x15,-1380 # 20004180 <_binary_loader_binary_bin_start+0x4038>
    200006ec:	00200613          	addi	x12,x0,2
    200006f0:	00058513          	addi	x10,x11,0
    200006f4:	00078593          	addi	x11,x15,0
    200006f8:	00001097          	auipc	x1,0x1
    200006fc:	560080e7          	jalr	x1,1376(x1) # 20001c58 <_binary_loader_binary_bin_start+0x1b10>
    20000700:	08813083          	ld	x1,136(x2)
    20000704:	09010113          	addi	x2,x2,144
    20000708:	00008067          	jalr	x0,0(x1)
    2000070c:	00004617          	auipc	x12,0x4
    20000710:	a5c60613          	addi	x12,x12,-1444 # 20004168 <_binary_loader_binary_bin_start+0x4020>
    20000714:	08000593          	addi	x11,x0,128
    20000718:	00001097          	auipc	x1,0x1
    2000071c:	eec080e7          	jalr	x1,-276(x1) # 20001604 <_binary_loader_binary_bin_start+0x14bc>
    20000720:	c0001073          	unimp
    20000724:	00000097          	auipc	x1,0x0
    20000728:	00c080e7          	jalr	x1,12(x1) # 20000730 <_binary_loader_binary_bin_start+0x5e8>
    2000072c:	c0001073          	unimp
    20000730:	f3010113          	addi	x2,x2,-208
    20000734:	00c13023          	sd	x12,0(x2)
    20000738:	10100793          	addi	x15,x0,257
    2000073c:	00d13423          	sd	x13,8(x2)
    20000740:	04f5e263          	bltu	x11,x15,20000784 <_binary_loader_binary_bin_start+0x63c>
    20000744:	fbf00813          	addi	x16,x0,-65
    20000748:	00f508b3          	add	x17,x10,x15
    2000074c:	fff88883          	lb	x17,-1(x17)
    20000750:	fff78793          	addi	x15,x15,-1
    20000754:	ff185ae3          	bge	x16,x17,20000748 <_binary_loader_binary_bin_start+0x600>
    20000758:	02b7fe63          	bgeu	x15,x11,20000794 <_binary_loader_binary_bin_start+0x64c>
    2000075c:	00f50833          	add	x16,x10,x15
    20000760:	00080803          	lb	x16,0(x16) # 110000 <_binary_loader_binary_bin_size+0x10ad60>
    20000764:	fbf00893          	addi	x17,x0,-65
    20000768:	1108d463          	bge	x17,x16,20000870 <_binary_loader_binary_bin_start+0x728>
    2000076c:	00a13823          	sd	x10,16(x2)
    20000770:	00f13c23          	sd	x15,24(x2)
    20000774:	00500813          	addi	x16,x0,5
    20000778:	00004797          	auipc	x15,0x4
    2000077c:	ad278793          	addi	x15,x15,-1326 # 2000424a <_binary_loader_binary_bin_start+0x4102>
    20000780:	02c0006f          	jal	x0,200007ac <_binary_loader_binary_bin_start+0x664>
    20000784:	00000813          	addi	x16,x0,0
    20000788:	00a13823          	sd	x10,16(x2)
    2000078c:	00b13c23          	sd	x11,24(x2)
    20000790:	0140006f          	jal	x0,200007a4 <_binary_loader_binary_bin_start+0x65c>
    20000794:	0cf59e63          	bne	x11,x15,20000870 <_binary_loader_binary_bin_start+0x728>
    20000798:	00000813          	addi	x16,x0,0
    2000079c:	00a13823          	sd	x10,16(x2)
    200007a0:	00f13c23          	sd	x15,24(x2)
    200007a4:	00005797          	auipc	x15,0x5
    200007a8:	b0478793          	addi	x15,x15,-1276 # 200052a8 <_binary_loader_binary_bin_start+0x5160>
    200007ac:	02f13023          	sd	x15,32(x2)
    200007b0:	00c5b7b3          	sltu	x15,x11,x12
    200007b4:	00d5b8b3          	sltu	x17,x11,x13
    200007b8:	0117e7b3          	or	x15,x15,x17
    200007bc:	03013423          	sd	x16,40(x2)
    200007c0:	04078c63          	beq	x15,x0,20000818 <_binary_loader_binary_bin_start+0x6d0>
    200007c4:	00c5e463          	bltu	x11,x12,200007cc <_binary_loader_binary_bin_start+0x684>
    200007c8:	00068613          	addi	x12,x13,0
    200007cc:	04c13023          	sd	x12,64(x2)
    200007d0:	04010513          	addi	x10,x2,64
    200007d4:	08a13023          	sd	x10,128(x2)
    200007d8:	00001517          	auipc	x10,0x1
    200007dc:	e2050513          	addi	x10,x10,-480 # 200015f8 <_binary_loader_binary_bin_start+0x14b0>
    200007e0:	08a13423          	sd	x10,136(x2)
    200007e4:	01010513          	addi	x10,x2,16
    200007e8:	08a13823          	sd	x10,144(x2)
    200007ec:	00003517          	auipc	x10,0x3
    200007f0:	96c50513          	addi	x10,x10,-1684 # 20003158 <_binary_loader_binary_bin_start+0x3010>
    200007f4:	08a13c23          	sd	x10,152(x2)
    200007f8:	02010593          	addi	x11,x2,32
    200007fc:	0ab13023          	sd	x11,160(x2)
    20000800:	0aa13423          	sd	x10,168(x2)
    20000804:	00004517          	auipc	x10,0x4
    20000808:	a6c50513          	addi	x10,x10,-1428 # 20004270 <_binary_loader_binary_bin_start+0x4128>
    2000080c:	06a13023          	sd	x10,96(x2)
    20000810:	00300513          	addi	x10,x0,3
    20000814:	2780006f          	jal	x0,20000a8c <_binary_loader_binary_bin_start+0x944>
    20000818:	06c6f663          	bgeu	x13,x12,20000884 <_binary_loader_binary_bin_start+0x73c>
    2000081c:	00010513          	addi	x10,x2,0
    20000820:	08a13023          	sd	x10,128(x2)
    20000824:	00001517          	auipc	x10,0x1
    20000828:	dd450513          	addi	x10,x10,-556 # 200015f8 <_binary_loader_binary_bin_start+0x14b0>
    2000082c:	08a13423          	sd	x10,136(x2)
    20000830:	00810593          	addi	x11,x2,8
    20000834:	08b13823          	sd	x11,144(x2)
    20000838:	08a13c23          	sd	x10,152(x2)
    2000083c:	01010513          	addi	x10,x2,16
    20000840:	0aa13023          	sd	x10,160(x2)
    20000844:	00003517          	auipc	x10,0x3
    20000848:	91450513          	addi	x10,x10,-1772 # 20003158 <_binary_loader_binary_bin_start+0x3010>
    2000084c:	0aa13423          	sd	x10,168(x2)
    20000850:	02010593          	addi	x11,x2,32
    20000854:	0ab13823          	sd	x11,176(x2)
    20000858:	0aa13c23          	sd	x10,184(x2)
    2000085c:	00004517          	auipc	x10,0x4
    20000860:	a9450513          	addi	x10,x10,-1388 # 200042f0 <_binary_loader_binary_bin_start+0x41a8>
    20000864:	06a13023          	sd	x10,96(x2)
    20000868:	00400513          	addi	x10,x0,4
    2000086c:	2200006f          	jal	x0,20000a8c <_binary_loader_binary_bin_start+0x944>
    20000870:	00000613          	addi	x12,x0,0
    20000874:	00078693          	addi	x13,x15,0
    20000878:	00000097          	auipc	x1,0x0
    2000087c:	eac080e7          	jalr	x1,-340(x1) # 20000724 <_binary_loader_binary_bin_start+0x5dc>
    20000880:	c0001073          	unimp
    20000884:	04061463          	bne	x12,x0,200008cc <_binary_loader_binary_bin_start+0x784>
    20000888:	00068613          	addi	x12,x13,0
    2000088c:	02c13823          	sd	x12,48(x2)
    20000890:	00058693          	addi	x13,x11,0
    20000894:	06b67c63          	bgeu	x12,x11,2000090c <_binary_loader_binary_bin_start+0x7c4>
    20000898:	ffd60793          	addi	x15,x12,-3
    2000089c:	00000693          	addi	x13,x0,0
    200008a0:	00f66463          	bltu	x12,x15,200008a8 <_binary_loader_binary_bin_start+0x760>
    200008a4:	00078693          	addi	x13,x15,0
    200008a8:	00160793          	addi	x15,x12,1
    200008ac:	02d7fc63          	bgeu	x15,x13,200008e4 <_binary_loader_binary_bin_start+0x79c>
    200008b0:	00004617          	auipc	x12,0x4
    200008b4:	b8860613          	addi	x12,x12,-1144 # 20004438 <_binary_loader_binary_bin_start+0x42f0>
    200008b8:	00068513          	addi	x10,x13,0
    200008bc:	00078593          	addi	x11,x15,0
    200008c0:	00001097          	auipc	x1,0x1
    200008c4:	0b0080e7          	jalr	x1,176(x1) # 20001970 <_binary_loader_binary_bin_start+0x1828>
    200008c8:	c0001073          	unimp
    200008cc:	06b67663          	bgeu	x12,x11,20000938 <_binary_loader_binary_bin_start+0x7f0>
    200008d0:	00c507b3          	add	x15,x10,x12
    200008d4:	00078783          	lb	x15,0(x15)
    200008d8:	fc000813          	addi	x16,x0,-64
    200008dc:	fb07d6e3          	bge	x15,x16,20000888 <_binary_loader_binary_bin_start+0x740>
    200008e0:	fadff06f          	jal	x0,2000088c <_binary_loader_binary_bin_start+0x744>
    200008e4:	00d506b3          	add	x13,x10,x13
    200008e8:	00f507b3          	add	x15,x10,x15
    200008ec:	40d786b3          	sub	x13,x15,x13
    200008f0:	fc000793          	addi	x15,x0,-64
    200008f4:	00c50833          	add	x16,x10,x12
    200008f8:	00080803          	lb	x16,0(x16)
    200008fc:	fff68693          	addi	x13,x13,-1
    20000900:	fff60613          	addi	x12,x12,-1
    20000904:	fef848e3          	blt	x16,x15,200008f4 <_binary_loader_binary_bin_start+0x7ac>
    20000908:	00160693          	addi	x13,x12,1
    2000090c:	02068c63          	beq	x13,x0,20000944 <_binary_loader_binary_bin_start+0x7fc>
    20000910:	02b6f863          	bgeu	x13,x11,20000940 <_binary_loader_binary_bin_start+0x7f8>
    20000914:	00d50633          	add	x12,x10,x13
    20000918:	00060603          	lb	x12,0(x12)
    2000091c:	fbf00793          	addi	x15,x0,-65
    20000920:	02c7c263          	blt	x15,x12,20000944 <_binary_loader_binary_bin_start+0x7fc>
    20000924:	00068613          	addi	x12,x13,0
    20000928:	00058693          	addi	x13,x11,0
    2000092c:	00000097          	auipc	x1,0x0
    20000930:	df8080e7          	jalr	x1,-520(x1) # 20000724 <_binary_loader_binary_bin_start+0x5dc>
    20000934:	c0001073          	unimp
    20000938:	f4b608e3          	beq	x12,x11,20000888 <_binary_loader_binary_bin_start+0x740>
    2000093c:	f51ff06f          	jal	x0,2000088c <_binary_loader_binary_bin_start+0x744>
    20000940:	feb692e3          	bne	x13,x11,20000924 <_binary_loader_binary_bin_start+0x7dc>
    20000944:	02b69063          	bne	x13,x11,20000964 <_binary_loader_binary_bin_start+0x81c>
    20000948:	00004517          	auipc	x10,0x4
    2000094c:	e5850513          	addi	x10,x10,-424 # 200047a0 <_binary_loader_binary_bin_start+0x4658>
    20000950:	02b00593          	addi	x11,x0,43
    20000954:	00070613          	addi	x12,x14,0
    20000958:	00003097          	auipc	x1,0x3
    2000095c:	818080e7          	jalr	x1,-2024(x1) # 20003170 <_binary_loader_binary_bin_start+0x3028>
    20000960:	c0001073          	unimp
    20000964:	00d50533          	add	x10,x10,x13
    20000968:	00050603          	lb	x12,0(x10)
    2000096c:	0ff67593          	andi	x11,x12,255
    20000970:	00064863          	blt	x12,x0,20000980 <_binary_loader_binary_bin_start+0x838>
    20000974:	02b12e23          	sw	x11,60(x2)
    20000978:	00100593          	addi	x11,x0,1
    2000097c:	0980006f          	jal	x0,20000a14 <_binary_loader_binary_bin_start+0x8cc>
    20000980:	00154783          	lbu	x15,1(x10)
    20000984:	01f5f613          	andi	x12,x11,31
    20000988:	0df00813          	addi	x16,x0,223
    2000098c:	03f7f793          	andi	x15,x15,63
    20000990:	04b87263          	bgeu	x16,x11,200009d4 <_binary_loader_binary_bin_start+0x88c>
    20000994:	00254803          	lbu	x16,2(x10)
    20000998:	00679793          	slli	x15,x15,0x6
    2000099c:	03f87813          	andi	x16,x16,63
    200009a0:	0f000893          	addi	x17,x0,240
    200009a4:	0107e7b3          	or	x15,x15,x16
    200009a8:	0315ec63          	bltu	x11,x17,200009e0 <_binary_loader_binary_bin_start+0x898>
    200009ac:	00354503          	lbu	x10,3(x10)
    200009b0:	03d61593          	slli	x11,x12,0x3d
    200009b4:	02b5d593          	srli	x11,x11,0x2b
    200009b8:	00679613          	slli	x12,x15,0x6
    200009bc:	03f57513          	andi	x10,x10,63
    200009c0:	00a66533          	or	x10,x12,x10
    200009c4:	00b56533          	or	x10,x10,x11
    200009c8:	001105b7          	lui	x11,0x110
    200009cc:	00b51e63          	bne	x10,x11,200009e8 <_binary_loader_binary_bin_start+0x8a0>
    200009d0:	f79ff06f          	jal	x0,20000948 <_binary_loader_binary_bin_start+0x800>
    200009d4:	00661513          	slli	x10,x12,0x6
    200009d8:	00f56533          	or	x10,x10,x15
    200009dc:	00c0006f          	jal	x0,200009e8 <_binary_loader_binary_bin_start+0x8a0>
    200009e0:	00c61513          	slli	x10,x12,0xc
    200009e4:	00a7e533          	or	x10,x15,x10
    200009e8:	02a12e23          	sw	x10,60(x2)
    200009ec:	08000613          	addi	x12,x0,128
    200009f0:	00100593          	addi	x11,x0,1
    200009f4:	02c56063          	bltu	x10,x12,20000a14 <_binary_loader_binary_bin_start+0x8cc>
    200009f8:	00b55613          	srli	x12,x10,0xb
    200009fc:	00200593          	addi	x11,x0,2
    20000a00:	00060a63          	beq	x12,x0,20000a14 <_binary_loader_binary_bin_start+0x8cc>
    20000a04:	01055513          	srli	x10,x10,0x10
    20000a08:	00153513          	sltiu	x10,x10,1
    20000a0c:	00400593          	addi	x11,x0,4
    20000a10:	40a585b3          	sub	x11,x11,x10
    20000a14:	00d58533          	add	x10,x11,x13
    20000a18:	04d13023          	sd	x13,64(x2)
    20000a1c:	04a13423          	sd	x10,72(x2)
    20000a20:	03010513          	addi	x10,x2,48
    20000a24:	08a13023          	sd	x10,128(x2)
    20000a28:	00001517          	auipc	x10,0x1
    20000a2c:	bd050513          	addi	x10,x10,-1072 # 200015f8 <_binary_loader_binary_bin_start+0x14b0>
    20000a30:	08a13423          	sd	x10,136(x2)
    20000a34:	03c10513          	addi	x10,x2,60
    20000a38:	08a13823          	sd	x10,144(x2)
    20000a3c:	00002517          	auipc	x10,0x2
    20000a40:	d0850513          	addi	x10,x10,-760 # 20002744 <_binary_loader_binary_bin_start+0x25fc>
    20000a44:	08a13c23          	sd	x10,152(x2)
    20000a48:	04010513          	addi	x10,x2,64
    20000a4c:	0aa13023          	sd	x10,160(x2)
    20000a50:	00001517          	auipc	x10,0x1
    20000a54:	c2450513          	addi	x10,x10,-988 # 20001674 <_binary_loader_binary_bin_start+0x152c>
    20000a58:	0aa13423          	sd	x10,168(x2)
    20000a5c:	01010513          	addi	x10,x2,16
    20000a60:	0aa13823          	sd	x10,176(x2)
    20000a64:	00002517          	auipc	x10,0x2
    20000a68:	6f450513          	addi	x10,x10,1780 # 20003158 <_binary_loader_binary_bin_start+0x3010>
    20000a6c:	0aa13c23          	sd	x10,184(x2)
    20000a70:	02010593          	addi	x11,x2,32
    20000a74:	0cb13023          	sd	x11,192(x2)
    20000a78:	0ca13423          	sd	x10,200(x2)
    20000a7c:	00004517          	auipc	x10,0x4
    20000a80:	8fc50513          	addi	x10,x10,-1796 # 20004378 <_binary_loader_binary_bin_start+0x4230>
    20000a84:	06a13023          	sd	x10,96(x2)
    20000a88:	00500513          	addi	x10,x0,5
    20000a8c:	06a13423          	sd	x10,104(x2)
    20000a90:	04013823          	sd	x0,80(x2)
    20000a94:	08010593          	addi	x11,x2,128
    20000a98:	06b13823          	sd	x11,112(x2)
    20000a9c:	06a13c23          	sd	x10,120(x2)
    20000aa0:	05010513          	addi	x10,x2,80
    20000aa4:	00070593          	addi	x11,x14,0
    20000aa8:	00002097          	auipc	x1,0x2
    20000aac:	774080e7          	jalr	x1,1908(x1) # 2000321c <_binary_loader_binary_bin_start+0x30d4>
    20000ab0:	c0001073          	unimp
    20000ab4:	f3010113          	addi	x2,x2,-208
    20000ab8:	0c113423          	sd	x1,200(x2)
    20000abc:	0c813023          	sd	x8,192(x2)
    20000ac0:	0a913c23          	sd	x9,184(x2)
    20000ac4:	0b213823          	sd	x18,176(x2)
    20000ac8:	0b313423          	sd	x19,168(x2)
    20000acc:	0b413023          	sd	x20,160(x2)
    20000ad0:	09513c23          	sd	x21,152(x2)
    20000ad4:	09613823          	sd	x22,144(x2)
    20000ad8:	09713423          	sd	x23,136(x2)
    20000adc:	09813023          	sd	x24,128(x2)
    20000ae0:	07913c23          	sd	x25,120(x2)
    20000ae4:	07a13823          	sd	x26,112(x2)
    20000ae8:	07b13423          	sd	x27,104(x2)
    20000aec:	00060d13          	addi	x26,x12,0
    20000af0:	00058493          	addi	x9,x11,0 # 110000 <_binary_loader_binary_bin_size+0x10ad60>
    20000af4:	00000913          	addi	x18,x0,0
    20000af8:	00000b93          	addi	x23,x0,0
    20000afc:	00000c13          	addi	x24,x0,0
    20000b00:	00000d93          	addi	x27,x0,0
    20000b04:	00005597          	auipc	x11,0x5
    20000b08:	88c58593          	addi	x11,x11,-1908 # 20005390 <_binary_loader_binary_bin_start+0x5248>
    20000b0c:	0005ba03          	ld	x20,0(x11)
    20000b10:	00005597          	auipc	x11,0x5
    20000b14:	88858593          	addi	x11,x11,-1912 # 20005398 <_binary_loader_binary_bin_start+0x5250>
    20000b18:	0005ba83          	ld	x21,0(x11)
    20000b1c:	00005597          	auipc	x11,0x5
    20000b20:	88458593          	addi	x11,x11,-1916 # 200053a0 <_binary_loader_binary_bin_start+0x5258>
    20000b24:	0005bb03          	ld	x22,0(x11)
    20000b28:	02913023          	sd	x9,32(x2)
    20000b2c:	02c13423          	sd	x12,40(x2)
    20000b30:	02013823          	sd	x0,48(x2)
    20000b34:	02c13c23          	sd	x12,56(x2)
    20000b38:	00100593          	addi	x11,x0,1
    20000b3c:	04b13023          	sd	x11,64(x2)
    20000b40:	00a00c93          	addi	x25,x0,10
    20000b44:	01053583          	ld	x11,16(x10)
    20000b48:	00b13c23          	sd	x11,24(x2)
    20000b4c:	00053583          	ld	x11,0(x10)
    20000b50:	00b13823          	sd	x11,16(x2)
    20000b54:	00853503          	ld	x10,8(x10)
    20000b58:	00a13423          	sd	x10,8(x2)
    20000b5c:	05912423          	sw	x25,72(x2)
    20000b60:	00003517          	auipc	x10,0x3
    20000b64:	74e50513          	addi	x10,x10,1870 # 200042ae <_binary_loader_binary_bin_start+0x4166>
    20000b68:	00a13023          	sd	x10,0(x2)
    20000b6c:	0340006f          	jal	x0,20000ba0 <_binary_loader_binary_bin_start+0xa58>
    20000b70:	00b60533          	add	x10,x12,x11
    20000b74:	fff54503          	lbu	x10,-1(x10)
    20000b78:	ff650513          	addi	x10,x10,-10
    20000b7c:	00153513          	sltiu	x10,x10,1
    20000b80:	01813683          	ld	x13,24(x2)
    20000b84:	00a68023          	sb	x10,0(x13)
    20000b88:	00813503          	ld	x10,8(x2)
    20000b8c:	01853683          	ld	x13,24(x10)
    20000b90:	01013503          	ld	x10,16(x2)
    20000b94:	000680e7          	jalr	x1,0(x13)
    20000b98:	00098913          	addi	x18,x19,0
    20000b9c:	18051e63          	bne	x10,x0,20000d38 <_binary_loader_binary_bin_start+0xbf0>
    20000ba0:	0ffdf513          	andi	x10,x27,255
    20000ba4:	18051663          	bne	x10,x0,20000d30 <_binary_loader_binary_bin_start+0xbe8>
    20000ba8:	018d7663          	bgeu	x26,x24,20000bb4 <_binary_loader_binary_bin_start+0xa6c>
    20000bac:	1200006f          	jal	x0,20000ccc <_binary_loader_binary_bin_start+0xb84>
    20000bb0:	118d6e63          	bltu	x26,x24,20000ccc <_binary_loader_binary_bin_start+0xb84>
    20000bb4:	418d05b3          	sub	x11,x26,x24
    20000bb8:	01848633          	add	x12,x9,x24
    20000bbc:	01000513          	addi	x10,x0,16
    20000bc0:	02a5f263          	bgeu	x11,x10,20000be4 <_binary_loader_binary_bin_start+0xa9c>
    20000bc4:	11ac0263          	beq	x24,x26,20000cc8 <_binary_loader_binary_bin_start+0xb80>
    20000bc8:	00000693          	addi	x13,x0,0
    20000bcc:	00d60533          	add	x10,x12,x13
    20000bd0:	00054503          	lbu	x10,0(x10)
    20000bd4:	0b950e63          	beq	x10,x25,20000c90 <_binary_loader_binary_bin_start+0xb48>
    20000bd8:	00168693          	addi	x13,x13,1
    20000bdc:	fed598e3          	bne	x11,x13,20000bcc <_binary_loader_binary_bin_start+0xa84>
    20000be0:	0e80006f          	jal	x0,20000cc8 <_binary_loader_binary_bin_start+0xb80>
    20000be4:	00760513          	addi	x10,x12,7
    20000be8:	ff857513          	andi	x10,x10,-8
    20000bec:	06c51863          	bne	x10,x12,20000c5c <_binary_loader_binary_bin_start+0xb14>
    20000bf0:	00000513          	addi	x10,x0,0
    20000bf4:	ff058693          	addi	x13,x11,-16
    20000bf8:	00a60733          	add	x14,x12,x10
    20000bfc:	00073783          	ld	x15,0(x14)
    20000c00:	fff7c813          	xori	x16,x15,-1
    20000c04:	0167c7b3          	xor	x15,x15,x22
    20000c08:	014787b3          	add	x15,x15,x20
    20000c0c:	01587833          	and	x16,x16,x21
    20000c10:	00f877b3          	and	x15,x16,x15
    20000c14:	02079463          	bne	x15,x0,20000c3c <_binary_loader_binary_bin_start+0xaf4>
    20000c18:	00873703          	ld	x14,8(x14)
    20000c1c:	fff74793          	xori	x15,x14,-1
    20000c20:	01674733          	xor	x14,x14,x22
    20000c24:	01470733          	add	x14,x14,x20
    20000c28:	0157f7b3          	and	x15,x15,x21
    20000c2c:	00e7f733          	and	x14,x15,x14
    20000c30:	00071663          	bne	x14,x0,20000c3c <_binary_loader_binary_bin_start+0xaf4>
    20000c34:	01050513          	addi	x10,x10,16
    20000c38:	fca6f0e3          	bgeu	x13,x10,20000bf8 <_binary_loader_binary_bin_start+0xab0>
    20000c3c:	12a5ee63          	bltu	x11,x10,20000d78 <_binary_loader_binary_bin_start+0xc30>
    20000c40:	08a58463          	beq	x11,x10,20000cc8 <_binary_loader_binary_bin_start+0xb80>
    20000c44:	00a606b3          	add	x13,x12,x10
    20000c48:	0006c683          	lbu	x13,0(x13)
    20000c4c:	05968063          	beq	x13,x25,20000c8c <_binary_loader_binary_bin_start+0xb44>
    20000c50:	00150513          	addi	x10,x10,1
    20000c54:	fea598e3          	bne	x11,x10,20000c44 <_binary_loader_binary_bin_start+0xafc>
    20000c58:	0700006f          	jal	x0,20000cc8 <_binary_loader_binary_bin_start+0xb80>
    20000c5c:	40c50533          	sub	x10,x10,x12
    20000c60:	00b56463          	bltu	x10,x11,20000c68 <_binary_loader_binary_bin_start+0xb20>
    20000c64:	00058513          	addi	x10,x11,0
    20000c68:	00000693          	addi	x13,x0,0
    20000c6c:	00d60733          	add	x14,x12,x13
    20000c70:	00074703          	lbu	x14,0(x14)
    20000c74:	01970e63          	beq	x14,x25,20000c90 <_binary_loader_binary_bin_start+0xb48>
    20000c78:	00168693          	addi	x13,x13,1
    20000c7c:	fed518e3          	bne	x10,x13,20000c6c <_binary_loader_binary_bin_start+0xb24>
    20000c80:	ff058693          	addi	x13,x11,-16
    20000c84:	f6a6fae3          	bgeu	x13,x10,20000bf8 <_binary_loader_binary_bin_start+0xab0>
    20000c88:	fb9ff06f          	jal	x0,20000c40 <_binary_loader_binary_bin_start+0xaf8>
    20000c8c:	00050693          	addi	x13,x10,0
    20000c90:	01868533          	add	x10,x13,x24
    20000c94:	00150c13          	addi	x24,x10,1
    20000c98:	001c3593          	sltiu	x11,x24,1
    20000c9c:	018d3633          	sltu	x12,x26,x24
    20000ca0:	00c5e5b3          	or	x11,x11,x12
    20000ca4:	f00596e3          	bne	x11,x0,20000bb0 <_binary_loader_binary_bin_start+0xa68>
    20000ca8:	00a48533          	add	x10,x9,x10
    20000cac:	00054503          	lbu	x10,0(x10)
    20000cb0:	04814583          	lbu	x11,72(x2)
    20000cb4:	eeb51ee3          	bne	x10,x11,20000bb0 <_binary_loader_binary_bin_start+0xa68>
    20000cb8:	00000d93          	addi	x27,x0,0
    20000cbc:	000c0993          	addi	x19,x24,0
    20000cc0:	000c0413          	addi	x8,x24,0
    20000cc4:	0300006f          	jal	x0,20000cf4 <_binary_loader_binary_bin_start+0xbac>
    20000cc8:	000d0c13          	addi	x24,x26,0
    20000ccc:	0ffbf513          	andi	x10,x23,255
    20000cd0:	00a03533          	sltu	x10,x0,x10
    20000cd4:	01a945b3          	xor	x11,x18,x26
    20000cd8:	0015b593          	sltiu	x11,x11,1
    20000cdc:	00b56533          	or	x10,x10,x11
    20000ce0:	00100b93          	addi	x23,x0,1
    20000ce4:	00090993          	addi	x19,x18,0
    20000ce8:	00100d93          	addi	x27,x0,1
    20000cec:	000d0413          	addi	x8,x26,0
    20000cf0:	04051063          	bne	x10,x0,20000d30 <_binary_loader_binary_bin_start+0xbe8>
    20000cf4:	01813503          	ld	x10,24(x2)
    20000cf8:	00054503          	lbu	x10,0(x10)
    20000cfc:	02050063          	beq	x10,x0,20000d1c <_binary_loader_binary_bin_start+0xbd4>
    20000d00:	00813503          	ld	x10,8(x2)
    20000d04:	01853683          	ld	x13,24(x10)
    20000d08:	00400613          	addi	x12,x0,4
    20000d0c:	01013503          	ld	x10,16(x2)
    20000d10:	00013583          	ld	x11,0(x2)
    20000d14:	000680e7          	jalr	x1,0(x13)
    20000d18:	02051063          	bne	x10,x0,20000d38 <_binary_loader_binary_bin_start+0xbf0>
    20000d1c:	012485b3          	add	x11,x9,x18
    20000d20:	41240633          	sub	x12,x8,x18
    20000d24:	e52416e3          	bne	x8,x18,20000b70 <_binary_loader_binary_bin_start+0xa28>
    20000d28:	00000513          	addi	x10,x0,0
    20000d2c:	e55ff06f          	jal	x0,20000b80 <_binary_loader_binary_bin_start+0xa38>
    20000d30:	00000513          	addi	x10,x0,0
    20000d34:	0080006f          	jal	x0,20000d3c <_binary_loader_binary_bin_start+0xbf4>
    20000d38:	00100513          	addi	x10,x0,1
    20000d3c:	0c813083          	ld	x1,200(x2)
    20000d40:	0c013403          	ld	x8,192(x2)
    20000d44:	0b813483          	ld	x9,184(x2)
    20000d48:	0b013903          	ld	x18,176(x2)
    20000d4c:	0a813983          	ld	x19,168(x2)
    20000d50:	0a013a03          	ld	x20,160(x2)
    20000d54:	09813a83          	ld	x21,152(x2)
    20000d58:	09013b03          	ld	x22,144(x2)
    20000d5c:	08813b83          	ld	x23,136(x2)
    20000d60:	08013c03          	ld	x24,128(x2)
    20000d64:	07813c83          	ld	x25,120(x2)
    20000d68:	07013d03          	ld	x26,112(x2)
    20000d6c:	06813d83          	ld	x27,104(x2)
    20000d70:	0d010113          	addi	x2,x2,208
    20000d74:	00008067          	jalr	x0,0(x1)
    20000d78:	00003617          	auipc	x12,0x3
    20000d7c:	79860613          	addi	x12,x12,1944 # 20004510 <_binary_loader_binary_bin_start+0x43c8>
    20000d80:	00001097          	auipc	x1,0x1
    20000d84:	884080e7          	jalr	x1,-1916(x1) # 20001604 <_binary_loader_binary_bin_start+0x14bc>
    20000d88:	c0001073          	unimp
    20000d8c:	f5010113          	addi	x2,x2,-176
    20000d90:	0a113423          	sd	x1,168(x2)
    20000d94:	0a813023          	sd	x8,160(x2)
    20000d98:	08913c23          	sd	x9,152(x2)
    20000d9c:	09213823          	sd	x18,144(x2)
    20000da0:	09313423          	sd	x19,136(x2)
    20000da4:	09413023          	sd	x20,128(x2)
    20000da8:	07513c23          	sd	x21,120(x2)
    20000dac:	07613823          	sd	x22,112(x2)
    20000db0:	07713423          	sd	x23,104(x2)
    20000db4:	00050413          	addi	x8,x10,0
    20000db8:	00854503          	lbu	x10,8(x10)
    20000dbc:	00100b93          	addi	x23,x0,1
    20000dc0:	00100b13          	addi	x22,x0,1
    20000dc4:	02050e63          	beq	x10,x0,20000e00 <_binary_loader_binary_bin_start+0xcb8>
    20000dc8:	01640423          	sb	x22,8(x8)
    20000dcc:	017404a3          	sb	x23,9(x8)
    20000dd0:	00040513          	addi	x10,x8,0
    20000dd4:	0a813083          	ld	x1,168(x2)
    20000dd8:	0a013403          	ld	x8,160(x2)
    20000ddc:	09813483          	ld	x9,152(x2)
    20000de0:	09013903          	ld	x18,144(x2)
    20000de4:	08813983          	ld	x19,136(x2)
    20000de8:	08013a03          	ld	x20,128(x2)
    20000dec:	07813a83          	ld	x21,120(x2)
    20000df0:	07013b03          	ld	x22,112(x2)
    20000df4:	06813b83          	ld	x23,104(x2)
    20000df8:	0b010113          	addi	x2,x2,176
    20000dfc:	00008067          	jalr	x0,0(x1)
    20000e00:	00070493          	addi	x9,x14,0
    20000e04:	00068913          	addi	x18,x13,0
    20000e08:	00060a13          	addi	x20,x12,0
    20000e0c:	00058a93          	addi	x21,x11,0
    20000e10:	00043983          	ld	x19,0(x8)
    20000e14:	0309e503          	lwu	x10,48(x19)
    20000e18:	00944583          	lbu	x11,9(x8)
    20000e1c:	00457613          	andi	x12,x10,4
    20000e20:	00061c63          	bne	x12,x0,20000e38 <_binary_loader_binary_bin_start+0xcf0>
    20000e24:	0015b613          	sltiu	x12,x11,1
    20000e28:	10058463          	beq	x11,x0,20000f30 <_binary_loader_binary_bin_start+0xde8>
    20000e2c:	00003597          	auipc	x11,0x3
    20000e30:	62958593          	addi	x11,x11,1577 # 20004455 <_binary_loader_binary_bin_start+0x430d>
    20000e34:	1040006f          	jal	x0,20000f38 <_binary_loader_binary_bin_start+0xdf0>
    20000e38:	02059663          	bne	x11,x0,20000e64 <_binary_loader_binary_bin_start+0xd1c>
    20000e3c:	0089b583          	ld	x11,8(x19)
    20000e40:	0009b503          	ld	x10,0(x19)
    20000e44:	0185b683          	ld	x13,24(x11)
    20000e48:	00003597          	auipc	x11,0x3
    20000e4c:	60858593          	addi	x11,x11,1544 # 20004450 <_binary_loader_binary_bin_start+0x4308>
    20000e50:	00300613          	addi	x12,x0,3
    20000e54:	000680e7          	jalr	x1,0(x13)
    20000e58:	00100b13          	addi	x22,x0,1
    20000e5c:	f60516e3          	bne	x10,x0,20000dc8 <_binary_loader_binary_bin_start+0xc80>
    20000e60:	0309a503          	lw	x10,48(x19)
    20000e64:	00100b13          	addi	x22,x0,1
    20000e68:	036103a3          	sb	x22,39(x2)
    20000e6c:	0009b583          	ld	x11,0(x19)
    20000e70:	0089b603          	ld	x12,8(x19)
    20000e74:	00b13423          	sd	x11,8(x2)
    20000e78:	00c13823          	sd	x12,16(x2)
    20000e7c:	02710593          	addi	x11,x2,39
    20000e80:	00b13c23          	sd	x11,24(x2)
    20000e84:	0349a583          	lw	x11,52(x19)
    20000e88:	03898603          	lb	x12,56(x19)
    20000e8c:	0109b683          	ld	x13,16(x19)
    20000e90:	0189b703          	ld	x14,24(x19)
    20000e94:	0209b783          	ld	x15,32(x19)
    20000e98:	0289b803          	ld	x16,40(x19)
    20000e9c:	04a12c23          	sw	x10,88(x2)
    20000ea0:	04b12e23          	sw	x11,92(x2)
    20000ea4:	06c10023          	sb	x12,96(x2)
    20000ea8:	02d13c23          	sd	x13,56(x2)
    20000eac:	04e13023          	sd	x14,64(x2)
    20000eb0:	04f13423          	sd	x15,72(x2)
    20000eb4:	05013823          	sd	x16,80(x2)
    20000eb8:	00810513          	addi	x10,x2,8
    20000ebc:	02a13423          	sd	x10,40(x2)
    20000ec0:	00003517          	auipc	x10,0x3
    20000ec4:	76050513          	addi	x10,x10,1888 # 20004620 <_binary_loader_binary_bin_start+0x44d8>
    20000ec8:	02a13823          	sd	x10,48(x2)
    20000ecc:	00810513          	addi	x10,x2,8
    20000ed0:	000a8593          	addi	x11,x21,0
    20000ed4:	000a0613          	addi	x12,x20,0
    20000ed8:	00000097          	auipc	x1,0x0
    20000edc:	bdc080e7          	jalr	x1,-1060(x1) # 20000ab4 <_binary_loader_binary_bin_start+0x96c>
    20000ee0:	ee0514e3          	bne	x10,x0,20000dc8 <_binary_loader_binary_bin_start+0xc80>
    20000ee4:	00004597          	auipc	x11,0x4
    20000ee8:	89558593          	addi	x11,x11,-1899 # 20004779 <_binary_loader_binary_bin_start+0x4631>
    20000eec:	00810513          	addi	x10,x2,8
    20000ef0:	00200613          	addi	x12,x0,2
    20000ef4:	00000097          	auipc	x1,0x0
    20000ef8:	bc0080e7          	jalr	x1,-1088(x1) # 20000ab4 <_binary_loader_binary_bin_start+0x96c>
    20000efc:	ec0516e3          	bne	x10,x0,20000dc8 <_binary_loader_binary_bin_start+0xc80>
    20000f00:	02810593          	addi	x11,x2,40
    20000f04:	00090513          	addi	x10,x18,0
    20000f08:	000480e7          	jalr	x1,0(x9)
    20000f0c:	ea051ee3          	bne	x10,x0,20000dc8 <_binary_loader_binary_bin_start+0xc80>
    20000f10:	03013583          	ld	x11,48(x2)
    20000f14:	02813503          	ld	x10,40(x2)
    20000f18:	0185b683          	ld	x13,24(x11)
    20000f1c:	00003597          	auipc	x11,0x3
    20000f20:	53758593          	addi	x11,x11,1335 # 20004453 <_binary_loader_binary_bin_start+0x430b>
    20000f24:	00200613          	addi	x12,x0,2
    20000f28:	000680e7          	jalr	x1,0(x13)
    20000f2c:	0780006f          	jal	x0,20000fa4 <_binary_loader_binary_bin_start+0xe5c>
    20000f30:	00003597          	auipc	x11,0x3
    20000f34:	52758593          	addi	x11,x11,1319 # 20004457 <_binary_loader_binary_bin_start+0x430f>
    20000f38:	0089b683          	ld	x13,8(x19)
    20000f3c:	0009b503          	ld	x10,0(x19)
    20000f40:	0186b683          	ld	x13,24(x13)
    20000f44:	00266613          	ori	x12,x12,2
    20000f48:	000680e7          	jalr	x1,0(x13)
    20000f4c:	00100b13          	addi	x22,x0,1
    20000f50:	e6051ce3          	bne	x10,x0,20000dc8 <_binary_loader_binary_bin_start+0xc80>
    20000f54:	0089b583          	ld	x11,8(x19)
    20000f58:	0009b503          	ld	x10,0(x19)
    20000f5c:	0185b683          	ld	x13,24(x11)
    20000f60:	000a8593          	addi	x11,x21,0
    20000f64:	000a0613          	addi	x12,x20,0
    20000f68:	000680e7          	jalr	x1,0(x13)
    20000f6c:	00100b13          	addi	x22,x0,1
    20000f70:	e4051ce3          	bne	x10,x0,20000dc8 <_binary_loader_binary_bin_start+0xc80>
    20000f74:	0089b583          	ld	x11,8(x19)
    20000f78:	0009b503          	ld	x10,0(x19)
    20000f7c:	0185b683          	ld	x13,24(x11)
    20000f80:	00003597          	auipc	x11,0x3
    20000f84:	7f958593          	addi	x11,x11,2041 # 20004779 <_binary_loader_binary_bin_start+0x4631>
    20000f88:	00200613          	addi	x12,x0,2
    20000f8c:	000680e7          	jalr	x1,0(x13)
    20000f90:	00100b13          	addi	x22,x0,1
    20000f94:	e2051ae3          	bne	x10,x0,20000dc8 <_binary_loader_binary_bin_start+0xc80>
    20000f98:	00090513          	addi	x10,x18,0
    20000f9c:	00098593          	addi	x11,x19,0
    20000fa0:	000480e7          	jalr	x1,0(x9)
    20000fa4:	00050b13          	addi	x22,x10,0
    20000fa8:	e21ff06f          	jal	x0,20000dc8 <_binary_loader_binary_bin_start+0xc80>
    20000fac:	ff010113          	addi	x2,x2,-16
    20000fb0:	00113423          	sd	x1,8(x2)
    20000fb4:	0005861b          	addiw	x12,x11,0
    20000fb8:	08000693          	addi	x13,x0,128
    20000fbc:	00012223          	sw	x0,4(x2)
    20000fc0:	00d67863          	bgeu	x12,x13,20000fd0 <_binary_loader_binary_bin_start+0xe88>
    20000fc4:	00b10223          	sb	x11,4(x2)
    20000fc8:	00100613          	addi	x12,x0,1
    20000fcc:	0b40006f          	jal	x0,20001080 <_binary_loader_binary_bin_start+0xf38>
    20000fd0:	00b5d61b          	srliw	x12,x11,0xb
    20000fd4:	02061263          	bne	x12,x0,20000ff8 <_binary_loader_binary_bin_start+0xeb0>
    20000fd8:	0065d613          	srli	x12,x11,0x6
    20000fdc:	0c066613          	ori	x12,x12,192
    20000fe0:	00c10223          	sb	x12,4(x2)
    20000fe4:	03f5f593          	andi	x11,x11,63
    20000fe8:	0805e593          	ori	x11,x11,128
    20000fec:	00b102a3          	sb	x11,5(x2)
    20000ff0:	00200613          	addi	x12,x0,2
    20000ff4:	08c0006f          	jal	x0,20001080 <_binary_loader_binary_bin_start+0xf38>
    20000ff8:	0105d61b          	srliw	x12,x11,0x10
    20000ffc:	02061e63          	bne	x12,x0,20001038 <_binary_loader_binary_bin_start+0xef0>
    20001000:	02059613          	slli	x12,x11,0x20
    20001004:	02065613          	srli	x12,x12,0x20
    20001008:	00c5d69b          	srliw	x13,x11,0xc
    2000100c:	0e06e693          	ori	x13,x13,224
    20001010:	00d10223          	sb	x13,4(x2)
    20001014:	03461613          	slli	x12,x12,0x34
    20001018:	03a65613          	srli	x12,x12,0x3a
    2000101c:	08066613          	ori	x12,x12,128
    20001020:	00c102a3          	sb	x12,5(x2)
    20001024:	03f5f593          	andi	x11,x11,63
    20001028:	0805e593          	ori	x11,x11,128
    2000102c:	00b10323          	sb	x11,6(x2)
    20001030:	00300613          	addi	x12,x0,3
    20001034:	04c0006f          	jal	x0,20001080 <_binary_loader_binary_bin_start+0xf38>
    20001038:	02059613          	slli	x12,x11,0x20
    2000103c:	02065613          	srli	x12,x12,0x20
    20001040:	02b61693          	slli	x13,x12,0x2b
    20001044:	03d6d693          	srli	x13,x13,0x3d
    20001048:	0f06e693          	ori	x13,x13,240
    2000104c:	00d10223          	sb	x13,4(x2)
    20001050:	02e61693          	slli	x13,x12,0x2e
    20001054:	03a6d693          	srli	x13,x13,0x3a
    20001058:	0806e693          	ori	x13,x13,128
    2000105c:	00d102a3          	sb	x13,5(x2)
    20001060:	03461613          	slli	x12,x12,0x34
    20001064:	03a65613          	srli	x12,x12,0x3a
    20001068:	08066613          	ori	x12,x12,128
    2000106c:	00c10323          	sb	x12,6(x2)
    20001070:	03f5f593          	andi	x11,x11,63
    20001074:	0805e593          	ori	x11,x11,128
    20001078:	00b103a3          	sb	x11,7(x2)
    2000107c:	00400613          	addi	x12,x0,4
    20001080:	00410593          	addi	x11,x2,4
    20001084:	00000097          	auipc	x1,0x0
    20001088:	a30080e7          	jalr	x1,-1488(x1) # 20000ab4 <_binary_loader_binary_bin_start+0x96c>
    2000108c:	00813083          	ld	x1,8(x2)
    20001090:	01010113          	addi	x2,x2,16
    20001094:	00008067          	jalr	x0,0(x1)
    20001098:	fc010113          	addi	x2,x2,-64
    2000109c:	02113c23          	sd	x1,56(x2)
    200010a0:	0285b603          	ld	x12,40(x11)
    200010a4:	0205b683          	ld	x13,32(x11)
    200010a8:	00a13023          	sd	x10,0(x2)
    200010ac:	02c13823          	sd	x12,48(x2)
    200010b0:	02d13423          	sd	x13,40(x2)
    200010b4:	0185b503          	ld	x10,24(x11)
    200010b8:	0105b603          	ld	x12,16(x11)
    200010bc:	0085b683          	ld	x13,8(x11)
    200010c0:	0005b583          	ld	x11,0(x11)
    200010c4:	02a13023          	sd	x10,32(x2)
    200010c8:	00c13c23          	sd	x12,24(x2)
    200010cc:	00d13823          	sd	x13,16(x2)
    200010d0:	00b13423          	sd	x11,8(x2)
    200010d4:	00003597          	auipc	x11,0x3
    200010d8:	39458593          	addi	x11,x11,916 # 20004468 <_binary_loader_binary_bin_start+0x4320>
    200010dc:	00010513          	addi	x10,x2,0
    200010e0:	00810613          	addi	x12,x2,8
    200010e4:	00001097          	auipc	x1,0x1
    200010e8:	904080e7          	jalr	x1,-1788(x1) # 200019e8 <_binary_loader_binary_bin_start+0x18a0>
    200010ec:	03813083          	ld	x1,56(x2)
    200010f0:	04010113          	addi	x2,x2,64
    200010f4:	00008067          	jalr	x0,0(x1)
    200010f8:	00053503          	ld	x10,0(x10)
    200010fc:	00000317          	auipc	x6,0x0
    20001100:	9b830067          	jalr	x0,-1608(x6) # 20000ab4 <_binary_loader_binary_bin_start+0x96c>
    20001104:	ff010113          	addi	x2,x2,-16
    20001108:	00113423          	sd	x1,8(x2)
    2000110c:	00053503          	ld	x10,0(x10)
    20001110:	0005861b          	addiw	x12,x11,0
    20001114:	08000693          	addi	x13,x0,128
    20001118:	00012223          	sw	x0,4(x2)
    2000111c:	00d67863          	bgeu	x12,x13,2000112c <_binary_loader_binary_bin_start+0xfe4>
    20001120:	00b10223          	sb	x11,4(x2)
    20001124:	00100613          	addi	x12,x0,1
    20001128:	0b40006f          	jal	x0,200011dc <_binary_loader_binary_bin_start+0x1094>
    2000112c:	00b5d61b          	srliw	x12,x11,0xb
    20001130:	02061263          	bne	x12,x0,20001154 <_binary_loader_binary_bin_start+0x100c>
    20001134:	0065d613          	srli	x12,x11,0x6
    20001138:	0c066613          	ori	x12,x12,192
    2000113c:	00c10223          	sb	x12,4(x2)
    20001140:	03f5f593          	andi	x11,x11,63
    20001144:	0805e593          	ori	x11,x11,128
    20001148:	00b102a3          	sb	x11,5(x2)
    2000114c:	00200613          	addi	x12,x0,2
    20001150:	08c0006f          	jal	x0,200011dc <_binary_loader_binary_bin_start+0x1094>
    20001154:	0105d61b          	srliw	x12,x11,0x10
    20001158:	02061e63          	bne	x12,x0,20001194 <_binary_loader_binary_bin_start+0x104c>
    2000115c:	02059613          	slli	x12,x11,0x20
    20001160:	02065613          	srli	x12,x12,0x20
    20001164:	00c5d69b          	srliw	x13,x11,0xc
    20001168:	0e06e693          	ori	x13,x13,224
    2000116c:	00d10223          	sb	x13,4(x2)
    20001170:	03461613          	slli	x12,x12,0x34
    20001174:	03a65613          	srli	x12,x12,0x3a
    20001178:	08066613          	ori	x12,x12,128
    2000117c:	00c102a3          	sb	x12,5(x2)
    20001180:	03f5f593          	andi	x11,x11,63
    20001184:	0805e593          	ori	x11,x11,128
    20001188:	00b10323          	sb	x11,6(x2)
    2000118c:	00300613          	addi	x12,x0,3
    20001190:	04c0006f          	jal	x0,200011dc <_binary_loader_binary_bin_start+0x1094>
    20001194:	02059613          	slli	x12,x11,0x20
    20001198:	02065613          	srli	x12,x12,0x20
    2000119c:	02b61693          	slli	x13,x12,0x2b
    200011a0:	03d6d693          	srli	x13,x13,0x3d
    200011a4:	0f06e693          	ori	x13,x13,240
    200011a8:	00d10223          	sb	x13,4(x2)
    200011ac:	02e61693          	slli	x13,x12,0x2e
    200011b0:	03a6d693          	srli	x13,x13,0x3a
    200011b4:	0806e693          	ori	x13,x13,128
    200011b8:	00d102a3          	sb	x13,5(x2)
    200011bc:	03461613          	slli	x12,x12,0x34
    200011c0:	03a65613          	srli	x12,x12,0x3a
    200011c4:	08066613          	ori	x12,x12,128
    200011c8:	00c10323          	sb	x12,6(x2)
    200011cc:	03f5f593          	andi	x11,x11,63
    200011d0:	0805e593          	ori	x11,x11,128
    200011d4:	00b103a3          	sb	x11,7(x2)
    200011d8:	00400613          	addi	x12,x0,4
    200011dc:	00410593          	addi	x11,x2,4
    200011e0:	00000097          	auipc	x1,0x0
    200011e4:	8d4080e7          	jalr	x1,-1836(x1) # 20000ab4 <_binary_loader_binary_bin_start+0x96c>
    200011e8:	00813083          	ld	x1,8(x2)
    200011ec:	01010113          	addi	x2,x2,16
    200011f0:	00008067          	jalr	x0,0(x1)
    200011f4:	fc010113          	addi	x2,x2,-64
    200011f8:	02113c23          	sd	x1,56(x2)
    200011fc:	00053503          	ld	x10,0(x10)
    20001200:	0285b603          	ld	x12,40(x11)
    20001204:	0205b683          	ld	x13,32(x11)
    20001208:	00a13023          	sd	x10,0(x2)
    2000120c:	02c13823          	sd	x12,48(x2)
    20001210:	02d13423          	sd	x13,40(x2)
    20001214:	0185b503          	ld	x10,24(x11)
    20001218:	0105b603          	ld	x12,16(x11)
    2000121c:	0085b683          	ld	x13,8(x11)
    20001220:	0005b583          	ld	x11,0(x11)
    20001224:	02a13023          	sd	x10,32(x2)
    20001228:	00c13c23          	sd	x12,24(x2)
    2000122c:	00d13823          	sd	x13,16(x2)
    20001230:	00b13423          	sd	x11,8(x2)
    20001234:	00003597          	auipc	x11,0x3
    20001238:	23458593          	addi	x11,x11,564 # 20004468 <_binary_loader_binary_bin_start+0x4320>
    2000123c:	00010513          	addi	x10,x2,0
    20001240:	00810613          	addi	x12,x2,8
    20001244:	00000097          	auipc	x1,0x0
    20001248:	7a4080e7          	jalr	x1,1956(x1) # 200019e8 <_binary_loader_binary_bin_start+0x18a0>
    2000124c:	03813083          	ld	x1,56(x2)
    20001250:	04010113          	addi	x2,x2,64
    20001254:	00008067          	jalr	x0,0(x1)
    20001258:	fc010113          	addi	x2,x2,-64
    2000125c:	02113c23          	sd	x1,56(x2)
    20001260:	02813823          	sd	x8,48(x2)
    20001264:	00053503          	ld	x10,0(x10)
    20001268:	00053503          	ld	x10,0(x10)
    2000126c:	00058413          	addi	x8,x11,0
    20001270:	00a13423          	sd	x10,8(x2)
    20001274:	01050593          	addi	x11,x10,16
    20001278:	00b13823          	sd	x11,16(x2)
    2000127c:	00843583          	ld	x11,8(x8)
    20001280:	01450513          	addi	x10,x10,20
    20001284:	00a13c23          	sd	x10,24(x2)
    20001288:	00043503          	ld	x10,0(x8)
    2000128c:	0185b683          	ld	x13,24(x11)
    20001290:	00003597          	auipc	x11,0x3
    20001294:	0d658593          	addi	x11,x11,214 # 20004366 <_binary_loader_binary_bin_start+0x421e>
    20001298:	00800613          	addi	x12,x0,8
    2000129c:	000680e7          	jalr	x1,0(x13)
    200012a0:	02813023          	sd	x8,32(x2)
    200012a4:	02a10423          	sb	x10,40(x2)
    200012a8:	020104a3          	sb	x0,41(x2)
    200012ac:	00003597          	auipc	x11,0x3
    200012b0:	01258593          	addi	x11,x11,18 # 200042be <_binary_loader_binary_bin_start+0x4176>
    200012b4:	00001717          	auipc	x14,0x1
    200012b8:	7a470713          	addi	x14,x14,1956 # 20002a58 <_binary_loader_binary_bin_start+0x2910>
    200012bc:	02010513          	addi	x10,x2,32
    200012c0:	00400613          	addi	x12,x0,4
    200012c4:	00810693          	addi	x13,x2,8
    200012c8:	00000097          	auipc	x1,0x0
    200012cc:	ac4080e7          	jalr	x1,-1340(x1) # 20000d8c <_binary_loader_binary_bin_start+0xc44>
    200012d0:	00003597          	auipc	x11,0x3
    200012d4:	ff258593          	addi	x11,x11,-14 # 200042c2 <_binary_loader_binary_bin_start+0x417a>
    200012d8:	00002417          	auipc	x8,0x2
    200012dc:	cc840413          	addi	x8,x8,-824 # 20002fa0 <_binary_loader_binary_bin_start+0x2e58>
    200012e0:	02010513          	addi	x10,x2,32
    200012e4:	00400613          	addi	x12,x0,4
    200012e8:	01010693          	addi	x13,x2,16
    200012ec:	00040713          	addi	x14,x8,0
    200012f0:	00000097          	auipc	x1,0x0
    200012f4:	a9c080e7          	jalr	x1,-1380(x1) # 20000d8c <_binary_loader_binary_bin_start+0xc44>
    200012f8:	00003597          	auipc	x11,0x3
    200012fc:	1a058593          	addi	x11,x11,416 # 20004498 <_binary_loader_binary_bin_start+0x4350>
    20001300:	02010513          	addi	x10,x2,32
    20001304:	00300613          	addi	x12,x0,3
    20001308:	01810693          	addi	x13,x2,24
    2000130c:	00040713          	addi	x14,x8,0
    20001310:	00000097          	auipc	x1,0x0
    20001314:	a7c080e7          	jalr	x1,-1412(x1) # 20000d8c <_binary_loader_binary_bin_start+0xc44>
    20001318:	02914503          	lbu	x10,41(x2)
    2000131c:	02814583          	lbu	x11,40(x2)
    20001320:	04050c63          	beq	x10,x0,20001378 <_binary_loader_binary_bin_start+0x1230>
    20001324:	00100513          	addi	x10,x0,1
    20001328:	04059663          	bne	x11,x0,20001374 <_binary_loader_binary_bin_start+0x122c>
    2000132c:	02013503          	ld	x10,32(x2)
    20001330:	03054583          	lbu	x11,48(x10)
    20001334:	0045f593          	andi	x11,x11,4
    20001338:	02059063          	bne	x11,x0,20001358 <_binary_loader_binary_bin_start+0x1210>
    2000133c:	00853583          	ld	x11,8(x10)
    20001340:	00053503          	ld	x10,0(x10)
    20001344:	0185b683          	ld	x13,24(x11)
    20001348:	00003597          	auipc	x11,0x3
    2000134c:	11a58593          	addi	x11,x11,282 # 20004462 <_binary_loader_binary_bin_start+0x431a>
    20001350:	00200613          	addi	x12,x0,2
    20001354:	01c0006f          	jal	x0,20001370 <_binary_loader_binary_bin_start+0x1228>
    20001358:	00853583          	ld	x11,8(x10)
    2000135c:	00053503          	ld	x10,0(x10)
    20001360:	0185b683          	ld	x13,24(x11)
    20001364:	00003597          	auipc	x11,0x3
    20001368:	0f658593          	addi	x11,x11,246 # 2000445a <_binary_loader_binary_bin_start+0x4312>
    2000136c:	00100613          	addi	x12,x0,1
    20001370:	000680e7          	jalr	x1,0(x13)
    20001374:	00050593          	addi	x11,x10,0
    20001378:	00b03533          	sltu	x10,x0,x11
    2000137c:	03813083          	ld	x1,56(x2)
    20001380:	03013403          	ld	x8,48(x2)
    20001384:	04010113          	addi	x2,x2,64
    20001388:	00008067          	jalr	x0,0(x1)
    2000138c:	ff010113          	addi	x2,x2,-16
    20001390:	00113423          	sd	x1,8(x2)
    20001394:	00053603          	ld	x12,0(x10)
    20001398:	00063683          	ld	x13,0(x12)
    2000139c:	00058513          	addi	x10,x11,0
    200013a0:	02068463          	beq	x13,x0,200013c8 <_binary_loader_binary_bin_start+0x1280>
    200013a4:	00c13023          	sd	x12,0(x2)
    200013a8:	00002617          	auipc	x12,0x2
    200013ac:	d5060613          	addi	x12,x12,-688 # 200030f8 <_binary_loader_binary_bin_start+0x2fb0>
    200013b0:	00010593          	addi	x11,x2,0
    200013b4:	00001097          	auipc	x1,0x1
    200013b8:	200080e7          	jalr	x1,512(x1) # 200025b4 <_binary_loader_binary_bin_start+0x246c>
    200013bc:	00813083          	ld	x1,8(x2)
    200013c0:	01010113          	addi	x2,x2,16
    200013c4:	00008067          	jalr	x0,0(x1)
    200013c8:	00853583          	ld	x11,8(x10)
    200013cc:	00053503          	ld	x10,0(x10)
    200013d0:	0185b303          	ld	x6,24(x11)
    200013d4:	00003597          	auipc	x11,0x3
    200013d8:	ef258593          	addi	x11,x11,-270 # 200042c6 <_binary_loader_binary_bin_start+0x417e>
    200013dc:	00400613          	addi	x12,x0,4
    200013e0:	00813083          	ld	x1,8(x2)
    200013e4:	01010113          	addi	x2,x2,16
    200013e8:	00030067          	jalr	x0,0(x6)
    200013ec:	00004517          	auipc	x10,0x4
    200013f0:	fbc50513          	addi	x10,x10,-68 # 200053a8 <_binary_loader_binary_bin_start+0x5260>
    200013f4:	00053503          	ld	x10,0(x10)
    200013f8:	00008067          	jalr	x0,0(x1)
    200013fc:	f8010113          	addi	x2,x2,-128
    20001400:	06113c23          	sd	x1,120(x2)
    20001404:	06813823          	sd	x8,112(x2)
    20001408:	06913423          	sd	x9,104(x2)
    2000140c:	07213023          	sd	x18,96(x2)
    20001410:	05313c23          	sd	x19,88(x2)
    20001414:	05413823          	sd	x20,80(x2)
    20001418:	05513423          	sd	x21,72(x2)
    2000141c:	05613023          	sd	x22,64(x2)
    20001420:	03713c23          	sd	x23,56(x2)
    20001424:	03813823          	sd	x24,48(x2)
    20001428:	03913423          	sd	x25,40(x2)
    2000142c:	00058413          	addi	x8,x11,0
    20001430:	00050493          	addi	x9,x10,0
    20001434:	00455513          	srli	x10,x10,0x4
    20001438:	02700913          	addi	x18,x0,39
    2000143c:	27100593          	addi	x11,x0,625
    20001440:	00003a97          	auipc	x21,0x3
    20001444:	d42a8a93          	addi	x21,x21,-702 # 20004182 <_binary_loader_binary_bin_start+0x403a>
    20001448:	02b57663          	bgeu	x10,x11,20001474 <_binary_loader_binary_bin_start+0x132c>
    2000144c:	06300513          	addi	x10,x0,99
    20001450:	0c956863          	bltu	x10,x9,20001520 <_binary_loader_binary_bin_start+0x13d8>
    20001454:	00a00513          	addi	x10,x0,10
    20001458:	12a4f063          	bgeu	x9,x10,20001578 <_binary_loader_binary_bin_start+0x1430>
    2000145c:	fff90513          	addi	x10,x18,-1
    20001460:	00110593          	addi	x11,x2,1
    20001464:	00a585b3          	add	x11,x11,x10
    20001468:	0304861b          	addiw	x12,x9,48
    2000146c:	00c58023          	sb	x12,0(x11)
    20001470:	12c0006f          	jal	x0,2000159c <_binary_loader_binary_bin_start+0x1454>
    20001474:	00000b13          	addi	x22,x0,0
    20001478:	00002537          	lui	x10,0x2
    2000147c:	7105091b          	addiw	x18,x10,1808
    20001480:	00110b93          	addi	x23,x2,1
    20001484:	05f5e537          	lui	x10,0x5f5e
    20001488:	0ff50c1b          	addiw	x24,x10,255
    2000148c:	00048993          	addi	x19,x9,0
    20001490:	00048513          	addi	x10,x9,0
    20001494:	00090593          	addi	x11,x18,0
    20001498:	00002097          	auipc	x1,0x2
    2000149c:	728080e7          	jalr	x1,1832(x1) # 20003bc0 <_binary_loader_binary_bin_start+0x3a78>
    200014a0:	00050a13          	addi	x20,x10,0 # 5f5e000 <_binary_loader_binary_bin_size+0x5f58d60>
    200014a4:	00048513          	addi	x10,x9,0
    200014a8:	00090593          	addi	x11,x18,0
    200014ac:	00002097          	auipc	x1,0x2
    200014b0:	70c080e7          	jalr	x1,1804(x1) # 20003bb8 <_binary_loader_binary_bin_start+0x3a70>
    200014b4:	00050493          	addi	x9,x10,0
    200014b8:	06400593          	addi	x11,x0,100
    200014bc:	000a0513          	addi	x10,x20,0
    200014c0:	00002097          	auipc	x1,0x2
    200014c4:	6f8080e7          	jalr	x1,1784(x1) # 20003bb8 <_binary_loader_binary_bin_start+0x3a70>
    200014c8:	00151c93          	slli	x25,x10,0x1
    200014cc:	06400593          	addi	x11,x0,100
    200014d0:	000a0513          	addi	x10,x20,0
    200014d4:	00002097          	auipc	x1,0x2
    200014d8:	6ec080e7          	jalr	x1,1772(x1) # 20003bc0 <_binary_loader_binary_bin_start+0x3a78>
    200014dc:	00151513          	slli	x10,x10,0x1
    200014e0:	019a85b3          	add	x11,x21,x25
    200014e4:	016b8633          	add	x12,x23,x22
    200014e8:	0005c683          	lbu	x13,0(x11)
    200014ec:	00158583          	lb	x11,1(x11)
    200014f0:	00aa8533          	add	x10,x21,x10
    200014f4:	00150703          	lb	x14,1(x10)
    200014f8:	00054503          	lbu	x10,0(x10)
    200014fc:	02b60223          	sb	x11,36(x12)
    20001500:	02d601a3          	sb	x13,35(x12)
    20001504:	02e60323          	sb	x14,38(x12)
    20001508:	02a602a3          	sb	x10,37(x12)
    2000150c:	ffcb0b13          	addi	x22,x22,-4
    20001510:	f73c6ee3          	bltu	x24,x19,2000148c <_binary_loader_binary_bin_start+0x1344>
    20001514:	027b0913          	addi	x18,x22,39
    20001518:	06300513          	addi	x10,x0,99
    2000151c:	f2957ce3          	bgeu	x10,x9,20001454 <_binary_loader_binary_bin_start+0x130c>
    20001520:	03049513          	slli	x10,x9,0x30
    20001524:	03055493          	srli	x9,x10,0x30
    20001528:	06400593          	addi	x11,x0,100
    2000152c:	00048513          	addi	x10,x9,0
    20001530:	00002097          	auipc	x1,0x2
    20001534:	690080e7          	jalr	x1,1680(x1) # 20003bc0 <_binary_loader_binary_bin_start+0x3a78>
    20001538:	00151993          	slli	x19,x10,0x1
    2000153c:	06400593          	addi	x11,x0,100
    20001540:	00048513          	addi	x10,x9,0
    20001544:	00002097          	auipc	x1,0x2
    20001548:	674080e7          	jalr	x1,1652(x1) # 20003bb8 <_binary_loader_binary_bin_start+0x3a70>
    2000154c:	00050493          	addi	x9,x10,0
    20001550:	ffe90913          	addi	x18,x18,-2
    20001554:	013a8533          	add	x10,x21,x19
    20001558:	00150583          	lb	x11,1(x10)
    2000155c:	00054503          	lbu	x10,0(x10)
    20001560:	00110613          	addi	x12,x2,1
    20001564:	01260633          	add	x12,x12,x18
    20001568:	00b600a3          	sb	x11,1(x12)
    2000156c:	00a60023          	sb	x10,0(x12)
    20001570:	00a00513          	addi	x10,x0,10
    20001574:	eea4e4e3          	bltu	x9,x10,2000145c <_binary_loader_binary_bin_start+0x1314>
    20001578:	00149593          	slli	x11,x9,0x1
    2000157c:	ffe90513          	addi	x10,x18,-2
    20001580:	00ba85b3          	add	x11,x21,x11
    20001584:	00158603          	lb	x12,1(x11)
    20001588:	0005c583          	lbu	x11,0(x11)
    2000158c:	00110693          	addi	x13,x2,1
    20001590:	00a686b3          	add	x13,x13,x10
    20001594:	00c680a3          	sb	x12,1(x13)
    20001598:	00b68023          	sb	x11,0(x13)
    2000159c:	00110593          	addi	x11,x2,1
    200015a0:	00a586b3          	add	x13,x11,x10
    200015a4:	02700593          	addi	x11,x0,39
    200015a8:	40a58733          	sub	x14,x11,x10
    200015ac:	00004597          	auipc	x11,0x4
    200015b0:	cfc58593          	addi	x11,x11,-772 # 200052a8 <_binary_loader_binary_bin_start+0x5160>
    200015b4:	00040513          	addi	x10,x8,0
    200015b8:	00000613          	addi	x12,x0,0
    200015bc:	00000097          	auipc	x1,0x0
    200015c0:	69c080e7          	jalr	x1,1692(x1) # 20001c58 <_binary_loader_binary_bin_start+0x1b10>
    200015c4:	07813083          	ld	x1,120(x2)
    200015c8:	07013403          	ld	x8,112(x2)
    200015cc:	06813483          	ld	x9,104(x2)
    200015d0:	06013903          	ld	x18,96(x2)
    200015d4:	05813983          	ld	x19,88(x2)
    200015d8:	05013a03          	ld	x20,80(x2)
    200015dc:	04813a83          	ld	x21,72(x2)
    200015e0:	04013b03          	ld	x22,64(x2)
    200015e4:	03813b83          	ld	x23,56(x2)
    200015e8:	03013c03          	ld	x24,48(x2)
    200015ec:	02813c83          	ld	x25,40(x2)
    200015f0:	08010113          	addi	x2,x2,128
    200015f4:	00008067          	jalr	x0,0(x1)
    200015f8:	00053503          	ld	x10,0(x10)
    200015fc:	00000317          	auipc	x6,0x0
    20001600:	e0030067          	jalr	x0,-512(x6) # 200013fc <_binary_loader_binary_bin_start+0x12b4>
    20001604:	00000097          	auipc	x1,0x0
    20001608:	00c080e7          	jalr	x1,12(x1) # 20001610 <_binary_loader_binary_bin_start+0x14c8>
    2000160c:	c0001073          	unimp
    20001610:	fa010113          	addi	x2,x2,-96
    20001614:	00a13023          	sd	x10,0(x2)
    20001618:	00b13423          	sd	x11,8(x2)
    2000161c:	00010513          	addi	x10,x2,0
    20001620:	04a13023          	sd	x10,64(x2)
    20001624:	00000517          	auipc	x10,0x0
    20001628:	fd450513          	addi	x10,x10,-44 # 200015f8 <_binary_loader_binary_bin_start+0x14b0>
    2000162c:	04a13423          	sd	x10,72(x2)
    20001630:	00810593          	addi	x11,x2,8
    20001634:	04b13823          	sd	x11,80(x2)
    20001638:	04a13c23          	sd	x10,88(x2)
    2000163c:	00003517          	auipc	x10,0x3
    20001640:	f5c50513          	addi	x10,x10,-164 # 20004598 <_binary_loader_binary_bin_start+0x4450>
    20001644:	02a13023          	sd	x10,32(x2)
    20001648:	00200513          	addi	x10,x0,2
    2000164c:	02a13423          	sd	x10,40(x2)
    20001650:	00013823          	sd	x0,16(x2)
    20001654:	04010593          	addi	x11,x2,64
    20001658:	02b13823          	sd	x11,48(x2)
    2000165c:	02a13c23          	sd	x10,56(x2)
    20001660:	01010513          	addi	x10,x2,16
    20001664:	00060593          	addi	x11,x12,0
    20001668:	00002097          	auipc	x1,0x2
    2000166c:	bb4080e7          	jalr	x1,-1100(x1) # 2000321c <_binary_loader_binary_bin_start+0x30d4>
    20001670:	c0001073          	unimp
    20001674:	f6010113          	addi	x2,x2,-160
    20001678:	08113c23          	sd	x1,152(x2)
    2000167c:	08813823          	sd	x8,144(x2)
    20001680:	08913423          	sd	x9,136(x2)
    20001684:	09213023          	sd	x18,128(x2)
    20001688:	00058413          	addi	x8,x11,0
    2000168c:	0305e583          	lwu	x11,48(x11)
    20001690:	0105f613          	andi	x12,x11,16
    20001694:	00050493          	addi	x9,x10,0
    20001698:	02061463          	bne	x12,x0,200016c0 <_binary_loader_binary_bin_start+0x1578>
    2000169c:	0205f513          	andi	x10,x11,32
    200016a0:	06051463          	bne	x10,x0,20001708 <_binary_loader_binary_bin_start+0x15c0>
    200016a4:	0004b503          	ld	x10,0(x9)
    200016a8:	00040593          	addi	x11,x8,0
    200016ac:	00000097          	auipc	x1,0x0
    200016b0:	d50080e7          	jalr	x1,-688(x1) # 200013fc <_binary_loader_binary_bin_start+0x12b4>
    200016b4:	00100913          	addi	x18,x0,1
    200016b8:	0c050a63          	beq	x10,x0,2000178c <_binary_loader_binary_bin_start+0x1644>
    200016bc:	2100006f          	jal	x0,200018cc <_binary_loader_binary_bin_start+0x1784>
    200016c0:	00000593          	addi	x11,x0,0
    200016c4:	0004b803          	ld	x16,0(x9)
    200016c8:	00010513          	addi	x10,x2,0
    200016cc:	00a00613          	addi	x12,x0,10
    200016d0:	00f00693          	addi	x13,x0,15
    200016d4:	01c0006f          	jal	x0,200016f0 <_binary_loader_binary_bin_start+0x15a8>
    200016d8:	00b502b3          	add	x5,x10,x11
    200016dc:	00475813          	srli	x16,x14,0x4
    200016e0:	00f887bb          	addw	x15,x17,x15
    200016e4:	06f28fa3          	sb	x15,127(x5)
    200016e8:	fff58593          	addi	x11,x11,-1
    200016ec:	06e6f263          	bgeu	x13,x14,20001750 <_binary_loader_binary_bin_start+0x1608>
    200016f0:	00080713          	addi	x14,x16,0
    200016f4:	00f87793          	andi	x15,x16,15
    200016f8:	03000893          	addi	x17,x0,48
    200016fc:	fcc7eee3          	bltu	x15,x12,200016d8 <_binary_loader_binary_bin_start+0x1590>
    20001700:	05700893          	addi	x17,x0,87
    20001704:	fd5ff06f          	jal	x0,200016d8 <_binary_loader_binary_bin_start+0x1590>
    20001708:	00000593          	addi	x11,x0,0
    2000170c:	0004b803          	ld	x16,0(x9)
    20001710:	00010513          	addi	x10,x2,0
    20001714:	00a00613          	addi	x12,x0,10
    20001718:	00f00693          	addi	x13,x0,15
    2000171c:	01c0006f          	jal	x0,20001738 <_binary_loader_binary_bin_start+0x15f0>
    20001720:	00b502b3          	add	x5,x10,x11
    20001724:	00475813          	srli	x16,x14,0x4
    20001728:	00f887bb          	addw	x15,x17,x15
    2000172c:	06f28fa3          	sb	x15,127(x5)
    20001730:	fff58593          	addi	x11,x11,-1
    20001734:	00e6fe63          	bgeu	x13,x14,20001750 <_binary_loader_binary_bin_start+0x1608>
    20001738:	00080713          	addi	x14,x16,0
    2000173c:	00f87793          	andi	x15,x16,15
    20001740:	03000893          	addi	x17,x0,48
    20001744:	fcc7eee3          	bltu	x15,x12,20001720 <_binary_loader_binary_bin_start+0x15d8>
    20001748:	03700893          	addi	x17,x0,55
    2000174c:	fd5ff06f          	jal	x0,20001720 <_binary_loader_binary_bin_start+0x15d8>
    20001750:	08058513          	addi	x10,x11,128
    20001754:	08100613          	addi	x12,x0,129
    20001758:	18c57863          	bgeu	x10,x12,200018e8 <_binary_loader_binary_bin_start+0x17a0>
    2000175c:	00010513          	addi	x10,x2,0
    20001760:	00b50533          	add	x10,x10,x11
    20001764:	08050693          	addi	x13,x10,128
    20001768:	40b00733          	sub	x14,x0,x11
    2000176c:	00003597          	auipc	x11,0x3
    20001770:	a1458593          	addi	x11,x11,-1516 # 20004180 <_binary_loader_binary_bin_start+0x4038>
    20001774:	00200613          	addi	x12,x0,2
    20001778:	00040513          	addi	x10,x8,0
    2000177c:	00000097          	auipc	x1,0x0
    20001780:	4dc080e7          	jalr	x1,1244(x1) # 20001c58 <_binary_loader_binary_bin_start+0x1b10>
    20001784:	00100913          	addi	x18,x0,1
    20001788:	14051263          	bne	x10,x0,200018cc <_binary_loader_binary_bin_start+0x1784>
    2000178c:	00043503          	ld	x10,0(x8)
    20001790:	00843583          	ld	x11,8(x8)
    20001794:	00013023          	sd	x0,0(x2)
    20001798:	00003617          	auipc	x12,0x3
    2000179c:	db860613          	addi	x12,x12,-584 # 20004550 <_binary_loader_binary_bin_start+0x4408>
    200017a0:	00c13823          	sd	x12,16(x2)
    200017a4:	00100913          	addi	x18,x0,1
    200017a8:	01213c23          	sd	x18,24(x2)
    200017ac:	00004617          	auipc	x12,0x4
    200017b0:	afc60613          	addi	x12,x12,-1284 # 200052a8 <_binary_loader_binary_bin_start+0x5160>
    200017b4:	02c13023          	sd	x12,32(x2)
    200017b8:	02013423          	sd	x0,40(x2)
    200017bc:	00010613          	addi	x12,x2,0
    200017c0:	00000097          	auipc	x1,0x0
    200017c4:	228080e7          	jalr	x1,552(x1) # 200019e8 <_binary_loader_binary_bin_start+0x18a0>
    200017c8:	10051263          	bne	x10,x0,200018cc <_binary_loader_binary_bin_start+0x1784>
    200017cc:	03046503          	lwu	x10,48(x8)
    200017d0:	01057593          	andi	x11,x10,16
    200017d4:	02059863          	bne	x11,x0,20001804 <_binary_loader_binary_bin_start+0x16bc>
    200017d8:	02057513          	andi	x10,x10,32
    200017dc:	06051863          	bne	x10,x0,2000184c <_binary_loader_binary_bin_start+0x1704>
    200017e0:	0084b503          	ld	x10,8(x9)
    200017e4:	00040593          	addi	x11,x8,0
    200017e8:	09813083          	ld	x1,152(x2)
    200017ec:	09013403          	ld	x8,144(x2)
    200017f0:	08813483          	ld	x9,136(x2)
    200017f4:	08013903          	ld	x18,128(x2)
    200017f8:	0a010113          	addi	x2,x2,160
    200017fc:	00000317          	auipc	x6,0x0
    20001800:	c0030067          	jalr	x0,-1024(x6) # 200013fc <_binary_loader_binary_bin_start+0x12b4>
    20001804:	00000593          	addi	x11,x0,0
    20001808:	0084b803          	ld	x16,8(x9)
    2000180c:	00010513          	addi	x10,x2,0
    20001810:	00a00613          	addi	x12,x0,10
    20001814:	00f00693          	addi	x13,x0,15
    20001818:	01c0006f          	jal	x0,20001834 <_binary_loader_binary_bin_start+0x16ec>
    2000181c:	00b502b3          	add	x5,x10,x11
    20001820:	00475813          	srli	x16,x14,0x4
    20001824:	00f887bb          	addw	x15,x17,x15
    20001828:	06f28fa3          	sb	x15,127(x5)
    2000182c:	fff58593          	addi	x11,x11,-1
    20001830:	06e6f263          	bgeu	x13,x14,20001894 <_binary_loader_binary_bin_start+0x174c>
    20001834:	00080713          	addi	x14,x16,0
    20001838:	00f87793          	andi	x15,x16,15
    2000183c:	03000893          	addi	x17,x0,48
    20001840:	fcc7eee3          	bltu	x15,x12,2000181c <_binary_loader_binary_bin_start+0x16d4>
    20001844:	05700893          	addi	x17,x0,87
    20001848:	fd5ff06f          	jal	x0,2000181c <_binary_loader_binary_bin_start+0x16d4>
    2000184c:	00000593          	addi	x11,x0,0
    20001850:	0084b803          	ld	x16,8(x9)
    20001854:	00010513          	addi	x10,x2,0
    20001858:	00a00613          	addi	x12,x0,10
    2000185c:	00f00693          	addi	x13,x0,15
    20001860:	01c0006f          	jal	x0,2000187c <_binary_loader_binary_bin_start+0x1734>
    20001864:	00b502b3          	add	x5,x10,x11
    20001868:	00475813          	srli	x16,x14,0x4
    2000186c:	00f887bb          	addw	x15,x17,x15
    20001870:	06f28fa3          	sb	x15,127(x5)
    20001874:	fff58593          	addi	x11,x11,-1
    20001878:	00e6fe63          	bgeu	x13,x14,20001894 <_binary_loader_binary_bin_start+0x174c>
    2000187c:	00080713          	addi	x14,x16,0
    20001880:	00f87793          	andi	x15,x16,15
    20001884:	03000893          	addi	x17,x0,48
    20001888:	fcc7eee3          	bltu	x15,x12,20001864 <_binary_loader_binary_bin_start+0x171c>
    2000188c:	03700893          	addi	x17,x0,55
    20001890:	fd5ff06f          	jal	x0,20001864 <_binary_loader_binary_bin_start+0x171c>
    20001894:	08058513          	addi	x10,x11,128
    20001898:	08100613          	addi	x12,x0,129
    2000189c:	04c57663          	bgeu	x10,x12,200018e8 <_binary_loader_binary_bin_start+0x17a0>
    200018a0:	00010513          	addi	x10,x2,0
    200018a4:	00b50533          	add	x10,x10,x11
    200018a8:	08050693          	addi	x13,x10,128
    200018ac:	40b00733          	sub	x14,x0,x11
    200018b0:	00003597          	auipc	x11,0x3
    200018b4:	8d058593          	addi	x11,x11,-1840 # 20004180 <_binary_loader_binary_bin_start+0x4038>
    200018b8:	00200613          	addi	x12,x0,2
    200018bc:	00040513          	addi	x10,x8,0
    200018c0:	00000097          	auipc	x1,0x0
    200018c4:	398080e7          	jalr	x1,920(x1) # 20001c58 <_binary_loader_binary_bin_start+0x1b10>
    200018c8:	00050913          	addi	x18,x10,0
    200018cc:	00090513          	addi	x10,x18,0
    200018d0:	09813083          	ld	x1,152(x2)
    200018d4:	09013403          	ld	x8,144(x2)
    200018d8:	08813483          	ld	x9,136(x2)
    200018dc:	08013903          	ld	x18,128(x2)
    200018e0:	0a010113          	addi	x2,x2,160
    200018e4:	00008067          	jalr	x0,0(x1)
    200018e8:	00003617          	auipc	x12,0x3
    200018ec:	88060613          	addi	x12,x12,-1920 # 20004168 <_binary_loader_binary_bin_start+0x4020>
    200018f0:	08000593          	addi	x11,x0,128
    200018f4:	00000097          	auipc	x1,0x0
    200018f8:	d10080e7          	jalr	x1,-752(x1) # 20001604 <_binary_loader_binary_bin_start+0x14bc>
    200018fc:	c0001073          	unimp
    20001900:	00000097          	auipc	x1,0x0
    20001904:	00c080e7          	jalr	x1,12(x1) # 2000190c <_binary_loader_binary_bin_start+0x17c4>
    20001908:	c0001073          	unimp
    2000190c:	fa010113          	addi	x2,x2,-96
    20001910:	00a13023          	sd	x10,0(x2)
    20001914:	00b13423          	sd	x11,8(x2)
    20001918:	00010513          	addi	x10,x2,0
    2000191c:	04a13023          	sd	x10,64(x2)
    20001920:	00000517          	auipc	x10,0x0
    20001924:	cd850513          	addi	x10,x10,-808 # 200015f8 <_binary_loader_binary_bin_start+0x14b0>
    20001928:	04a13423          	sd	x10,72(x2)
    2000192c:	00810593          	addi	x11,x2,8
    20001930:	04b13823          	sd	x11,80(x2)
    20001934:	04a13c23          	sd	x10,88(x2)
    20001938:	00003517          	auipc	x10,0x3
    2000193c:	c8050513          	addi	x10,x10,-896 # 200045b8 <_binary_loader_binary_bin_start+0x4470>
    20001940:	02a13023          	sd	x10,32(x2)
    20001944:	00200513          	addi	x10,x0,2
    20001948:	02a13423          	sd	x10,40(x2)
    2000194c:	00013823          	sd	x0,16(x2)
    20001950:	04010593          	addi	x11,x2,64
    20001954:	02b13823          	sd	x11,48(x2)
    20001958:	02a13c23          	sd	x10,56(x2)
    2000195c:	01010513          	addi	x10,x2,16
    20001960:	00060593          	addi	x11,x12,0
    20001964:	00002097          	auipc	x1,0x2
    20001968:	8b8080e7          	jalr	x1,-1864(x1) # 2000321c <_binary_loader_binary_bin_start+0x30d4>
    2000196c:	c0001073          	unimp
    20001970:	00000097          	auipc	x1,0x0
    20001974:	00c080e7          	jalr	x1,12(x1) # 2000197c <_binary_loader_binary_bin_start+0x1834>
    20001978:	c0001073          	unimp
    2000197c:	fa010113          	addi	x2,x2,-96
    20001980:	00a13023          	sd	x10,0(x2)
    20001984:	00b13423          	sd	x11,8(x2)
    20001988:	00010513          	addi	x10,x2,0
    2000198c:	04a13023          	sd	x10,64(x2)
    20001990:	00000517          	auipc	x10,0x0
    20001994:	c6850513          	addi	x10,x10,-920 # 200015f8 <_binary_loader_binary_bin_start+0x14b0>
    20001998:	04a13423          	sd	x10,72(x2)
    2000199c:	00810593          	addi	x11,x2,8
    200019a0:	04b13823          	sd	x11,80(x2)
    200019a4:	04a13c23          	sd	x10,88(x2)
    200019a8:	00003517          	auipc	x10,0x3
    200019ac:	c5850513          	addi	x10,x10,-936 # 20004600 <_binary_loader_binary_bin_start+0x44b8>
    200019b0:	02a13023          	sd	x10,32(x2)
    200019b4:	00200513          	addi	x10,x0,2
    200019b8:	02a13423          	sd	x10,40(x2)
    200019bc:	00013823          	sd	x0,16(x2)
    200019c0:	04010593          	addi	x11,x2,64
    200019c4:	02b13823          	sd	x11,48(x2)
    200019c8:	02a13c23          	sd	x10,56(x2)
    200019cc:	01010513          	addi	x10,x2,16
    200019d0:	00060593          	addi	x11,x12,0
    200019d4:	00002097          	auipc	x1,0x2
    200019d8:	848080e7          	jalr	x1,-1976(x1) # 2000321c <_binary_loader_binary_bin_start+0x30d4>
    200019dc:	c0001073          	unimp
    200019e0:	00053503          	ld	x10,0(x10)
    200019e4:	0000006f          	jal	x0,200019e4 <_binary_loader_binary_bin_start+0x189c>
    200019e8:	f8010113          	addi	x2,x2,-128
    200019ec:	06113c23          	sd	x1,120(x2)
    200019f0:	06813823          	sd	x8,112(x2)
    200019f4:	06913423          	sd	x9,104(x2)
    200019f8:	07213023          	sd	x18,96(x2)
    200019fc:	05313c23          	sd	x19,88(x2)
    20001a00:	05413823          	sd	x20,80(x2)
    20001a04:	05513423          	sd	x21,72(x2)
    20001a08:	05613023          	sd	x22,64(x2)
    20001a0c:	00060413          	addi	x8,x12,0
    20001a10:	00100613          	addi	x12,x0,1
    20001a14:	02561613          	slli	x12,x12,0x25
    20001a18:	02c13823          	sd	x12,48(x2)
    20001a1c:	00300613          	addi	x12,x0,3
    20001a20:	02c10c23          	sb	x12,56(x2)
    20001a24:	00043a03          	ld	x20,0(x8)
    20001a28:	00013823          	sd	x0,16(x2)
    20001a2c:	02013023          	sd	x0,32(x2)
    20001a30:	00a13023          	sd	x10,0(x2)
    20001a34:	00b13423          	sd	x11,8(x2)
    20001a38:	120a0a63          	beq	x20,x0,20001b6c <_binary_loader_binary_bin_start+0x1a24>
    20001a3c:	00843503          	ld	x10,8(x8)
    20001a40:	1a050063          	beq	x10,x0,20001be0 <_binary_loader_binary_bin_start+0x1a98>
    20001a44:	01043583          	ld	x11,16(x8)
    20001a48:	fff50613          	addi	x12,x10,-1
    20001a4c:	00361613          	slli	x12,x12,0x3
    20001a50:	00365613          	srli	x12,x12,0x3
    20001a54:	00160913          	addi	x18,x12,1
    20001a58:	00858993          	addi	x19,x11,8
    20001a5c:	03800593          	addi	x11,x0,56
    20001a60:	00002097          	auipc	x1,0x2
    20001a64:	180080e7          	jalr	x1,384(x1) # 20003be0 <_binary_loader_binary_bin_start+0x3a98>
    20001a68:	00050493          	addi	x9,x10,0
    20001a6c:	018a0a13          	addi	x20,x20,24
    20001a70:	00100a93          	addi	x21,x0,1
    20001a74:	00000b17          	auipc	x22,0x0
    20001a78:	f6cb0b13          	addi	x22,x22,-148 # 200019e0 <_binary_loader_binary_bin_start+0x1898>
    20001a7c:	0009b603          	ld	x12,0(x19)
    20001a80:	00060e63          	beq	x12,x0,20001a9c <_binary_loader_binary_bin_start+0x1954>
    20001a84:	00813683          	ld	x13,8(x2)
    20001a88:	00013503          	ld	x10,0(x2)
    20001a8c:	ff89b583          	ld	x11,-8(x19)
    20001a90:	0186b683          	ld	x13,24(x13)
    20001a94:	000680e7          	jalr	x1,0(x13)
    20001a98:	18051663          	bne	x10,x0,20001c24 <_binary_loader_binary_bin_start+0x1adc>
    20001a9c:	00ca2503          	lw	x10,12(x20)
    20001aa0:	02a12a23          	sw	x10,52(x2)
    20001aa4:	010a0503          	lb	x10,16(x20)
    20001aa8:	02a10c23          	sb	x10,56(x2)
    20001aac:	008a2583          	lw	x11,8(x20)
    20001ab0:	02043503          	ld	x10,32(x8)
    20001ab4:	02b12823          	sw	x11,48(x2)
    20001ab8:	ff8a3683          	ld	x13,-8(x20)
    20001abc:	000a3583          	ld	x11,0(x20)
    20001ac0:	02068663          	beq	x13,x0,20001aec <_binary_loader_binary_bin_start+0x19a4>
    20001ac4:	00000613          	addi	x12,x0,0
    20001ac8:	03569463          	bne	x13,x21,20001af0 <_binary_loader_binary_bin_start+0x19a8>
    20001acc:	00459593          	slli	x11,x11,0x4
    20001ad0:	00b505b3          	add	x11,x10,x11
    20001ad4:	0085b603          	ld	x12,8(x11)
    20001ad8:	01660663          	beq	x12,x22,20001ae4 <_binary_loader_binary_bin_start+0x199c>
    20001adc:	00000613          	addi	x12,x0,0
    20001ae0:	0100006f          	jal	x0,20001af0 <_binary_loader_binary_bin_start+0x19a8>
    20001ae4:	0005b583          	ld	x11,0(x11)
    20001ae8:	0005b583          	ld	x11,0(x11)
    20001aec:	00100613          	addi	x12,x0,1
    20001af0:	00c13823          	sd	x12,16(x2)
    20001af4:	00b13c23          	sd	x11,24(x2)
    20001af8:	fe8a3683          	ld	x13,-24(x20)
    20001afc:	ff0a3583          	ld	x11,-16(x20)
    20001b00:	02068663          	beq	x13,x0,20001b2c <_binary_loader_binary_bin_start+0x19e4>
    20001b04:	00000613          	addi	x12,x0,0
    20001b08:	03569463          	bne	x13,x21,20001b30 <_binary_loader_binary_bin_start+0x19e8>
    20001b0c:	00459593          	slli	x11,x11,0x4
    20001b10:	00b505b3          	add	x11,x10,x11
    20001b14:	0085b603          	ld	x12,8(x11)
    20001b18:	01660663          	beq	x12,x22,20001b24 <_binary_loader_binary_bin_start+0x19dc>
    20001b1c:	00000613          	addi	x12,x0,0
    20001b20:	0100006f          	jal	x0,20001b30 <_binary_loader_binary_bin_start+0x19e8>
    20001b24:	0005b583          	ld	x11,0(x11)
    20001b28:	0005b583          	ld	x11,0(x11)
    20001b2c:	00100613          	addi	x12,x0,1
    20001b30:	02c13023          	sd	x12,32(x2)
    20001b34:	02b13423          	sd	x11,40(x2)
    20001b38:	018a3583          	ld	x11,24(x20)
    20001b3c:	00459593          	slli	x11,x11,0x4
    20001b40:	00b50533          	add	x10,x10,x11
    20001b44:	00853603          	ld	x12,8(x10)
    20001b48:	00053503          	ld	x10,0(x10)
    20001b4c:	00010593          	addi	x11,x2,0
    20001b50:	000600e7          	jalr	x1,0(x12)
    20001b54:	0c051863          	bne	x10,x0,20001c24 <_binary_loader_binary_bin_start+0x1adc>
    20001b58:	01098993          	addi	x19,x19,16
    20001b5c:	fc848493          	addi	x9,x9,-56
    20001b60:	038a0a13          	addi	x20,x20,56
    20001b64:	f0049ce3          	bne	x9,x0,20001a7c <_binary_loader_binary_bin_start+0x1934>
    20001b68:	07c0006f          	jal	x0,20001be4 <_binary_loader_binary_bin_start+0x1a9c>
    20001b6c:	02843503          	ld	x10,40(x8)
    20001b70:	08050063          	beq	x10,x0,20001bf0 <_binary_loader_binary_bin_start+0x1aa8>
    20001b74:	02043583          	ld	x11,32(x8)
    20001b78:	01043603          	ld	x12,16(x8)
    20001b7c:	fff50693          	addi	x13,x10,-1
    20001b80:	00469693          	slli	x13,x13,0x4
    20001b84:	0046d693          	srli	x13,x13,0x4
    20001b88:	00168913          	addi	x18,x13,1
    20001b8c:	00860493          	addi	x9,x12,8
    20001b90:	00858993          	addi	x19,x11,8
    20001b94:	00451a13          	slli	x20,x10,0x4
    20001b98:	0004b603          	ld	x12,0(x9)
    20001b9c:	00060e63          	beq	x12,x0,20001bb8 <_binary_loader_binary_bin_start+0x1a70>
    20001ba0:	00813683          	ld	x13,8(x2)
    20001ba4:	00013503          	ld	x10,0(x2)
    20001ba8:	ff84b583          	ld	x11,-8(x9)
    20001bac:	0186b683          	ld	x13,24(x13)
    20001bb0:	000680e7          	jalr	x1,0(x13)
    20001bb4:	06051863          	bne	x10,x0,20001c24 <_binary_loader_binary_bin_start+0x1adc>
    20001bb8:	0009b603          	ld	x12,0(x19)
    20001bbc:	ff89b503          	ld	x10,-8(x19)
    20001bc0:	00010593          	addi	x11,x2,0
    20001bc4:	000600e7          	jalr	x1,0(x12)
    20001bc8:	04051e63          	bne	x10,x0,20001c24 <_binary_loader_binary_bin_start+0x1adc>
    20001bcc:	01048493          	addi	x9,x9,16
    20001bd0:	ff0a0a13          	addi	x20,x20,-16
    20001bd4:	01098993          	addi	x19,x19,16
    20001bd8:	fc0a10e3          	bne	x20,x0,20001b98 <_binary_loader_binary_bin_start+0x1a50>
    20001bdc:	0080006f          	jal	x0,20001be4 <_binary_loader_binary_bin_start+0x1a9c>
    20001be0:	00000913          	addi	x18,x0,0
    20001be4:	01843503          	ld	x10,24(x8)
    20001be8:	00a96a63          	bltu	x18,x10,20001bfc <_binary_loader_binary_bin_start+0x1ab4>
    20001bec:	0400006f          	jal	x0,20001c2c <_binary_loader_binary_bin_start+0x1ae4>
    20001bf0:	00000913          	addi	x18,x0,0
    20001bf4:	01843503          	ld	x10,24(x8)
    20001bf8:	02a97a63          	bgeu	x18,x10,20001c2c <_binary_loader_binary_bin_start+0x1ae4>
    20001bfc:	01043503          	ld	x10,16(x8)
    20001c00:	00491593          	slli	x11,x18,0x4
    20001c04:	00b50633          	add	x12,x10,x11
    20001c08:	00813683          	ld	x13,8(x2)
    20001c0c:	00013503          	ld	x10,0(x2)
    20001c10:	00063583          	ld	x11,0(x12)
    20001c14:	00863603          	ld	x12,8(x12)
    20001c18:	0186b683          	ld	x13,24(x13)
    20001c1c:	000680e7          	jalr	x1,0(x13)
    20001c20:	00050663          	beq	x10,x0,20001c2c <_binary_loader_binary_bin_start+0x1ae4>
    20001c24:	00100513          	addi	x10,x0,1
    20001c28:	0080006f          	jal	x0,20001c30 <_binary_loader_binary_bin_start+0x1ae8>
    20001c2c:	00000513          	addi	x10,x0,0
    20001c30:	07813083          	ld	x1,120(x2)
    20001c34:	07013403          	ld	x8,112(x2)
    20001c38:	06813483          	ld	x9,104(x2)
    20001c3c:	06013903          	ld	x18,96(x2)
    20001c40:	05813983          	ld	x19,88(x2)
    20001c44:	05013a03          	ld	x20,80(x2)
    20001c48:	04813a83          	ld	x21,72(x2)
    20001c4c:	04013b03          	ld	x22,64(x2)
    20001c50:	08010113          	addi	x2,x2,128
    20001c54:	00008067          	jalr	x0,0(x1)
    20001c58:	f9010113          	addi	x2,x2,-112
    20001c5c:	06113423          	sd	x1,104(x2)
    20001c60:	06813023          	sd	x8,96(x2)
    20001c64:	04913c23          	sd	x9,88(x2)
    20001c68:	05213823          	sd	x18,80(x2)
    20001c6c:	05313423          	sd	x19,72(x2)
    20001c70:	05413023          	sd	x20,64(x2)
    20001c74:	03513c23          	sd	x21,56(x2)
    20001c78:	03613823          	sd	x22,48(x2)
    20001c7c:	03713423          	sd	x23,40(x2)
    20001c80:	03813023          	sd	x24,32(x2)
    20001c84:	01913c23          	sd	x25,24(x2)
    20001c88:	01a13823          	sd	x26,16(x2)
    20001c8c:	01b13423          	sd	x27,8(x2)
    20001c90:	00050913          	addi	x18,x10,0
    20001c94:	03056503          	lwu	x10,48(x10)
    20001c98:	00070413          	addi	x8,x14,0
    20001c9c:	00068493          	addi	x9,x13,0
    20001ca0:	00060993          	addi	x19,x12,0
    20001ca4:	00058a13          	addi	x20,x11,0
    20001ca8:	00157593          	andi	x11,x10,1
    20001cac:	00110ab7          	lui	x21,0x110
    20001cb0:	00058463          	beq	x11,x0,20001cb8 <_binary_loader_binary_bin_start+0x1b70>
    20001cb4:	02b00a93          	addi	x21,x0,43
    20001cb8:	00457613          	andi	x12,x10,4
    20001cbc:	00858cb3          	add	x25,x11,x8
    20001cc0:	00061a63          	bne	x12,x0,20001cd4 <_binary_loader_binary_bin_start+0x1b8c>
    20001cc4:	00000a13          	addi	x20,x0,0
    20001cc8:	01093583          	ld	x11,16(x18)
    20001ccc:	04059063          	bne	x11,x0,20001d0c <_binary_loader_binary_bin_start+0x1bc4>
    20001cd0:	07c0006f          	jal	x0,20001d4c <_binary_loader_binary_bin_start+0x1c04>
    20001cd4:	00000593          	addi	x11,x0,0
    20001cd8:	02098463          	beq	x19,x0,20001d00 <_binary_loader_binary_bin_start+0x1bb8>
    20001cdc:	00098613          	addi	x12,x19,0
    20001ce0:	000a0693          	addi	x13,x20,0
    20001ce4:	00068703          	lb	x14,0(x13)
    20001ce8:	00168693          	addi	x13,x13,1
    20001cec:	fc072713          	slti	x14,x14,-64
    20001cf0:	00174713          	xori	x14,x14,1
    20001cf4:	fff60613          	addi	x12,x12,-1
    20001cf8:	00e585b3          	add	x11,x11,x14
    20001cfc:	fe0614e3          	bne	x12,x0,20001ce4 <_binary_loader_binary_bin_start+0x1b9c>
    20001d00:	01958cb3          	add	x25,x11,x25
    20001d04:	01093583          	ld	x11,16(x18)
    20001d08:	04058263          	beq	x11,x0,20001d4c <_binary_loader_binary_bin_start+0x1c04>
    20001d0c:	01893d03          	ld	x26,24(x18)
    20001d10:	03acfe63          	bgeu	x25,x26,20001d4c <_binary_loader_binary_bin_start+0x1c04>
    20001d14:	00857513          	andi	x10,x10,8
    20001d18:	0e051663          	bne	x10,x0,20001e04 <_binary_loader_binary_bin_start+0x1cbc>
    20001d1c:	03894583          	lbu	x11,56(x18)
    20001d20:	00300613          	addi	x12,x0,3
    20001d24:	00100513          	addi	x10,x0,1
    20001d28:	00c58463          	beq	x11,x12,20001d30 <_binary_loader_binary_bin_start+0x1be8>
    20001d2c:	00058513          	addi	x10,x11,0
    20001d30:	00357593          	andi	x11,x10,3
    20001d34:	419d0533          	sub	x10,x26,x25
    20001d38:	12058c63          	beq	x11,x0,20001e70 <_binary_loader_binary_bin_start+0x1d28>
    20001d3c:	00100613          	addi	x12,x0,1
    20001d40:	12c59e63          	bne	x11,x12,20001e7c <_binary_loader_binary_bin_start+0x1d34>
    20001d44:	00000c93          	addi	x25,x0,0
    20001d48:	1400006f          	jal	x0,20001e88 <_binary_loader_binary_bin_start+0x1d40>
    20001d4c:	00093b83          	ld	x23,0(x18)
    20001d50:	00893903          	ld	x18,8(x18)
    20001d54:	000b8513          	addi	x10,x23,0
    20001d58:	00090593          	addi	x11,x18,0
    20001d5c:	000a8613          	addi	x12,x21,0 # 110000 <_binary_loader_binary_bin_size+0x10ad60>
    20001d60:	000a0693          	addi	x13,x20,0
    20001d64:	00098713          	addi	x14,x19,0
    20001d68:	00000097          	auipc	x1,0x0
    20001d6c:	1f8080e7          	jalr	x1,504(x1) # 20001f60 <_binary_loader_binary_bin_start+0x1e18>
    20001d70:	00100b13          	addi	x22,x0,1
    20001d74:	04050263          	beq	x10,x0,20001db8 <_binary_loader_binary_bin_start+0x1c70>
    20001d78:	000b0513          	addi	x10,x22,0
    20001d7c:	06813083          	ld	x1,104(x2)
    20001d80:	06013403          	ld	x8,96(x2)
    20001d84:	05813483          	ld	x9,88(x2)
    20001d88:	05013903          	ld	x18,80(x2)
    20001d8c:	04813983          	ld	x19,72(x2)
    20001d90:	04013a03          	ld	x20,64(x2)
    20001d94:	03813a83          	ld	x21,56(x2)
    20001d98:	03013b03          	ld	x22,48(x2)
    20001d9c:	02813b83          	ld	x23,40(x2)
    20001da0:	02013c03          	ld	x24,32(x2)
    20001da4:	01813c83          	ld	x25,24(x2)
    20001da8:	01013d03          	ld	x26,16(x2)
    20001dac:	00813d83          	ld	x27,8(x2)
    20001db0:	07010113          	addi	x2,x2,112
    20001db4:	00008067          	jalr	x0,0(x1)
    20001db8:	01893303          	ld	x6,24(x18)
    20001dbc:	000b8513          	addi	x10,x23,0
    20001dc0:	00048593          	addi	x11,x9,0
    20001dc4:	00040613          	addi	x12,x8,0
    20001dc8:	06813083          	ld	x1,104(x2)
    20001dcc:	06013403          	ld	x8,96(x2)
    20001dd0:	05813483          	ld	x9,88(x2)
    20001dd4:	05013903          	ld	x18,80(x2)
    20001dd8:	04813983          	ld	x19,72(x2)
    20001ddc:	04013a03          	ld	x20,64(x2)
    20001de0:	03813a83          	ld	x21,56(x2)
    20001de4:	03013b03          	ld	x22,48(x2)
    20001de8:	02813b83          	ld	x23,40(x2)
    20001dec:	02013c03          	ld	x24,32(x2)
    20001df0:	01813c83          	ld	x25,24(x2)
    20001df4:	01013d03          	ld	x26,16(x2)
    20001df8:	00813d83          	ld	x27,8(x2)
    20001dfc:	07010113          	addi	x2,x2,112
    20001e00:	00030067          	jalr	x0,0(x6)
    20001e04:	03492503          	lw	x10,52(x18)
    20001e08:	00a13023          	sd	x10,0(x2)
    20001e0c:	03000513          	addi	x10,x0,48
    20001e10:	03894d83          	lbu	x27,56(x18)
    20001e14:	00093b83          	ld	x23,0(x18)
    20001e18:	00893c03          	ld	x24,8(x18)
    20001e1c:	02a92a23          	sw	x10,52(x18)
    20001e20:	00100b13          	addi	x22,x0,1
    20001e24:	03690c23          	sb	x22,56(x18)
    20001e28:	000b8513          	addi	x10,x23,0
    20001e2c:	000c0593          	addi	x11,x24,0
    20001e30:	000a8613          	addi	x12,x21,0
    20001e34:	000a0693          	addi	x13,x20,0
    20001e38:	00098713          	addi	x14,x19,0
    20001e3c:	00000097          	auipc	x1,0x0
    20001e40:	124080e7          	jalr	x1,292(x1) # 20001f60 <_binary_loader_binary_bin_start+0x1e18>
    20001e44:	f2051ae3          	bne	x10,x0,20001d78 <_binary_loader_binary_bin_start+0x1c30>
    20001e48:	419d0533          	sub	x10,x26,x25
    20001e4c:	00150993          	addi	x19,x10,1
    20001e50:	fff98993          	addi	x19,x19,-1
    20001e54:	0c098a63          	beq	x19,x0,20001f28 <_binary_loader_binary_bin_start+0x1de0>
    20001e58:	020c3603          	ld	x12,32(x24)
    20001e5c:	03000593          	addi	x11,x0,48
    20001e60:	000b8513          	addi	x10,x23,0
    20001e64:	000600e7          	jalr	x1,0(x12)
    20001e68:	fe0504e3          	beq	x10,x0,20001e50 <_binary_loader_binary_bin_start+0x1d08>
    20001e6c:	f0dff06f          	jal	x0,20001d78 <_binary_loader_binary_bin_start+0x1c30>
    20001e70:	00050c93          	addi	x25,x10,0
    20001e74:	00058513          	addi	x10,x11,0
    20001e78:	0100006f          	jal	x0,20001e88 <_binary_loader_binary_bin_start+0x1d40>
    20001e7c:	00150593          	addi	x11,x10,1
    20001e80:	00155513          	srli	x10,x10,0x1
    20001e84:	0015dc93          	srli	x25,x11,0x1
    20001e88:	00093b83          	ld	x23,0(x18)
    20001e8c:	00893c03          	ld	x24,8(x18)
    20001e90:	03492903          	lw	x18,52(x18)
    20001e94:	00150b13          	addi	x22,x10,1
    20001e98:	fffb0b13          	addi	x22,x22,-1
    20001e9c:	020b0063          	beq	x22,x0,20001ebc <_binary_loader_binary_bin_start+0x1d74>
    20001ea0:	020c3603          	ld	x12,32(x24)
    20001ea4:	000b8513          	addi	x10,x23,0
    20001ea8:	00090593          	addi	x11,x18,0
    20001eac:	000600e7          	jalr	x1,0(x12)
    20001eb0:	fe0504e3          	beq	x10,x0,20001e98 <_binary_loader_binary_bin_start+0x1d50>
    20001eb4:	00100b13          	addi	x22,x0,1
    20001eb8:	ec1ff06f          	jal	x0,20001d78 <_binary_loader_binary_bin_start+0x1c30>
    20001ebc:	00110537          	lui	x10,0x110
    20001ec0:	00100b13          	addi	x22,x0,1
    20001ec4:	eaa90ae3          	beq	x18,x10,20001d78 <_binary_loader_binary_bin_start+0x1c30>
    20001ec8:	000b8513          	addi	x10,x23,0
    20001ecc:	000c0593          	addi	x11,x24,0
    20001ed0:	000a8613          	addi	x12,x21,0
    20001ed4:	000a0693          	addi	x13,x20,0
    20001ed8:	00098713          	addi	x14,x19,0
    20001edc:	00000097          	auipc	x1,0x0
    20001ee0:	084080e7          	jalr	x1,132(x1) # 20001f60 <_binary_loader_binary_bin_start+0x1e18>
    20001ee4:	e8051ae3          	bne	x10,x0,20001d78 <_binary_loader_binary_bin_start+0x1c30>
    20001ee8:	018c3683          	ld	x13,24(x24)
    20001eec:	000b8513          	addi	x10,x23,0
    20001ef0:	00048593          	addi	x11,x9,0
    20001ef4:	00040613          	addi	x12,x8,0
    20001ef8:	000680e7          	jalr	x1,0(x13)
    20001efc:	e6051ee3          	bne	x10,x0,20001d78 <_binary_loader_binary_bin_start+0x1c30>
    20001f00:	00000413          	addi	x8,x0,0
    20001f04:	048c8863          	beq	x25,x8,20001f54 <_binary_loader_binary_bin_start+0x1e0c>
    20001f08:	020c3603          	ld	x12,32(x24)
    20001f0c:	00140413          	addi	x8,x8,1
    20001f10:	000b8513          	addi	x10,x23,0
    20001f14:	00090593          	addi	x11,x18,0
    20001f18:	000600e7          	jalr	x1,0(x12)
    20001f1c:	fe0504e3          	beq	x10,x0,20001f04 <_binary_loader_binary_bin_start+0x1dbc>
    20001f20:	fff40513          	addi	x10,x8,-1
    20001f24:	0340006f          	jal	x0,20001f58 <_binary_loader_binary_bin_start+0x1e10>
    20001f28:	018c3683          	ld	x13,24(x24)
    20001f2c:	000b8513          	addi	x10,x23,0
    20001f30:	00048593          	addi	x11,x9,0
    20001f34:	00040613          	addi	x12,x8,0
    20001f38:	000680e7          	jalr	x1,0(x13)
    20001f3c:	e2051ee3          	bne	x10,x0,20001d78 <_binary_loader_binary_bin_start+0x1c30>
    20001f40:	00000b13          	addi	x22,x0,0
    20001f44:	00013503          	ld	x10,0(x2)
    20001f48:	02a92a23          	sw	x10,52(x18)
    20001f4c:	03b90c23          	sb	x27,56(x18)
    20001f50:	e29ff06f          	jal	x0,20001d78 <_binary_loader_binary_bin_start+0x1c30>
    20001f54:	000c8513          	addi	x10,x25,0
    20001f58:	01953b33          	sltu	x22,x10,x25
    20001f5c:	e1dff06f          	jal	x0,20001d78 <_binary_loader_binary_bin_start+0x1c30>
    20001f60:	fd010113          	addi	x2,x2,-48
    20001f64:	02113423          	sd	x1,40(x2)
    20001f68:	02813023          	sd	x8,32(x2)
    20001f6c:	00913c23          	sd	x9,24(x2)
    20001f70:	01213823          	sd	x18,16(x2)
    20001f74:	01313423          	sd	x19,8(x2)
    20001f78:	0006079b          	addiw	x15,x12,0
    20001f7c:	00110837          	lui	x16,0x110
    20001f80:	00070413          	addi	x8,x14,0
    20001f84:	00068493          	addi	x9,x13,0
    20001f88:	00058993          	addi	x19,x11,0
    20001f8c:	00050913          	addi	x18,x10,0 # 110000 <_binary_loader_binary_bin_size+0x10ad60>
    20001f90:	03078063          	beq	x15,x16,20001fb0 <_binary_loader_binary_bin_start+0x1e68>
    20001f94:	0209b683          	ld	x13,32(x19)
    20001f98:	00090513          	addi	x10,x18,0
    20001f9c:	00060593          	addi	x11,x12,0
    20001fa0:	000680e7          	jalr	x1,0(x13)
    20001fa4:	00050593          	addi	x11,x10,0
    20001fa8:	00100513          	addi	x10,x0,1
    20001fac:	02059c63          	bne	x11,x0,20001fe4 <_binary_loader_binary_bin_start+0x1e9c>
    20001fb0:	02048863          	beq	x9,x0,20001fe0 <_binary_loader_binary_bin_start+0x1e98>
    20001fb4:	0189b303          	ld	x6,24(x19)
    20001fb8:	00090513          	addi	x10,x18,0
    20001fbc:	00048593          	addi	x11,x9,0
    20001fc0:	00040613          	addi	x12,x8,0
    20001fc4:	02813083          	ld	x1,40(x2)
    20001fc8:	02013403          	ld	x8,32(x2)
    20001fcc:	01813483          	ld	x9,24(x2)
    20001fd0:	01013903          	ld	x18,16(x2)
    20001fd4:	00813983          	ld	x19,8(x2)
    20001fd8:	03010113          	addi	x2,x2,48
    20001fdc:	00030067          	jalr	x0,0(x6)
    20001fe0:	00000513          	addi	x10,x0,0
    20001fe4:	02813083          	ld	x1,40(x2)
    20001fe8:	02013403          	ld	x8,32(x2)
    20001fec:	01813483          	ld	x9,24(x2)
    20001ff0:	01013903          	ld	x18,16(x2)
    20001ff4:	00813983          	ld	x19,8(x2)
    20001ff8:	03010113          	addi	x2,x2,48
    20001ffc:	00008067          	jalr	x0,0(x1)
    20002000:	f9010113          	addi	x2,x2,-112
    20002004:	06113423          	sd	x1,104(x2)
    20002008:	06813023          	sd	x8,96(x2)
    2000200c:	04913c23          	sd	x9,88(x2)
    20002010:	05213823          	sd	x18,80(x2)
    20002014:	05313423          	sd	x19,72(x2)
    20002018:	05413023          	sd	x20,64(x2)
    2000201c:	03513c23          	sd	x21,56(x2)
    20002020:	03613823          	sd	x22,48(x2)
    20002024:	03713423          	sd	x23,40(x2)
    20002028:	03813023          	sd	x24,32(x2)
    2000202c:	01913c23          	sd	x25,24(x2)
    20002030:	01a13823          	sd	x26,16(x2)
    20002034:	01b13423          	sd	x27,8(x2)
    20002038:	00050913          	addi	x18,x10,0
    2000203c:	01053503          	ld	x10,16(x10)
    20002040:	02093683          	ld	x13,32(x18)
    20002044:	fff50713          	addi	x14,x10,-1
    20002048:	00e03733          	sltu	x14,x0,x14
    2000204c:	fff68793          	addi	x15,x13,-1
    20002050:	00f037b3          	sltu	x15,x0,x15
    20002054:	00f77733          	and	x14,x14,x15
    20002058:	00060413          	addi	x8,x12,0
    2000205c:	00058493          	addi	x9,x11,0
    20002060:	22071263          	bne	x14,x0,20002284 <_binary_loader_binary_bin_start+0x213c>
    20002064:	00100593          	addi	x11,x0,1
    20002068:	14b69a63          	bne	x13,x11,200021bc <_binary_loader_binary_bin_start+0x2074>
    2000206c:	02893603          	ld	x12,40(x18)
    20002070:	00000593          	addi	x11,x0,0
    20002074:	008486b3          	add	x13,x9,x8
    20002078:	00160713          	addi	x14,x12,1
    2000207c:	001107b7          	lui	x15,0x110
    20002080:	0df00813          	addi	x16,x0,223
    20002084:	0f000893          	addi	x17,x0,240
    20002088:	00048613          	addi	x12,x9,0
    2000208c:	0180006f          	jal	x0,200020a4 <_binary_loader_binary_bin_start+0x1f5c>
    20002090:	00160313          	addi	x6,x12,1
    20002094:	40c585b3          	sub	x11,x11,x12
    20002098:	006585b3          	add	x11,x11,x6
    2000209c:	00030613          	addi	x12,x6,0
    200020a0:	10f28e63          	beq	x5,x15,200021bc <_binary_loader_binary_bin_start+0x2074>
    200020a4:	fff70713          	addi	x14,x14,-1
    200020a8:	08070063          	beq	x14,x0,20002128 <_binary_loader_binary_bin_start+0x1fe0>
    200020ac:	10d60863          	beq	x12,x13,200021bc <_binary_loader_binary_bin_start+0x2074>
    200020b0:	00060303          	lb	x6,0(x12)
    200020b4:	0ff37293          	andi	x5,x6,255
    200020b8:	fc035ce3          	bge	x6,x0,20002090 <_binary_loader_binary_bin_start+0x1f48>
    200020bc:	00164303          	lbu	x6,1(x12)
    200020c0:	01f2f393          	andi	x7,x5,31
    200020c4:	03f37e13          	andi	x28,x6,63
    200020c8:	04587063          	bgeu	x16,x5,20002108 <_binary_loader_binary_bin_start+0x1fc0>
    200020cc:	00264303          	lbu	x6,2(x12)
    200020d0:	006e1e13          	slli	x28,x28,0x6
    200020d4:	03f37313          	andi	x6,x6,63
    200020d8:	006e6e33          	or	x28,x28,x6
    200020dc:	0312ee63          	bltu	x5,x17,20002118 <_binary_loader_binary_bin_start+0x1fd0>
    200020e0:	00364283          	lbu	x5,3(x12)
    200020e4:	03d39313          	slli	x6,x7,0x3d
    200020e8:	02b35313          	srli	x6,x6,0x2b
    200020ec:	006e1393          	slli	x7,x28,0x6
    200020f0:	03f2f293          	andi	x5,x5,63
    200020f4:	0053e2b3          	or	x5,x7,x5
    200020f8:	0062e2b3          	or	x5,x5,x6
    200020fc:	0cf28063          	beq	x5,x15,200021bc <_binary_loader_binary_bin_start+0x2074>
    20002100:	00460313          	addi	x6,x12,4
    20002104:	f91ff06f          	jal	x0,20002094 <_binary_loader_binary_bin_start+0x1f4c>
    20002108:	00260313          	addi	x6,x12,2
    2000210c:	00639293          	slli	x5,x7,0x6
    20002110:	01c2e2b3          	or	x5,x5,x28
    20002114:	f81ff06f          	jal	x0,20002094 <_binary_loader_binary_bin_start+0x1f4c>
    20002118:	00360313          	addi	x6,x12,3
    2000211c:	00c39293          	slli	x5,x7,0xc
    20002120:	005e62b3          	or	x5,x28,x5
    20002124:	f71ff06f          	jal	x0,20002094 <_binary_loader_binary_bin_start+0x1f4c>
    20002128:	08d60a63          	beq	x12,x13,200021bc <_binary_loader_binary_bin_start+0x2074>
    2000212c:	00060683          	lb	x13,0(x12)
    20002130:	0406da63          	bge	x13,x0,20002184 <_binary_loader_binary_bin_start+0x203c>
    20002134:	0ff6f693          	andi	x13,x13,255
    20002138:	0e000713          	addi	x14,x0,224
    2000213c:	04e6e463          	bltu	x13,x14,20002184 <_binary_loader_binary_bin_start+0x203c>
    20002140:	0f000713          	addi	x14,x0,240
    20002144:	04e6e063          	bltu	x13,x14,20002184 <_binary_loader_binary_bin_start+0x203c>
    20002148:	00164703          	lbu	x14,1(x12)
    2000214c:	00264783          	lbu	x15,2(x12)
    20002150:	03f77713          	andi	x14,x14,63
    20002154:	03f7f793          	andi	x15,x15,63
    20002158:	00364603          	lbu	x12,3(x12)
    2000215c:	03d69693          	slli	x13,x13,0x3d
    20002160:	02b6d693          	srli	x13,x13,0x2b
    20002164:	00c71713          	slli	x14,x14,0xc
    20002168:	00679793          	slli	x15,x15,0x6
    2000216c:	00e7e733          	or	x14,x15,x14
    20002170:	03f67613          	andi	x12,x12,63
    20002174:	00c76633          	or	x12,x14,x12
    20002178:	00d66633          	or	x12,x12,x13
    2000217c:	001106b7          	lui	x13,0x110
    20002180:	02d60e63          	beq	x12,x13,200021bc <_binary_loader_binary_bin_start+0x2074>
    20002184:	02058463          	beq	x11,x0,200021ac <_binary_loader_binary_bin_start+0x2064>
    20002188:	0285f063          	bgeu	x11,x8,200021a8 <_binary_loader_binary_bin_start+0x2060>
    2000218c:	00b48633          	add	x12,x9,x11
    20002190:	00060603          	lb	x12,0(x12)
    20002194:	fc000693          	addi	x13,x0,-64
    20002198:	00d65a63          	bge	x12,x13,200021ac <_binary_loader_binary_bin_start+0x2064>
    2000219c:	00000613          	addi	x12,x0,0
    200021a0:	00061a63          	bne	x12,x0,200021b4 <_binary_loader_binary_bin_start+0x206c>
    200021a4:	0180006f          	jal	x0,200021bc <_binary_loader_binary_bin_start+0x2074>
    200021a8:	fe859ae3          	bne	x11,x8,2000219c <_binary_loader_binary_bin_start+0x2054>
    200021ac:	00048613          	addi	x12,x9,0
    200021b0:	00060663          	beq	x12,x0,200021bc <_binary_loader_binary_bin_start+0x2074>
    200021b4:	00058413          	addi	x8,x11,0
    200021b8:	00060493          	addi	x9,x12,0
    200021bc:	0c050463          	beq	x10,x0,20002284 <_binary_loader_binary_bin_start+0x213c>
    200021c0:	01893883          	ld	x17,24(x18)
    200021c4:	02000513          	addi	x10,x0,32
    200021c8:	02a47a63          	bgeu	x8,x10,200021fc <_binary_loader_binary_bin_start+0x20b4>
    200021cc:	00000a93          	addi	x21,x0,0
    200021d0:	08040063          	beq	x8,x0,20002250 <_binary_loader_binary_bin_start+0x2108>
    200021d4:	00040513          	addi	x10,x8,0
    200021d8:	00048593          	addi	x11,x9,0
    200021dc:	00058603          	lb	x12,0(x11)
    200021e0:	00158593          	addi	x11,x11,1
    200021e4:	fc062613          	slti	x12,x12,-64
    200021e8:	00164613          	xori	x12,x12,1
    200021ec:	fff50513          	addi	x10,x10,-1
    200021f0:	00ca8ab3          	add	x21,x21,x12
    200021f4:	fe0514e3          	bne	x10,x0,200021dc <_binary_loader_binary_bin_start+0x2094>
    200021f8:	0580006f          	jal	x0,20002250 <_binary_loader_binary_bin_start+0x2108>
    200021fc:	00748513          	addi	x10,x9,7
    20002200:	ff857713          	andi	x14,x10,-8
    20002204:	409706b3          	sub	x13,x14,x9
    20002208:	02d46063          	bltu	x8,x13,20002228 <_binary_loader_binary_bin_start+0x20e0>
    2000220c:	40d40633          	sub	x12,x8,x13
    20002210:	00365c93          	srli	x25,x12,0x3
    20002214:	001cb513          	sltiu	x10,x25,1
    20002218:	0096b593          	sltiu	x11,x13,9
    2000221c:	0015c593          	xori	x11,x11,1
    20002220:	00b56533          	or	x10,x10,x11
    20002224:	14050463          	beq	x10,x0,2000236c <_binary_loader_binary_bin_start+0x2224>
    20002228:	00000a93          	addi	x21,x0,0
    2000222c:	00040513          	addi	x10,x8,0
    20002230:	00048593          	addi	x11,x9,0
    20002234:	00058603          	lb	x12,0(x11)
    20002238:	00158593          	addi	x11,x11,1
    2000223c:	fc062613          	slti	x12,x12,-64
    20002240:	00164613          	xori	x12,x12,1
    20002244:	fff50513          	addi	x10,x10,-1
    20002248:	00ca8ab3          	add	x21,x21,x12
    2000224c:	fe0514e3          	bne	x10,x0,20002234 <_binary_loader_binary_bin_start+0x20ec>
    20002250:	031afa63          	bgeu	x21,x17,20002284 <_binary_loader_binary_bin_start+0x213c>
    20002254:	03894503          	lbu	x10,56(x18)
    20002258:	00300613          	addi	x12,x0,3
    2000225c:	00000593          	addi	x11,x0,0
    20002260:	00c50463          	beq	x10,x12,20002268 <_binary_loader_binary_bin_start+0x2120>
    20002264:	00050593          	addi	x11,x10,0
    20002268:	0035f593          	andi	x11,x11,3
    2000226c:	41588533          	sub	x10,x17,x21
    20002270:	06058263          	beq	x11,x0,200022d4 <_binary_loader_binary_bin_start+0x218c>
    20002274:	00100613          	addi	x12,x0,1
    20002278:	06c59463          	bne	x11,x12,200022e0 <_binary_loader_binary_bin_start+0x2198>
    2000227c:	00000a93          	addi	x21,x0,0
    20002280:	06c0006f          	jal	x0,200022ec <_binary_loader_binary_bin_start+0x21a4>
    20002284:	00893583          	ld	x11,8(x18)
    20002288:	00093503          	ld	x10,0(x18)
    2000228c:	0185b303          	ld	x6,24(x11)
    20002290:	00048593          	addi	x11,x9,0
    20002294:	00040613          	addi	x12,x8,0
    20002298:	06813083          	ld	x1,104(x2)
    2000229c:	06013403          	ld	x8,96(x2)
    200022a0:	05813483          	ld	x9,88(x2)
    200022a4:	05013903          	ld	x18,80(x2)
    200022a8:	04813983          	ld	x19,72(x2)
    200022ac:	04013a03          	ld	x20,64(x2)
    200022b0:	03813a83          	ld	x21,56(x2)
    200022b4:	03013b03          	ld	x22,48(x2)
    200022b8:	02813b83          	ld	x23,40(x2)
    200022bc:	02013c03          	ld	x24,32(x2)
    200022c0:	01813c83          	ld	x25,24(x2)
    200022c4:	01013d03          	ld	x26,16(x2)
    200022c8:	00813d83          	ld	x27,8(x2)
    200022cc:	07010113          	addi	x2,x2,112
    200022d0:	00030067          	jalr	x0,0(x6)
    200022d4:	00050a93          	addi	x21,x10,0
    200022d8:	00058513          	addi	x10,x11,0
    200022dc:	0100006f          	jal	x0,200022ec <_binary_loader_binary_bin_start+0x21a4>
    200022e0:	00150593          	addi	x11,x10,1
    200022e4:	00155513          	srli	x10,x10,0x1
    200022e8:	0015da93          	srli	x21,x11,0x1
    200022ec:	00093983          	ld	x19,0(x18)
    200022f0:	00893b03          	ld	x22,8(x18)
    200022f4:	03492903          	lw	x18,52(x18)
    200022f8:	00150a13          	addi	x20,x10,1
    200022fc:	fffa0a13          	addi	x20,x20,-1
    20002300:	020a0063          	beq	x20,x0,20002320 <_binary_loader_binary_bin_start+0x21d8>
    20002304:	020b3603          	ld	x12,32(x22)
    20002308:	00098513          	addi	x10,x19,0
    2000230c:	00090593          	addi	x11,x18,0
    20002310:	000600e7          	jalr	x1,0(x12)
    20002314:	fe0504e3          	beq	x10,x0,200022fc <_binary_loader_binary_bin_start+0x21b4>
    20002318:	00100a13          	addi	x20,x0,1
    2000231c:	2480006f          	jal	x0,20002564 <_binary_loader_binary_bin_start+0x241c>
    20002320:	00110537          	lui	x10,0x110
    20002324:	00100a13          	addi	x20,x0,1
    20002328:	22a90e63          	beq	x18,x10,20002564 <_binary_loader_binary_bin_start+0x241c>
    2000232c:	018b3683          	ld	x13,24(x22)
    20002330:	00098513          	addi	x10,x19,0
    20002334:	00048593          	addi	x11,x9,0
    20002338:	00040613          	addi	x12,x8,0
    2000233c:	000680e7          	jalr	x1,0(x13) # 110000 <_binary_loader_binary_bin_size+0x10ad60>
    20002340:	22051263          	bne	x10,x0,20002564 <_binary_loader_binary_bin_start+0x241c>
    20002344:	00000413          	addi	x8,x0,0
    20002348:	208a8a63          	beq	x21,x8,2000255c <_binary_loader_binary_bin_start+0x2414>
    2000234c:	020b3603          	ld	x12,32(x22)
    20002350:	00140413          	addi	x8,x8,1
    20002354:	00098513          	addi	x10,x19,0
    20002358:	00090593          	addi	x11,x18,0
    2000235c:	000600e7          	jalr	x1,0(x12)
    20002360:	fe0504e3          	beq	x10,x0,20002348 <_binary_loader_binary_bin_start+0x2200>
    20002364:	fff40513          	addi	x10,x8,-1
    20002368:	1f80006f          	jal	x0,20002560 <_binary_loader_binary_bin_start+0x2418>
    2000236c:	00767593          	andi	x11,x12,7
    20002370:	00000513          	addi	x10,x0,0
    20002374:	02068463          	beq	x13,x0,2000239c <_binary_loader_binary_bin_start+0x2254>
    20002378:	40e48733          	sub	x14,x9,x14
    2000237c:	00048793          	addi	x15,x9,0
    20002380:	00078803          	lb	x16,0(x15) # 110000 <_binary_loader_binary_bin_size+0x10ad60>
    20002384:	00178793          	addi	x15,x15,1
    20002388:	fc082813          	slti	x16,x16,-64
    2000238c:	00184813          	xori	x16,x16,1
    20002390:	00170713          	addi	x14,x14,1
    20002394:	01050533          	add	x10,x10,x16
    20002398:	fe0714e3          	bne	x14,x0,20002380 <_binary_loader_binary_bin_start+0x2238>
    2000239c:	00d48c33          	add	x24,x9,x13
    200023a0:	01113023          	sd	x17,0(x2)
    200023a4:	00000693          	addi	x13,x0,0
    200023a8:	02058463          	beq	x11,x0,200023d0 <_binary_loader_binary_bin_start+0x2288>
    200023ac:	ff867613          	andi	x12,x12,-8
    200023b0:	00cc0633          	add	x12,x24,x12
    200023b4:	00060703          	lb	x14,0(x12)
    200023b8:	00160613          	addi	x12,x12,1
    200023bc:	fc072713          	slti	x14,x14,-64
    200023c0:	00174713          	xori	x14,x14,1
    200023c4:	fff58593          	addi	x11,x11,-1
    200023c8:	00e686b3          	add	x13,x13,x14
    200023cc:	fe0594e3          	bne	x11,x0,200023b4 <_binary_loader_binary_bin_start+0x226c>
    200023d0:	00003597          	auipc	x11,0x3
    200023d4:	fe058593          	addi	x11,x11,-32 # 200053b0 <_binary_loader_binary_bin_start+0x5268>
    200023d8:	0005bb83          	ld	x23,0(x11)
    200023dc:	00003597          	auipc	x11,0x3
    200023e0:	fdc58593          	addi	x11,x11,-36 # 200053b8 <_binary_loader_binary_bin_start+0x5270>
    200023e4:	0005bb03          	ld	x22,0(x11)
    200023e8:	100015b7          	lui	x11,0x10001
    200023ec:	00459593          	slli	x11,x11,0x4
    200023f0:	00158593          	addi	x11,x11,1 # 10001001 <_binary_loader_binary_bin_size+0xfffbd61>
    200023f4:	01059593          	slli	x11,x11,0x10
    200023f8:	00158993          	addi	x19,x11,1
    200023fc:	00a68ab3          	add	x21,x13,x10
    20002400:	03c0006f          	jal	x0,2000243c <_binary_loader_binary_bin_start+0x22f4>
    20002404:	00351593          	slli	x11,x10,0x3
    20002408:	00bc0c33          	add	x24,x24,x11
    2000240c:	40ad0cb3          	sub	x25,x26,x10
    20002410:	00357a13          	andi	x20,x10,3
    20002414:	01667533          	and	x10,x12,x22
    20002418:	00865593          	srli	x11,x12,0x8
    2000241c:	0165f5b3          	and	x11,x11,x22
    20002420:	00a58533          	add	x10,x11,x10
    20002424:	00098593          	addi	x11,x19,0
    20002428:	00001097          	auipc	x1,0x1
    2000242c:	7b8080e7          	jalr	x1,1976(x1) # 20003be0 <_binary_loader_binary_bin_start+0x3a98>
    20002430:	03055513          	srli	x10,x10,0x30
    20002434:	01550ab3          	add	x21,x10,x21
    20002438:	0a0a1c63          	bne	x20,x0,200024f0 <_binary_loader_binary_bin_start+0x23a8>
    2000243c:	0a0c8663          	beq	x25,x0,200024e8 <_binary_loader_binary_bin_start+0x23a0>
    20002440:	000c8d13          	addi	x26,x25,0
    20002444:	0c000593          	addi	x11,x0,192
    20002448:	000c8513          	addi	x10,x25,0
    2000244c:	00bce463          	bltu	x25,x11,20002454 <_binary_loader_binary_bin_start+0x230c>
    20002450:	0c000513          	addi	x10,x0,192
    20002454:	0fc57593          	andi	x11,x10,252
    20002458:	00359613          	slli	x12,x11,0x3
    2000245c:	00cc0db3          	add	x27,x24,x12
    20002460:	00000613          	addi	x12,x0,0
    20002464:	fa0580e3          	beq	x11,x0,20002404 <_binary_loader_binary_bin_start+0x22bc>
    20002468:	000c0593          	addi	x11,x24,0
    2000246c:	0005b683          	ld	x13,0(x11)
    20002470:	fff6c713          	xori	x14,x13,-1
    20002474:	00775713          	srli	x14,x14,0x7
    20002478:	0066d693          	srli	x13,x13,0x6
    2000247c:	0085b783          	ld	x15,8(x11)
    20002480:	00d766b3          	or	x13,x14,x13
    20002484:	0176f6b3          	and	x13,x13,x23
    20002488:	00c68633          	add	x12,x13,x12
    2000248c:	fff7c693          	xori	x13,x15,-1
    20002490:	0076d693          	srli	x13,x13,0x7
    20002494:	0067d713          	srli	x14,x15,0x6
    20002498:	0105b783          	ld	x15,16(x11)
    2000249c:	00e6e6b3          	or	x13,x13,x14
    200024a0:	0176f6b3          	and	x13,x13,x23
    200024a4:	00c68633          	add	x12,x13,x12
    200024a8:	fff7c693          	xori	x13,x15,-1
    200024ac:	0076d693          	srli	x13,x13,0x7
    200024b0:	0067d713          	srli	x14,x15,0x6
    200024b4:	0185b783          	ld	x15,24(x11)
    200024b8:	00e6e6b3          	or	x13,x13,x14
    200024bc:	0176f6b3          	and	x13,x13,x23
    200024c0:	00c68633          	add	x12,x13,x12
    200024c4:	fff7c693          	xori	x13,x15,-1
    200024c8:	0076d693          	srli	x13,x13,0x7
    200024cc:	0067d713          	srli	x14,x15,0x6
    200024d0:	00e6e6b3          	or	x13,x13,x14
    200024d4:	0176f6b3          	and	x13,x13,x23
    200024d8:	02058593          	addi	x11,x11,32
    200024dc:	00c68633          	add	x12,x13,x12
    200024e0:	f9b596e3          	bne	x11,x27,2000246c <_binary_loader_binary_bin_start+0x2324>
    200024e4:	f21ff06f          	jal	x0,20002404 <_binary_loader_binary_bin_start+0x22bc>
    200024e8:	00013883          	ld	x17,0(x2)
    200024ec:	d65ff06f          	jal	x0,20002250 <_binary_loader_binary_bin_start+0x2108>
    200024f0:	0c000513          	addi	x10,x0,192
    200024f4:	00ad6463          	bltu	x26,x10,200024fc <_binary_loader_binary_bin_start+0x23b4>
    200024f8:	0c000d13          	addi	x26,x0,192
    200024fc:	00000513          	addi	x10,x0,0
    20002500:	003d7593          	andi	x11,x26,3
    20002504:	00359593          	slli	x11,x11,0x3
    20002508:	000db603          	ld	x12,0(x27)
    2000250c:	008d8d93          	addi	x27,x27,8
    20002510:	fff64693          	xori	x13,x12,-1
    20002514:	0076d693          	srli	x13,x13,0x7
    20002518:	00665613          	srli	x12,x12,0x6
    2000251c:	00c6e633          	or	x12,x13,x12
    20002520:	01767633          	and	x12,x12,x23
    20002524:	ff858593          	addi	x11,x11,-8
    20002528:	00a60533          	add	x10,x12,x10
    2000252c:	fc059ee3          	bne	x11,x0,20002508 <_binary_loader_binary_bin_start+0x23c0>
    20002530:	016575b3          	and	x11,x10,x22
    20002534:	00855513          	srli	x10,x10,0x8
    20002538:	01657533          	and	x10,x10,x22
    2000253c:	00b50533          	add	x10,x10,x11
    20002540:	00098593          	addi	x11,x19,0
    20002544:	00001097          	auipc	x1,0x1
    20002548:	69c080e7          	jalr	x1,1692(x1) # 20003be0 <_binary_loader_binary_bin_start+0x3a98>
    2000254c:	03055513          	srli	x10,x10,0x30
    20002550:	01550ab3          	add	x21,x10,x21
    20002554:	00013883          	ld	x17,0(x2)
    20002558:	cf9ff06f          	jal	x0,20002250 <_binary_loader_binary_bin_start+0x2108>
    2000255c:	000a8513          	addi	x10,x21,0
    20002560:	01553a33          	sltu	x20,x10,x21
    20002564:	000a0513          	addi	x10,x20,0
    20002568:	06813083          	ld	x1,104(x2)
    2000256c:	06013403          	ld	x8,96(x2)
    20002570:	05813483          	ld	x9,88(x2)
    20002574:	05013903          	ld	x18,80(x2)
    20002578:	04813983          	ld	x19,72(x2)
    2000257c:	04013a03          	ld	x20,64(x2)
    20002580:	03813a83          	ld	x21,56(x2)
    20002584:	03013b03          	ld	x22,48(x2)
    20002588:	02813b83          	ld	x23,40(x2)
    2000258c:	02013c03          	ld	x24,32(x2)
    20002590:	01813c83          	ld	x25,24(x2)
    20002594:	01013d03          	ld	x26,16(x2)
    20002598:	00813d83          	ld	x27,8(x2)
    2000259c:	07010113          	addi	x2,x2,112
    200025a0:	00008067          	jalr	x0,0(x1)
    200025a4:	00853603          	ld	x12,8(x10) # 110008 <_binary_loader_binary_bin_size+0x10ad68>
    200025a8:	00053503          	ld	x10,0(x10)
    200025ac:	01863303          	ld	x6,24(x12)
    200025b0:	00030067          	jalr	x0,0(x6)
    200025b4:	f5010113          	addi	x2,x2,-176
    200025b8:	0a113423          	sd	x1,168(x2)
    200025bc:	0a813023          	sd	x8,160(x2)
    200025c0:	08913c23          	sd	x9,152(x2)
    200025c4:	09213823          	sd	x18,144(x2)
    200025c8:	09313423          	sd	x19,136(x2)
    200025cc:	09413023          	sd	x20,128(x2)
    200025d0:	07513c23          	sd	x21,120(x2)
    200025d4:	07613823          	sd	x22,112(x2)
    200025d8:	07713423          	sd	x23,104(x2)
    200025dc:	00050413          	addi	x8,x10,0
    200025e0:	00853a83          	ld	x21,8(x10)
    200025e4:	00053a03          	ld	x20,0(x10)
    200025e8:	018abb03          	ld	x22,24(x21)
    200025ec:	00060913          	addi	x18,x12,0
    200025f0:	00058993          	addi	x19,x11,0
    200025f4:	00002597          	auipc	x11,0x2
    200025f8:	cbe58593          	addi	x11,x11,-834 # 200042b2 <_binary_loader_binary_bin_start+0x416a>
    200025fc:	00400613          	addi	x12,x0,4
    20002600:	000a0513          	addi	x10,x20,0
    20002604:	000b00e7          	jalr	x1,0(x22)
    20002608:	00100493          	addi	x9,x0,1
    2000260c:	10051463          	bne	x10,x0,20002714 <_binary_loader_binary_bin_start+0x25cc>
    20002610:	03046b83          	lwu	x23,48(x8)
    20002614:	004bf513          	andi	x10,x23,4
    20002618:	02051a63          	bne	x10,x0,2000264c <_binary_loader_binary_bin_start+0x2504>
    2000261c:	00002597          	auipc	x11,0x2
    20002620:	e4a58593          	addi	x11,x11,-438 # 20004466 <_binary_loader_binary_bin_start+0x431e>
    20002624:	00100613          	addi	x12,x0,1
    20002628:	00100493          	addi	x9,x0,1
    2000262c:	000a0513          	addi	x10,x20,0
    20002630:	000b00e7          	jalr	x1,0(x22)
    20002634:	0e051063          	bne	x10,x0,20002714 <_binary_loader_binary_bin_start+0x25cc>
    20002638:	00098513          	addi	x10,x19,0
    2000263c:	00040593          	addi	x11,x8,0
    20002640:	000900e7          	jalr	x1,0(x18)
    20002644:	0a050863          	beq	x10,x0,200026f4 <_binary_loader_binary_bin_start+0x25ac>
    20002648:	0cc0006f          	jal	x0,20002714 <_binary_loader_binary_bin_start+0x25cc>
    2000264c:	00002597          	auipc	x11,0x2
    20002650:	e1858593          	addi	x11,x11,-488 # 20004464 <_binary_loader_binary_bin_start+0x431c>
    20002654:	00200613          	addi	x12,x0,2
    20002658:	000a0513          	addi	x10,x20,0
    2000265c:	000b00e7          	jalr	x1,0(x22)
    20002660:	0a051a63          	bne	x10,x0,20002714 <_binary_loader_binary_bin_start+0x25cc>
    20002664:	00100493          	addi	x9,x0,1
    20002668:	029103a3          	sb	x9,39(x2)
    2000266c:	01413423          	sd	x20,8(x2)
    20002670:	01513823          	sd	x21,16(x2)
    20002674:	02710513          	addi	x10,x2,39
    20002678:	00a13c23          	sd	x10,24(x2)
    2000267c:	03442503          	lw	x10,52(x8)
    20002680:	03840583          	lb	x11,56(x8)
    20002684:	01043603          	ld	x12,16(x8)
    20002688:	01843683          	ld	x13,24(x8)
    2000268c:	02043703          	ld	x14,32(x8)
    20002690:	02843783          	ld	x15,40(x8)
    20002694:	05712c23          	sw	x23,88(x2)
    20002698:	04a12e23          	sw	x10,92(x2)
    2000269c:	06b10023          	sb	x11,96(x2)
    200026a0:	02c13c23          	sd	x12,56(x2)
    200026a4:	04d13023          	sd	x13,64(x2)
    200026a8:	04e13423          	sd	x14,72(x2)
    200026ac:	04f13823          	sd	x15,80(x2)
    200026b0:	00810513          	addi	x10,x2,8
    200026b4:	02a13423          	sd	x10,40(x2)
    200026b8:	00002517          	auipc	x10,0x2
    200026bc:	f6850513          	addi	x10,x10,-152 # 20004620 <_binary_loader_binary_bin_start+0x44d8>
    200026c0:	02a13823          	sd	x10,48(x2)
    200026c4:	02810593          	addi	x11,x2,40
    200026c8:	00098513          	addi	x10,x19,0
    200026cc:	000900e7          	jalr	x1,0(x18)
    200026d0:	04051263          	bne	x10,x0,20002714 <_binary_loader_binary_bin_start+0x25cc>
    200026d4:	03013583          	ld	x11,48(x2)
    200026d8:	02813503          	ld	x10,40(x2)
    200026dc:	0185b683          	ld	x13,24(x11)
    200026e0:	00002597          	auipc	x11,0x2
    200026e4:	d7358593          	addi	x11,x11,-653 # 20004453 <_binary_loader_binary_bin_start+0x430b>
    200026e8:	00200613          	addi	x12,x0,2
    200026ec:	000680e7          	jalr	x1,0(x13)
    200026f0:	02051263          	bne	x10,x0,20002714 <_binary_loader_binary_bin_start+0x25cc>
    200026f4:	00843583          	ld	x11,8(x8)
    200026f8:	00043503          	ld	x10,0(x8)
    200026fc:	0185b683          	ld	x13,24(x11)
    20002700:	00002597          	auipc	x11,0x2
    20002704:	d6758593          	addi	x11,x11,-665 # 20004467 <_binary_loader_binary_bin_start+0x431f>
    20002708:	00100613          	addi	x12,x0,1
    2000270c:	000680e7          	jalr	x1,0(x13)
    20002710:	00050493          	addi	x9,x10,0
    20002714:	00048513          	addi	x10,x9,0
    20002718:	0a813083          	ld	x1,168(x2)
    2000271c:	0a013403          	ld	x8,160(x2)
    20002720:	09813483          	ld	x9,152(x2)
    20002724:	09013903          	ld	x18,144(x2)
    20002728:	08813983          	ld	x19,136(x2)
    2000272c:	08013a03          	ld	x20,128(x2)
    20002730:	07813a83          	ld	x21,120(x2)
    20002734:	07013b03          	ld	x22,112(x2)
    20002738:	06813b83          	ld	x23,104(x2)
    2000273c:	0b010113          	addi	x2,x2,176
    20002740:	00008067          	jalr	x0,0(x1)
    20002744:	f9010113          	addi	x2,x2,-112
    20002748:	06113423          	sd	x1,104(x2)
    2000274c:	06813023          	sd	x8,96(x2)
    20002750:	04913c23          	sd	x9,88(x2)
    20002754:	05213823          	sd	x18,80(x2)
    20002758:	05313423          	sd	x19,72(x2)
    2000275c:	05413023          	sd	x20,64(x2)
    20002760:	03513c23          	sd	x21,56(x2)
    20002764:	03613823          	sd	x22,48(x2)
    20002768:	03713423          	sd	x23,40(x2)
    2000276c:	03813023          	sd	x24,32(x2)
    20002770:	01913c23          	sd	x25,24(x2)
    20002774:	01a13823          	sd	x26,16(x2)
    20002778:	0085b603          	ld	x12,8(x11)
    2000277c:	0005b403          	ld	x8,0(x11)
    20002780:	02063303          	ld	x6,32(x12)
    20002784:	00050493          	addi	x9,x10,0
    20002788:	02700593          	addi	x11,x0,39
    2000278c:	02700913          	addi	x18,x0,39
    20002790:	00040513          	addi	x10,x8,0
    20002794:	00613423          	sd	x6,8(x2)
    20002798:	000300e7          	jalr	x1,0(x6)
    2000279c:	04050063          	beq	x10,x0,200027dc <_binary_loader_binary_bin_start+0x2694>
    200027a0:	00100513          	addi	x10,x0,1
    200027a4:	06813083          	ld	x1,104(x2)
    200027a8:	06013403          	ld	x8,96(x2)
    200027ac:	05813483          	ld	x9,88(x2)
    200027b0:	05013903          	ld	x18,80(x2)
    200027b4:	04813983          	ld	x19,72(x2)
    200027b8:	04013a03          	ld	x20,64(x2)
    200027bc:	03813a83          	ld	x21,56(x2)
    200027c0:	03013b03          	ld	x22,48(x2)
    200027c4:	02813b83          	ld	x23,40(x2)
    200027c8:	02013c03          	ld	x24,32(x2)
    200027cc:	01813c83          	ld	x25,24(x2)
    200027d0:	01013d03          	ld	x26,16(x2)
    200027d4:	07010113          	addi	x2,x2,112
    200027d8:	00008067          	jalr	x0,0(x1)
    200027dc:	0004e483          	lwu	x9,0(x9)
    200027e0:	02b49513          	slli	x10,x9,0x2b
    200027e4:	02b55513          	srli	x10,x10,0x2b
    200027e8:	02a96863          	bltu	x18,x10,20002818 <_binary_loader_binary_bin_start+0x26d0>
    200027ec:	00349513          	slli	x10,x9,0x3
    200027f0:	00001597          	auipc	x11,0x1
    200027f4:	5a858593          	addi	x11,x11,1448 # 20003d98 <_binary_loader_binary_bin_start+0x3c50>
    200027f8:	00b50533          	add	x10,x10,x11
    200027fc:	00053503          	ld	x10,0(x10)
    20002800:	03000913          	addi	x18,x0,48
    20002804:	001105b7          	lui	x11,0x110
    20002808:	0025899b          	addiw	x19,x11,2
    2000280c:	00050067          	jalr	x0,0(x10)
    20002810:	07400913          	addi	x18,x0,116
    20002814:	0500006f          	jal	x0,20002864 <_binary_loader_binary_bin_start+0x271c>
    20002818:	05c00913          	addi	x18,x0,92
    2000281c:	05248463          	beq	x9,x18,20002864 <_binary_loader_binary_bin_start+0x271c>
    20002820:	00048513          	addi	x10,x9,0
    20002824:	00001097          	auipc	x1,0x1
    20002828:	dcc080e7          	jalr	x1,-564(x1) # 200035f0 <_binary_loader_binary_bin_start+0x34a8>
    2000282c:	18051063          	bne	x10,x0,200029ac <_binary_loader_binary_bin_start+0x2864>
    20002830:	00048513          	addi	x10,x9,0
    20002834:	00001097          	auipc	x1,0x1
    20002838:	b1c080e7          	jalr	x1,-1252(x1) # 20003350 <_binary_loader_binary_bin_start+0x3208>
    2000283c:	16050863          	beq	x10,x0,200029ac <_binary_loader_binary_bin_start+0x2864>
    20002840:	00110537          	lui	x10,0x110
    20002844:	0015099b          	addiw	x19,x10,1
    20002848:	00048913          	addi	x18,x9,0
    2000284c:	0200006f          	jal	x0,2000286c <_binary_loader_binary_bin_start+0x2724>
    20002850:	06e00913          	addi	x18,x0,110
    20002854:	0100006f          	jal	x0,20002864 <_binary_loader_binary_bin_start+0x271c>
    20002858:	07200913          	addi	x18,x0,114
    2000285c:	0080006f          	jal	x0,20002864 <_binary_loader_binary_bin_start+0x271c>
    20002860:	02700913          	addi	x18,x0,39
    20002864:	00110537          	lui	x10,0x110
    20002868:	0025099b          	addiw	x19,x10,2
    2000286c:	00500613          	addi	x12,x0,5
    20002870:	ffef04b7          	lui	x9,0xffef0
    20002874:	01000a13          	addi	x20,x0,16
    20002878:	00110537          	lui	x10,0x110
    2000287c:	00150a9b          	addiw	x21,x10,1
    20002880:	00100b13          	addi	x22,x0,1
    20002884:	00200b93          	addi	x23,x0,2
    20002888:	00001c17          	auipc	x24,0x1
    2000288c:	650c0c13          	addi	x24,x24,1616 # 20003ed8 <_binary_loader_binary_bin_start+0x3d90>
    20002890:	00a00c93          	addi	x25,x0,10
    20002894:	0200006f          	jal	x0,200028b4 <_binary_loader_binary_bin_start+0x276c>
    20002898:	00060d13          	addi	x26,x12,0
    2000289c:	000a8993          	addi	x19,x21,0
    200028a0:	00040513          	addi	x10,x8,0
    200028a4:	00813303          	ld	x6,8(x2)
    200028a8:	000300e7          	jalr	x1,0(x6)
    200028ac:	000d0613          	addi	x12,x26,0
    200028b0:	ee0518e3          	bne	x10,x0,200027a0 <_binary_loader_binary_bin_start+0x2658>
    200028b4:	0109d51b          	srliw	x10,x19,0x10
    200028b8:	06aa6463          	bltu	x20,x10,20002920 <_binary_loader_binary_bin_start+0x27d8>
    200028bc:	00300513          	addi	x10,x0,3
    200028c0:	06ab5863          	bge	x22,x10,20002930 <_binary_loader_binary_bin_start+0x27e8>
    200028c4:	05c00593          	addi	x11,x0,92
    200028c8:	fd7508e3          	beq	x10,x23,20002898 <_binary_loader_binary_bin_start+0x2750>
    200028cc:	0ff67513          	andi	x10,x12,255
    200028d0:	00351513          	slli	x10,x10,0x3
    200028d4:	01850533          	add	x10,x10,x24
    200028d8:	00053503          	ld	x10,0(x10) # 110000 <_binary_loader_binary_bin_size+0x10ad60>
    200028dc:	00000d13          	addi	x26,x0,0
    200028e0:	07d00593          	addi	x11,x0,125
    200028e4:	00050067          	jalr	x0,0(x10)
    200028e8:	0029151b          	slliw	x10,x18,0x2
    200028ec:	00a9d53b          	srlw	x10,x19,x10
    200028f0:	00f57513          	andi	x10,x10,15
    200028f4:	03000593          	addi	x11,x0,48
    200028f8:	01956463          	bltu	x10,x25,20002900 <_binary_loader_binary_bin_start+0x27b8>
    200028fc:	05700593          	addi	x11,x0,87
    20002900:	00000693          	addi	x13,x0,0
    20002904:	00100d13          	addi	x26,x0,1
    20002908:	00090663          	beq	x18,x0,20002914 <_binary_loader_binary_bin_start+0x27cc>
    2000290c:	fff90693          	addi	x13,x18,-1
    20002910:	00060d13          	addi	x26,x12,0
    20002914:	00a585b3          	add	x11,x11,x10
    20002918:	00068913          	addi	x18,x13,0
    2000291c:	f85ff06f          	jal	x0,200028a0 <_binary_loader_binary_bin_start+0x2758>
    20002920:	02099513          	slli	x10,x19,0x20
    20002924:	02055513          	srli	x10,x10,0x20
    20002928:	00950533          	add	x10,x10,x9
    2000292c:	f8ab4ce3          	blt	x22,x10,200028c4 <_binary_loader_binary_bin_start+0x277c>
    20002930:	03651c63          	bne	x10,x22,20002968 <_binary_loader_binary_bin_start+0x2820>
    20002934:	001109b7          	lui	x19,0x110
    20002938:	00060d13          	addi	x26,x12,0
    2000293c:	00090593          	addi	x11,x18,0
    20002940:	f61ff06f          	jal	x0,200028a0 <_binary_loader_binary_bin_start+0x2758>
    20002944:	07b00593          	addi	x11,x0,123
    20002948:	00200d13          	addi	x26,x0,2
    2000294c:	f55ff06f          	jal	x0,200028a0 <_binary_loader_binary_bin_start+0x2758>
    20002950:	07500593          	addi	x11,x0,117
    20002954:	00300d13          	addi	x26,x0,3
    20002958:	f49ff06f          	jal	x0,200028a0 <_binary_loader_binary_bin_start+0x2758>
    2000295c:	00400d13          	addi	x26,x0,4
    20002960:	05c00593          	addi	x11,x0,92
    20002964:	f3dff06f          	jal	x0,200028a0 <_binary_loader_binary_bin_start+0x2758>
    20002968:	02700593          	addi	x11,x0,39
    2000296c:	00040513          	addi	x10,x8,0
    20002970:	00813303          	ld	x6,8(x2)
    20002974:	06813083          	ld	x1,104(x2)
    20002978:	06013403          	ld	x8,96(x2)
    2000297c:	05813483          	ld	x9,88(x2)
    20002980:	05013903          	ld	x18,80(x2)
    20002984:	04813983          	ld	x19,72(x2)
    20002988:	04013a03          	ld	x20,64(x2)
    2000298c:	03813a83          	ld	x21,56(x2)
    20002990:	03013b03          	ld	x22,48(x2)
    20002994:	02813b83          	ld	x23,40(x2)
    20002998:	02013c03          	ld	x24,32(x2)
    2000299c:	01813c83          	ld	x25,24(x2)
    200029a0:	01013d03          	ld	x26,16(x2)
    200029a4:	07010113          	addi	x2,x2,112
    200029a8:	00030067          	jalr	x0,0(x6)
    200029ac:	0014e513          	ori	x10,x9,1
    200029b0:	00155593          	srli	x11,x10,0x1
    200029b4:	00b56533          	or	x10,x10,x11
    200029b8:	00255593          	srli	x11,x10,0x2
    200029bc:	00b56533          	or	x10,x10,x11
    200029c0:	00455593          	srli	x11,x10,0x4
    200029c4:	00b56533          	or	x10,x10,x11
    200029c8:	00855593          	srli	x11,x10,0x8
    200029cc:	00b56533          	or	x10,x10,x11
    200029d0:	0105559b          	srliw	x11,x10,0x10
    200029d4:	00b56533          	or	x10,x10,x11
    200029d8:	fff54513          	xori	x10,x10,-1
    200029dc:	00155593          	srli	x11,x10,0x1
    200029e0:	55555637          	lui	x12,0x55555
    200029e4:	5556061b          	addiw	x12,x12,1365
    200029e8:	00c5f5b3          	and	x11,x11,x12
    200029ec:	40b5053b          	subw	x10,x10,x11
    200029f0:	333335b7          	lui	x11,0x33333
    200029f4:	3335859b          	addiw	x11,x11,819
    200029f8:	00b57633          	and	x12,x10,x11
    200029fc:	00255513          	srli	x10,x10,0x2
    20002a00:	00b57533          	and	x10,x10,x11
    20002a04:	00a60533          	add	x10,x12,x10
    20002a08:	00455593          	srli	x11,x10,0x4
    20002a0c:	00b50533          	add	x10,x10,x11
    20002a10:	0f0f15b7          	lui	x11,0xf0f1
    20002a14:	f0f5859b          	addiw	x11,x11,-241
    20002a18:	00b57533          	and	x10,x10,x11
    20002a1c:	010105b7          	lui	x11,0x1010
    20002a20:	1015859b          	addiw	x11,x11,257
    20002a24:	00001097          	auipc	x1,0x1
    20002a28:	1bc080e7          	jalr	x1,444(x1) # 20003be0 <_binary_loader_binary_bin_start+0x3a98>
    20002a2c:	01a5551b          	srliw	x10,x10,0x1a
    20002a30:	00754913          	xori	x18,x10,7
    20002a34:	00048993          	addi	x19,x9,0 # ffffffffffef0000 <__BSS_END+0xffffffff7fdefffe>
    20002a38:	e35ff06f          	jal	x0,2000286c <_binary_loader_binary_bin_start+0x2724>
    20002a3c:	0085b603          	ld	x12,8(x11) # 1010008 <_binary_loader_binary_bin_size+0x100ad68>
    20002a40:	0005b503          	ld	x10,0(x11)
    20002a44:	01863303          	ld	x6,24(x12) # 55555018 <_binary_loader_binary_bin_end+0x3554fc30>
    20002a48:	00002597          	auipc	x11,0x2
    20002a4c:	cb058593          	addi	x11,x11,-848 # 200046f8 <_binary_loader_binary_bin_start+0x45b0>
    20002a50:	00500613          	addi	x12,x0,5
    20002a54:	00030067          	jalr	x0,0(x6)
    20002a58:	f4010113          	addi	x2,x2,-192
    20002a5c:	0a113c23          	sd	x1,184(x2)
    20002a60:	0a813823          	sd	x8,176(x2)
    20002a64:	0a913423          	sd	x9,168(x2)
    20002a68:	0b213023          	sd	x18,160(x2)
    20002a6c:	09313c23          	sd	x19,152(x2)
    20002a70:	09413823          	sd	x20,144(x2)
    20002a74:	09513423          	sd	x21,136(x2)
    20002a78:	09613023          	sd	x22,128(x2)
    20002a7c:	07713c23          	sd	x23,120(x2)
    20002a80:	07813823          	sd	x24,112(x2)
    20002a84:	07913423          	sd	x25,104(x2)
    20002a88:	07a13023          	sd	x26,96(x2)
    20002a8c:	05b13c23          	sd	x27,88(x2)
    20002a90:	00053503          	ld	x10,0(x10)
    20002a94:	0085b683          	ld	x13,8(x11)
    20002a98:	00053603          	ld	x12,0(x10)
    20002a9c:	04c13423          	sd	x12,72(x2)
    20002aa0:	00853483          	ld	x9,8(x10)
    20002aa4:	0005b403          	ld	x8,0(x11)
    20002aa8:	04d13023          	sd	x13,64(x2)
    20002aac:	0206b303          	ld	x6,32(x13)
    20002ab0:	02200593          	addi	x11,x0,34
    20002ab4:	00040513          	addi	x10,x8,0
    20002ab8:	04613823          	sd	x6,80(x2)
    20002abc:	000300e7          	jalr	x1,0(x6)
    20002ac0:	04050263          	beq	x10,x0,20002b04 <_binary_loader_binary_bin_start+0x29bc>
    20002ac4:	00100513          	addi	x10,x0,1
    20002ac8:	0b813083          	ld	x1,184(x2)
    20002acc:	0b013403          	ld	x8,176(x2)
    20002ad0:	0a813483          	ld	x9,168(x2)
    20002ad4:	0a013903          	ld	x18,160(x2)
    20002ad8:	09813983          	ld	x19,152(x2)
    20002adc:	09013a03          	ld	x20,144(x2)
    20002ae0:	08813a83          	ld	x21,136(x2)
    20002ae4:	08013b03          	ld	x22,128(x2)
    20002ae8:	07813b83          	ld	x23,120(x2)
    20002aec:	07013c03          	ld	x24,112(x2)
    20002af0:	06813c83          	ld	x25,104(x2)
    20002af4:	06013d03          	ld	x26,96(x2)
    20002af8:	05813d83          	ld	x27,88(x2)
    20002afc:	0c010113          	addi	x2,x2,192
    20002b00:	00008067          	jalr	x0,0(x1)
    20002b04:	3e048063          	beq	x9,x0,20002ee4 <_binary_loader_binary_bin_start+0x2d9c>
    20002b08:	00000b13          	addi	x22,x0,0
    20002b0c:	00000993          	addi	x19,x0,0
    20002b10:	04813583          	ld	x11,72(x2)
    20002b14:	00958533          	add	x10,x11,x9
    20002b18:	02a13023          	sd	x10,32(x2)
    20002b1c:	00110537          	lui	x10,0x110
    20002b20:	0025069b          	addiw	x13,x10,2
    20002b24:	02200713          	addi	x14,x0,34
    20002b28:	ffef0a37          	lui	x20,0xffef0
    20002b2c:	01000d93          	addi	x27,x0,16
    20002b30:	00150b9b          	addiw	x23,x10,1
    20002b34:	00100c93          	addi	x25,x0,1
    20002b38:	00200d13          	addi	x26,x0,2
    20002b3c:	55555537          	lui	x10,0x55555
    20002b40:	5555051b          	addiw	x10,x10,1365
    20002b44:	00a13c23          	sd	x10,24(x2)
    20002b48:	33333537          	lui	x10,0x33333
    20002b4c:	3335051b          	addiw	x10,x10,819
    20002b50:	00a13823          	sd	x10,16(x2)
    20002b54:	0f0f1537          	lui	x10,0xf0f1
    20002b58:	f0f5051b          	addiw	x10,x10,-241
    20002b5c:	00a13423          	sd	x10,8(x2)
    20002b60:	01010537          	lui	x10,0x1010
    20002b64:	1015051b          	addiw	x10,x10,257
    20002b68:	00a13023          	sd	x10,0(x2)
    20002b6c:	00058793          	addi	x15,x11,0
    20002b70:	02d13423          	sd	x13,40(x2)
    20002b74:	00078503          	lb	x10,0(x15)
    20002b78:	0ff57913          	andi	x18,x10,255
    20002b7c:	02054e63          	blt	x10,x0,20002bb8 <_binary_loader_binary_bin_start+0x2a70>
    20002b80:	00178813          	addi	x16,x15,1
    20002b84:	03013823          	sd	x16,48(x2)
    20002b88:	02f13c23          	sd	x15,56(x2)
    20002b8c:	0b276663          	bltu	x14,x18,20002c38 <_binary_loader_binary_bin_start+0x2af0>
    20002b90:	00391513          	slli	x10,x18,0x3
    20002b94:	00001597          	auipc	x11,0x1
    20002b98:	37458593          	addi	x11,x11,884 # 20003f08 <_binary_loader_binary_bin_start+0x3dc0>
    20002b9c:	00b50533          	add	x10,x10,x11
    20002ba0:	00053503          	ld	x10,0(x10) # 1010000 <_binary_loader_binary_bin_size+0x100ad60>
    20002ba4:	03000a93          	addi	x21,x0,48
    20002ba8:	00068c13          	addi	x24,x13,0
    20002bac:	00050067          	jalr	x0,0(x10)
    20002bb0:	07400a93          	addi	x21,x0,116
    20002bb4:	1580006f          	jal	x0,20002d0c <_binary_loader_binary_bin_start+0x2bc4>
    20002bb8:	0017c583          	lbu	x11,1(x15)
    20002bbc:	01f97513          	andi	x10,x18,31
    20002bc0:	03f5f593          	andi	x11,x11,63
    20002bc4:	0df00613          	addi	x12,x0,223
    20002bc8:	05267c63          	bgeu	x12,x18,20002c20 <_binary_loader_binary_bin_start+0x2ad8>
    20002bcc:	0027c603          	lbu	x12,2(x15)
    20002bd0:	00378813          	addi	x16,x15,3
    20002bd4:	00659593          	slli	x11,x11,0x6
    20002bd8:	03f67613          	andi	x12,x12,63
    20002bdc:	00c5e5b3          	or	x11,x11,x12
    20002be0:	0f000613          	addi	x12,x0,240
    20002be4:	2cc96263          	bltu	x18,x12,20002ea8 <_binary_loader_binary_bin_start+0x2d60>
    20002be8:	00084603          	lbu	x12,0(x16) # 110000 <_binary_loader_binary_bin_size+0x10ad60>
    20002bec:	03d51513          	slli	x10,x10,0x3d
    20002bf0:	02b55513          	srli	x10,x10,0x2b
    20002bf4:	00659593          	slli	x11,x11,0x6
    20002bf8:	03f67613          	andi	x12,x12,63
    20002bfc:	00c5e5b3          	or	x11,x11,x12
    20002c00:	00a5e933          	or	x18,x11,x10
    20002c04:	00110537          	lui	x10,0x110
    20002c08:	2aa90c63          	beq	x18,x10,20002ec0 <_binary_loader_binary_bin_start+0x2d78>
    20002c0c:	00478813          	addi	x16,x15,4
    20002c10:	03013823          	sd	x16,48(x2)
    20002c14:	02f13c23          	sd	x15,56(x2)
    20002c18:	f7277ce3          	bgeu	x14,x18,20002b90 <_binary_loader_binary_bin_start+0x2a48>
    20002c1c:	01c0006f          	jal	x0,20002c38 <_binary_loader_binary_bin_start+0x2af0>
    20002c20:	00278813          	addi	x16,x15,2
    20002c24:	00651513          	slli	x10,x10,0x6
    20002c28:	00b56933          	or	x18,x10,x11
    20002c2c:	03013823          	sd	x16,48(x2)
    20002c30:	02f13c23          	sd	x15,56(x2)
    20002c34:	f5277ee3          	bgeu	x14,x18,20002b90 <_binary_loader_binary_bin_start+0x2a48>
    20002c38:	05c00513          	addi	x10,x0,92
    20002c3c:	00a91863          	bne	x18,x10,20002c4c <_binary_loader_binary_bin_start+0x2b04>
    20002c40:	00068c13          	addi	x24,x13,0
    20002c44:	00090a93          	addi	x21,x18,0
    20002c48:	0c80006f          	jal	x0,20002d10 <_binary_loader_binary_bin_start+0x2bc8>
    20002c4c:	00090513          	addi	x10,x18,0
    20002c50:	00001097          	auipc	x1,0x1
    20002c54:	9a0080e7          	jalr	x1,-1632(x1) # 200035f0 <_binary_loader_binary_bin_start+0x34a8>
    20002c58:	00051a63          	bne	x10,x0,20002c6c <_binary_loader_binary_bin_start+0x2b24>
    20002c5c:	00090513          	addi	x10,x18,0
    20002c60:	00000097          	auipc	x1,0x0
    20002c64:	6f0080e7          	jalr	x1,1776(x1) # 20003350 <_binary_loader_binary_bin_start+0x3208>
    20002c68:	20051e63          	bne	x10,x0,20002e84 <_binary_loader_binary_bin_start+0x2d3c>
    20002c6c:	00196513          	ori	x10,x18,1
    20002c70:	00155593          	srli	x11,x10,0x1
    20002c74:	00b56533          	or	x10,x10,x11
    20002c78:	00255593          	srli	x11,x10,0x2
    20002c7c:	00b56533          	or	x10,x10,x11
    20002c80:	00455593          	srli	x11,x10,0x4
    20002c84:	00b56533          	or	x10,x10,x11
    20002c88:	00855593          	srli	x11,x10,0x8
    20002c8c:	00b56533          	or	x10,x10,x11
    20002c90:	02151593          	slli	x11,x10,0x21
    20002c94:	0315d593          	srli	x11,x11,0x31
    20002c98:	00b56533          	or	x10,x10,x11
    20002c9c:	fff54513          	xori	x10,x10,-1
    20002ca0:	00155593          	srli	x11,x10,0x1
    20002ca4:	01813603          	ld	x12,24(x2)
    20002ca8:	00c5f5b3          	and	x11,x11,x12
    20002cac:	40b5053b          	subw	x10,x10,x11
    20002cb0:	01013603          	ld	x12,16(x2)
    20002cb4:	00c575b3          	and	x11,x10,x12
    20002cb8:	00255513          	srli	x10,x10,0x2
    20002cbc:	00c57533          	and	x10,x10,x12
    20002cc0:	00a58533          	add	x10,x11,x10
    20002cc4:	00455593          	srli	x11,x10,0x4
    20002cc8:	00b50533          	add	x10,x10,x11
    20002ccc:	00813583          	ld	x11,8(x2)
    20002cd0:	00b57533          	and	x10,x10,x11
    20002cd4:	00013583          	ld	x11,0(x2)
    20002cd8:	00001097          	auipc	x1,0x1
    20002cdc:	f08080e7          	jalr	x1,-248(x1) # 20003be0 <_binary_loader_binary_bin_start+0x3a98>
    20002ce0:	01a5551b          	srliw	x10,x10,0x1a
    20002ce4:	00754a93          	xori	x21,x10,7
    20002ce8:	00110537          	lui	x10,0x110
    20002cec:	0015051b          	addiw	x10,x10,1
    20002cf0:	00090c13          	addi	x24,x18,0
    20002cf4:	02813683          	ld	x13,40(x2)
    20002cf8:	18a90863          	beq	x18,x10,20002e88 <_binary_loader_binary_bin_start+0x2d40>
    20002cfc:	0140006f          	jal	x0,20002d10 <_binary_loader_binary_bin_start+0x2bc8>
    20002d00:	06e00a93          	addi	x21,x0,110
    20002d04:	0080006f          	jal	x0,20002d0c <_binary_loader_binary_bin_start+0x2bc4>
    20002d08:	07200a93          	addi	x21,x0,114
    20002d0c:	00068c13          	addi	x24,x13,0
    20002d10:	2769e663          	bltu	x19,x22,20002f7c <_binary_loader_binary_bin_start+0x2e34>
    20002d14:	04813503          	ld	x10,72(x2)
    20002d18:	016505b3          	add	x11,x10,x22
    20002d1c:	000b0e63          	beq	x22,x0,20002d38 <_binary_loader_binary_bin_start+0x2bf0>
    20002d20:	009b7a63          	bgeu	x22,x9,20002d34 <_binary_loader_binary_bin_start+0x2bec>
    20002d24:	00058503          	lb	x10,0(x11)
    20002d28:	fc000613          	addi	x12,x0,-64
    20002d2c:	00c55663          	bge	x10,x12,20002d38 <_binary_loader_binary_bin_start+0x2bf0>
    20002d30:	24c0006f          	jal	x0,20002f7c <_binary_loader_binary_bin_start+0x2e34>
    20002d34:	249b1463          	bne	x22,x9,20002f7c <_binary_loader_binary_bin_start+0x2e34>
    20002d38:	02098263          	beq	x19,x0,20002d5c <_binary_loader_binary_bin_start+0x2c14>
    20002d3c:	0099fe63          	bgeu	x19,x9,20002d58 <_binary_loader_binary_bin_start+0x2c10>
    20002d40:	04813503          	ld	x10,72(x2)
    20002d44:	01350533          	add	x10,x10,x19
    20002d48:	00050503          	lb	x10,0(x10) # 110000 <_binary_loader_binary_bin_size+0x10ad60>
    20002d4c:	fbf00613          	addi	x12,x0,-65
    20002d50:	00a64663          	blt	x12,x10,20002d5c <_binary_loader_binary_bin_start+0x2c14>
    20002d54:	2280006f          	jal	x0,20002f7c <_binary_loader_binary_bin_start+0x2e34>
    20002d58:	22999263          	bne	x19,x9,20002f7c <_binary_loader_binary_bin_start+0x2e34>
    20002d5c:	04013503          	ld	x10,64(x2)
    20002d60:	01853683          	ld	x13,24(x10)
    20002d64:	41698633          	sub	x12,x19,x22
    20002d68:	00040513          	addi	x10,x8,0
    20002d6c:	000680e7          	jalr	x1,0(x13)
    20002d70:	d4051ae3          	bne	x10,x0,20002ac4 <_binary_loader_binary_bin_start+0x297c>
    20002d74:	00500613          	addi	x12,x0,5
    20002d78:	0200006f          	jal	x0,20002d98 <_binary_loader_binary_bin_start+0x2c50>
    20002d7c:	000b8c13          	addi	x24,x23,0
    20002d80:	00060b13          	addi	x22,x12,0
    20002d84:	00040513          	addi	x10,x8,0
    20002d88:	05013303          	ld	x6,80(x2)
    20002d8c:	000300e7          	jalr	x1,0(x6)
    20002d90:	000b0613          	addi	x12,x22,0
    20002d94:	d20518e3          	bne	x10,x0,20002ac4 <_binary_loader_binary_bin_start+0x297c>
    20002d98:	010c551b          	srliw	x10,x24,0x10
    20002d9c:	06adea63          	bltu	x27,x10,20002e10 <_binary_loader_binary_bin_start+0x2cc8>
    20002da0:	00300513          	addi	x10,x0,3
    20002da4:	06acde63          	bge	x25,x10,20002e20 <_binary_loader_binary_bin_start+0x2cd8>
    20002da8:	05c00593          	addi	x11,x0,92
    20002dac:	fda508e3          	beq	x10,x26,20002d7c <_binary_loader_binary_bin_start+0x2c34>
    20002db0:	0ff67513          	andi	x10,x12,255
    20002db4:	00351513          	slli	x10,x10,0x3
    20002db8:	00001597          	auipc	x11,0x1
    20002dbc:	26858593          	addi	x11,x11,616 # 20004020 <_binary_loader_binary_bin_start+0x3ed8>
    20002dc0:	00b50533          	add	x10,x10,x11
    20002dc4:	00053503          	ld	x10,0(x10)
    20002dc8:	00000b13          	addi	x22,x0,0
    20002dcc:	07d00593          	addi	x11,x0,125
    20002dd0:	00050067          	jalr	x0,0(x10)
    20002dd4:	002a951b          	slliw	x10,x21,0x2
    20002dd8:	00ac553b          	srlw	x10,x24,x10
    20002ddc:	00f57513          	andi	x10,x10,15
    20002de0:	03000593          	addi	x11,x0,48
    20002de4:	00a00693          	addi	x13,x0,10
    20002de8:	00d56463          	bltu	x10,x13,20002df0 <_binary_loader_binary_bin_start+0x2ca8>
    20002dec:	05700593          	addi	x11,x0,87
    20002df0:	00000693          	addi	x13,x0,0
    20002df4:	00100b13          	addi	x22,x0,1
    20002df8:	000a8663          	beq	x21,x0,20002e04 <_binary_loader_binary_bin_start+0x2cbc>
    20002dfc:	fffa8693          	addi	x13,x21,-1
    20002e00:	00060b13          	addi	x22,x12,0
    20002e04:	00a585b3          	add	x11,x11,x10
    20002e08:	00068a93          	addi	x21,x13,0
    20002e0c:	f79ff06f          	jal	x0,20002d84 <_binary_loader_binary_bin_start+0x2c3c>
    20002e10:	020c1513          	slli	x10,x24,0x20
    20002e14:	02055513          	srli	x10,x10,0x20
    20002e18:	01450533          	add	x10,x10,x20
    20002e1c:	f8acc6e3          	blt	x25,x10,20002da8 <_binary_loader_binary_bin_start+0x2c60>
    20002e20:	03951c63          	bne	x10,x25,20002e58 <_binary_loader_binary_bin_start+0x2d10>
    20002e24:	00110c37          	lui	x24,0x110
    20002e28:	00060b13          	addi	x22,x12,0
    20002e2c:	000a8593          	addi	x11,x21,0
    20002e30:	f55ff06f          	jal	x0,20002d84 <_binary_loader_binary_bin_start+0x2c3c>
    20002e34:	07500593          	addi	x11,x0,117
    20002e38:	00300b13          	addi	x22,x0,3
    20002e3c:	f49ff06f          	jal	x0,20002d84 <_binary_loader_binary_bin_start+0x2c3c>
    20002e40:	07b00593          	addi	x11,x0,123
    20002e44:	00200b13          	addi	x22,x0,2
    20002e48:	f3dff06f          	jal	x0,20002d84 <_binary_loader_binary_bin_start+0x2c3c>
    20002e4c:	00400b13          	addi	x22,x0,4
    20002e50:	05c00593          	addi	x11,x0,92
    20002e54:	f31ff06f          	jal	x0,20002d84 <_binary_loader_binary_bin_start+0x2c3c>
    20002e58:	00100513          	addi	x10,x0,1
    20002e5c:	08000593          	addi	x11,x0,128
    20002e60:	02b96063          	bltu	x18,x11,20002e80 <_binary_loader_binary_bin_start+0x2d38>
    20002e64:	00b95593          	srli	x11,x18,0xb
    20002e68:	00200513          	addi	x10,x0,2
    20002e6c:	00058a63          	beq	x11,x0,20002e80 <_binary_loader_binary_bin_start+0x2d38>
    20002e70:	01095513          	srli	x10,x18,0x10
    20002e74:	00153513          	sltiu	x10,x10,1
    20002e78:	00400593          	addi	x11,x0,4
    20002e7c:	40a58533          	sub	x10,x11,x10
    20002e80:	01350b33          	add	x22,x10,x19
    20002e84:	02813683          	ld	x13,40(x2)
    20002e88:	02200713          	addi	x14,x0,34
    20002e8c:	03813503          	ld	x10,56(x2)
    20002e90:	03013783          	ld	x15,48(x2)
    20002e94:	40a98533          	sub	x10,x19,x10
    20002e98:	00f509b3          	add	x19,x10,x15
    20002e9c:	02013503          	ld	x10,32(x2)
    20002ea0:	cca79ae3          	bne	x15,x10,20002b74 <_binary_loader_binary_bin_start+0x2a2c>
    20002ea4:	01c0006f          	jal	x0,20002ec0 <_binary_loader_binary_bin_start+0x2d78>
    20002ea8:	00c51513          	slli	x10,x10,0xc
    20002eac:	00a5e933          	or	x18,x11,x10
    20002eb0:	03013823          	sd	x16,48(x2)
    20002eb4:	02f13c23          	sd	x15,56(x2)
    20002eb8:	cd277ce3          	bgeu	x14,x18,20002b90 <_binary_loader_binary_bin_start+0x2a48>
    20002ebc:	d7dff06f          	jal	x0,20002c38 <_binary_loader_binary_bin_start+0x2af0>
    20002ec0:	020b0263          	beq	x22,x0,20002ee4 <_binary_loader_binary_bin_start+0x2d9c>
    20002ec4:	089b7663          	bgeu	x22,x9,20002f50 <_binary_loader_binary_bin_start+0x2e08>
    20002ec8:	04813503          	ld	x10,72(x2)
    20002ecc:	01650533          	add	x10,x10,x22
    20002ed0:	00050503          	lb	x10,0(x10)
    20002ed4:	fbf00593          	addi	x11,x0,-65
    20002ed8:	08a5d063          	bge	x11,x10,20002f58 <_binary_loader_binary_bin_start+0x2e10>
    20002edc:	000b0513          	addi	x10,x22,0
    20002ee0:	0080006f          	jal	x0,20002ee8 <_binary_loader_binary_bin_start+0x2da0>
    20002ee4:	00000513          	addi	x10,x0,0
    20002ee8:	04013583          	ld	x11,64(x2)
    20002eec:	0185b683          	ld	x13,24(x11)
    20002ef0:	04813583          	ld	x11,72(x2)
    20002ef4:	00a585b3          	add	x11,x11,x10
    20002ef8:	40a48633          	sub	x12,x9,x10
    20002efc:	00040513          	addi	x10,x8,0
    20002f00:	000680e7          	jalr	x1,0(x13)
    20002f04:	bc0510e3          	bne	x10,x0,20002ac4 <_binary_loader_binary_bin_start+0x297c>
    20002f08:	02200593          	addi	x11,x0,34
    20002f0c:	00040513          	addi	x10,x8,0
    20002f10:	05013303          	ld	x6,80(x2)
    20002f14:	0b813083          	ld	x1,184(x2)
    20002f18:	0b013403          	ld	x8,176(x2)
    20002f1c:	0a813483          	ld	x9,168(x2)
    20002f20:	0a013903          	ld	x18,160(x2)
    20002f24:	09813983          	ld	x19,152(x2)
    20002f28:	09013a03          	ld	x20,144(x2)
    20002f2c:	08813a83          	ld	x21,136(x2)
    20002f30:	08013b03          	ld	x22,128(x2)
    20002f34:	07813b83          	ld	x23,120(x2)
    20002f38:	07013c03          	ld	x24,112(x2)
    20002f3c:	06813c83          	ld	x25,104(x2)
    20002f40:	06013d03          	ld	x26,96(x2)
    20002f44:	05813d83          	ld	x27,88(x2)
    20002f48:	0c010113          	addi	x2,x2,192
    20002f4c:	00030067          	jalr	x0,0(x6)
    20002f50:	00048513          	addi	x10,x9,0
    20002f54:	f89b0ae3          	beq	x22,x9,20002ee8 <_binary_loader_binary_bin_start+0x2da0>
    20002f58:	00001717          	auipc	x14,0x1
    20002f5c:	78870713          	addi	x14,x14,1928 # 200046e0 <_binary_loader_binary_bin_start+0x4598>
    20002f60:	04813503          	ld	x10,72(x2)
    20002f64:	00048593          	addi	x11,x9,0
    20002f68:	000b0613          	addi	x12,x22,0
    20002f6c:	00048693          	addi	x13,x9,0
    20002f70:	ffffd097          	auipc	x1,0xffffd
    20002f74:	7b4080e7          	jalr	x1,1972(x1) # 20000724 <_binary_loader_binary_bin_start+0x5dc>
    20002f78:	c0001073          	unimp
    20002f7c:	00001717          	auipc	x14,0x1
    20002f80:	74c70713          	addi	x14,x14,1868 # 200046c8 <_binary_loader_binary_bin_start+0x4580>
    20002f84:	04813503          	ld	x10,72(x2)
    20002f88:	00048593          	addi	x11,x9,0
    20002f8c:	000b0613          	addi	x12,x22,0
    20002f90:	00098693          	addi	x13,x19,0 # 110000 <_binary_loader_binary_bin_size+0x10ad60>
    20002f94:	ffffd097          	auipc	x1,0xffffd
    20002f98:	790080e7          	jalr	x1,1936(x1) # 20000724 <_binary_loader_binary_bin_start+0x5dc>
    20002f9c:	c0001073          	unimp
    20002fa0:	f7010113          	addi	x2,x2,-144
    20002fa4:	08113423          	sd	x1,136(x2)
    20002fa8:	0305e603          	lwu	x12,48(x11)
    20002fac:	00053503          	ld	x10,0(x10)
    20002fb0:	01067693          	andi	x13,x12,16
    20002fb4:	02069063          	bne	x13,x0,20002fd4 <_binary_loader_binary_bin_start+0x2e8c>
    20002fb8:	02067613          	andi	x12,x12,32
    20002fbc:	06061063          	bne	x12,x0,2000301c <_binary_loader_binary_bin_start+0x2ed4>
    20002fc0:	00056503          	lwu	x10,0(x10)
    20002fc4:	08813083          	ld	x1,136(x2)
    20002fc8:	09010113          	addi	x2,x2,144
    20002fcc:	ffffe317          	auipc	x6,0xffffe
    20002fd0:	43030067          	jalr	x0,1072(x6) # 200013fc <_binary_loader_binary_bin_start+0x12b4>
    20002fd4:	00000613          	addi	x12,x0,0
    20002fd8:	00052883          	lw	x17,0(x10)
    20002fdc:	00810513          	addi	x10,x2,8
    20002fe0:	00a00693          	addi	x13,x0,10
    20002fe4:	00f00713          	addi	x14,x0,15
    20002fe8:	01c0006f          	jal	x0,20003004 <_binary_loader_binary_bin_start+0x2ebc>
    20002fec:	00c50333          	add	x6,x10,x12
    20002ff0:	0047d89b          	srliw	x17,x15,0x4
    20002ff4:	0102883b          	addw	x16,x5,x16
    20002ff8:	07030fa3          	sb	x16,127(x6)
    20002ffc:	fff60613          	addi	x12,x12,-1
    20003000:	06f77263          	bgeu	x14,x15,20003064 <_binary_loader_binary_bin_start+0x2f1c>
    20003004:	00088793          	addi	x15,x17,0
    20003008:	00f8f813          	andi	x16,x17,15
    2000300c:	03000293          	addi	x5,x0,48
    20003010:	fcd86ee3          	bltu	x16,x13,20002fec <_binary_loader_binary_bin_start+0x2ea4>
    20003014:	05700293          	addi	x5,x0,87
    20003018:	fd5ff06f          	jal	x0,20002fec <_binary_loader_binary_bin_start+0x2ea4>
    2000301c:	00000613          	addi	x12,x0,0
    20003020:	00052883          	lw	x17,0(x10)
    20003024:	00810513          	addi	x10,x2,8
    20003028:	00a00693          	addi	x13,x0,10
    2000302c:	00f00713          	addi	x14,x0,15
    20003030:	01c0006f          	jal	x0,2000304c <_binary_loader_binary_bin_start+0x2f04>
    20003034:	00c50333          	add	x6,x10,x12
    20003038:	0047d89b          	srliw	x17,x15,0x4
    2000303c:	0102883b          	addw	x16,x5,x16
    20003040:	07030fa3          	sb	x16,127(x6)
    20003044:	fff60613          	addi	x12,x12,-1
    20003048:	00f77e63          	bgeu	x14,x15,20003064 <_binary_loader_binary_bin_start+0x2f1c>
    2000304c:	00088793          	addi	x15,x17,0
    20003050:	00f8f813          	andi	x16,x17,15
    20003054:	03000293          	addi	x5,x0,48
    20003058:	fcd86ee3          	bltu	x16,x13,20003034 <_binary_loader_binary_bin_start+0x2eec>
    2000305c:	03700293          	addi	x5,x0,55
    20003060:	fd5ff06f          	jal	x0,20003034 <_binary_loader_binary_bin_start+0x2eec>
    20003064:	08060513          	addi	x10,x12,128
    20003068:	08100693          	addi	x13,x0,129
    2000306c:	02d57e63          	bgeu	x10,x13,200030a8 <_binary_loader_binary_bin_start+0x2f60>
    20003070:	00810513          	addi	x10,x2,8
    20003074:	00c50533          	add	x10,x10,x12
    20003078:	08050693          	addi	x13,x10,128
    2000307c:	40c00733          	sub	x14,x0,x12
    20003080:	00001797          	auipc	x15,0x1
    20003084:	10078793          	addi	x15,x15,256 # 20004180 <_binary_loader_binary_bin_start+0x4038>
    20003088:	00200613          	addi	x12,x0,2
    2000308c:	00058513          	addi	x10,x11,0
    20003090:	00078593          	addi	x11,x15,0
    20003094:	fffff097          	auipc	x1,0xfffff
    20003098:	bc4080e7          	jalr	x1,-1084(x1) # 20001c58 <_binary_loader_binary_bin_start+0x1b10>
    2000309c:	08813083          	ld	x1,136(x2)
    200030a0:	09010113          	addi	x2,x2,144
    200030a4:	00008067          	jalr	x0,0(x1)
    200030a8:	00001617          	auipc	x12,0x1
    200030ac:	0c060613          	addi	x12,x12,192 # 20004168 <_binary_loader_binary_bin_start+0x4020>
    200030b0:	08000593          	addi	x11,x0,128
    200030b4:	ffffe097          	auipc	x1,0xffffe
    200030b8:	550080e7          	jalr	x1,1360(x1) # 20001604 <_binary_loader_binary_bin_start+0x14bc>
    200030bc:	c0001073          	unimp
    200030c0:	00053503          	ld	x10,0(x10)
    200030c4:	00054603          	lbu	x12,0(x10)
    200030c8:	00058513          	addi	x10,x11,0
    200030cc:	00060c63          	beq	x12,x0,200030e4 <_binary_loader_binary_bin_start+0x2f9c>
    200030d0:	00001597          	auipc	x11,0x1
    200030d4:	1ea58593          	addi	x11,x11,490 # 200042ba <_binary_loader_binary_bin_start+0x4172>
    200030d8:	00400613          	addi	x12,x0,4
    200030dc:	fffff317          	auipc	x6,0xfffff
    200030e0:	f2430067          	jalr	x0,-220(x6) # 20002000 <_binary_loader_binary_bin_start+0x1eb8>
    200030e4:	00001597          	auipc	x11,0x1
    200030e8:	5dc58593          	addi	x11,x11,1500 # 200046c0 <_binary_loader_binary_bin_start+0x4578>
    200030ec:	00500613          	addi	x12,x0,5
    200030f0:	fffff317          	auipc	x6,0xfffff
    200030f4:	f1030067          	jalr	x0,-240(x6) # 20002000 <_binary_loader_binary_bin_start+0x1eb8>
    200030f8:	fc010113          	addi	x2,x2,-64
    200030fc:	02113c23          	sd	x1,56(x2)
    20003100:	00053503          	ld	x10,0(x10)
    20003104:	00053603          	ld	x12,0(x10)
    20003108:	02863503          	ld	x10,40(x12)
    2000310c:	02a13823          	sd	x10,48(x2)
    20003110:	02063503          	ld	x10,32(x12)
    20003114:	02a13423          	sd	x10,40(x2)
    20003118:	01863503          	ld	x10,24(x12)
    2000311c:	02a13023          	sd	x10,32(x2)
    20003120:	01063503          	ld	x10,16(x12)
    20003124:	00a13c23          	sd	x10,24(x2)
    20003128:	00863683          	ld	x13,8(x12)
    2000312c:	0005b503          	ld	x10,0(x11)
    20003130:	00d13823          	sd	x13,16(x2)
    20003134:	00063603          	ld	x12,0(x12)
    20003138:	0085b583          	ld	x11,8(x11)
    2000313c:	00c13423          	sd	x12,8(x2)
    20003140:	00810613          	addi	x12,x2,8
    20003144:	fffff097          	auipc	x1,0xfffff
    20003148:	8a4080e7          	jalr	x1,-1884(x1) # 200019e8 <_binary_loader_binary_bin_start+0x18a0>
    2000314c:	03813083          	ld	x1,56(x2)
    20003150:	04010113          	addi	x2,x2,64
    20003154:	00008067          	jalr	x0,0(x1)
    20003158:	00053683          	ld	x13,0(x10)
    2000315c:	00853603          	ld	x12,8(x10)
    20003160:	00058513          	addi	x10,x11,0
    20003164:	00068593          	addi	x11,x13,0
    20003168:	fffff317          	auipc	x6,0xfffff
    2000316c:	e9830067          	jalr	x0,-360(x6) # 20002000 <_binary_loader_binary_bin_start+0x1eb8>
    20003170:	fc010113          	addi	x2,x2,-64
    20003174:	02a13823          	sd	x10,48(x2)
    20003178:	02b13c23          	sd	x11,56(x2)
    2000317c:	03010513          	addi	x10,x2,48
    20003180:	00a13823          	sd	x10,16(x2)
    20003184:	00100513          	addi	x10,x0,1
    20003188:	00a13c23          	sd	x10,24(x2)
    2000318c:	00013023          	sd	x0,0(x2)
    20003190:	00002517          	auipc	x10,0x2
    20003194:	11850513          	addi	x10,x10,280 # 200052a8 <_binary_loader_binary_bin_start+0x5160>
    20003198:	02a13023          	sd	x10,32(x2)
    2000319c:	02013423          	sd	x0,40(x2)
    200031a0:	00010513          	addi	x10,x2,0
    200031a4:	00060593          	addi	x11,x12,0
    200031a8:	00000097          	auipc	x1,0x0
    200031ac:	074080e7          	jalr	x1,116(x1) # 2000321c <_binary_loader_binary_bin_start+0x30d4>
    200031b0:	c0001073          	unimp
    200031b4:	fa010113          	addi	x2,x2,-96
    200031b8:	00a13023          	sd	x10,0(x2)
    200031bc:	00b13423          	sd	x11,8(x2)
    200031c0:	00810513          	addi	x10,x2,8
    200031c4:	04a13023          	sd	x10,64(x2)
    200031c8:	ffffe517          	auipc	x10,0xffffe
    200031cc:	43050513          	addi	x10,x10,1072 # 200015f8 <_binary_loader_binary_bin_start+0x14b0>
    200031d0:	04a13423          	sd	x10,72(x2)
    200031d4:	00010593          	addi	x11,x2,0
    200031d8:	04b13823          	sd	x11,80(x2)
    200031dc:	04a13c23          	sd	x10,88(x2)
    200031e0:	00001517          	auipc	x10,0x1
    200031e4:	57850513          	addi	x10,x10,1400 # 20004758 <_binary_loader_binary_bin_start+0x4610>
    200031e8:	02a13023          	sd	x10,32(x2)
    200031ec:	00200513          	addi	x10,x0,2
    200031f0:	02a13423          	sd	x10,40(x2)
    200031f4:	00013823          	sd	x0,16(x2)
    200031f8:	04010593          	addi	x11,x2,64
    200031fc:	02b13823          	sd	x11,48(x2)
    20003200:	02a13c23          	sd	x10,56(x2)
    20003204:	00002597          	auipc	x11,0x2
    20003208:	fcc58593          	addi	x11,x11,-52 # 200051d0 <_binary_loader_binary_bin_start+0x5088>
    2000320c:	01010513          	addi	x10,x2,16
    20003210:	00000097          	auipc	x1,0x0
    20003214:	00c080e7          	jalr	x1,12(x1) # 2000321c <_binary_loader_binary_bin_start+0x30d4>
    20003218:	c0001073          	unimp
    2000321c:	fd010113          	addi	x2,x2,-48
    20003220:	00002617          	auipc	x12,0x2
    20003224:	08860613          	addi	x12,x12,136 # 200052a8 <_binary_loader_binary_bin_start+0x5160>
    20003228:	00c13423          	sd	x12,8(x2)
    2000322c:	00001617          	auipc	x12,0x1
    20003230:	4d460613          	addi	x12,x12,1236 # 20004700 <_binary_loader_binary_bin_start+0x45b8>
    20003234:	00c13823          	sd	x12,16(x2)
    20003238:	00a13c23          	sd	x10,24(x2)
    2000323c:	02b13023          	sd	x11,32(x2)
    20003240:	00100513          	addi	x10,x0,1
    20003244:	02a10423          	sb	x10,40(x2)
    20003248:	00810513          	addi	x10,x2,8
    2000324c:	00000097          	auipc	x1,0x0
    20003250:	7b8080e7          	jalr	x1,1976(x1) # 20003a04 <_binary_loader_binary_bin_start+0x38bc>
    20003254:	c0001073          	unimp
    20003258:	f9010113          	addi	x2,x2,-112
    2000325c:	00001597          	auipc	x11,0x1
    20003260:	e2458593          	addi	x11,x11,-476 # 20004080 <_binary_loader_binary_bin_start+0x3f38>
    20003264:	00b13023          	sd	x11,0(x2)
    20003268:	02b00593          	addi	x11,x0,43
    2000326c:	00b13423          	sd	x11,8(x2)
    20003270:	00a13823          	sd	x10,16(x2)
    20003274:	00001517          	auipc	x10,0x1
    20003278:	e3c50513          	addi	x10,x10,-452 # 200040b0 <_binary_loader_binary_bin_start+0x3f68>
    2000327c:	00a13c23          	sd	x10,24(x2)
    20003280:	00010513          	addi	x10,x2,0
    20003284:	04a13823          	sd	x10,80(x2)
    20003288:	00000517          	auipc	x10,0x0
    2000328c:	ed050513          	addi	x10,x10,-304 # 20003158 <_binary_loader_binary_bin_start+0x3010>
    20003290:	04a13c23          	sd	x10,88(x2)
    20003294:	01010513          	addi	x10,x2,16
    20003298:	06a13023          	sd	x10,96(x2)
    2000329c:	fffff517          	auipc	x10,0xfffff
    200032a0:	30850513          	addi	x10,x10,776 # 200025a4 <_binary_loader_binary_bin_start+0x245c>
    200032a4:	06a13423          	sd	x10,104(x2)
    200032a8:	00001517          	auipc	x10,0x1
    200032ac:	4d850513          	addi	x10,x10,1240 # 20004780 <_binary_loader_binary_bin_start+0x4638>
    200032b0:	02a13823          	sd	x10,48(x2)
    200032b4:	00200513          	addi	x10,x0,2
    200032b8:	02a13c23          	sd	x10,56(x2)
    200032bc:	02013023          	sd	x0,32(x2)
    200032c0:	05010593          	addi	x11,x2,80
    200032c4:	04b13023          	sd	x11,64(x2)
    200032c8:	04a13423          	sd	x10,72(x2)
    200032cc:	00001597          	auipc	x11,0x1
    200032d0:	e1458593          	addi	x11,x11,-492 # 200040e0 <_binary_loader_binary_bin_start+0x3f98>
    200032d4:	02010513          	addi	x10,x2,32
    200032d8:	00000097          	auipc	x1,0x0
    200032dc:	f44080e7          	jalr	x1,-188(x1) # 2000321c <_binary_loader_binary_bin_start+0x30d4>
    200032e0:	c0001073          	unimp
    200032e4:	fe010113          	addi	x2,x2,-32
    200032e8:	00113c23          	sd	x1,24(x2)
    200032ec:	00813823          	sd	x8,16(x2)
    200032f0:	0085b503          	ld	x10,8(x11)
    200032f4:	0005b403          	ld	x8,0(x11)
    200032f8:	01853303          	ld	x6,24(x10)
    200032fc:	00001597          	auipc	x11,0x1
    20003300:	40158593          	addi	x11,x11,1025 # 200046fd <_binary_loader_binary_bin_start+0x45b5>
    20003304:	00300613          	addi	x12,x0,3
    20003308:	00040513          	addi	x10,x8,0
    2000330c:	00613423          	sd	x6,8(x2)
    20003310:	000300e7          	jalr	x1,0(x6)
    20003314:	00050c63          	beq	x10,x0,2000332c <_binary_loader_binary_bin_start+0x31e4>
    20003318:	00100513          	addi	x10,x0,1
    2000331c:	01813083          	ld	x1,24(x2)
    20003320:	01013403          	ld	x8,16(x2)
    20003324:	02010113          	addi	x2,x2,32
    20003328:	00008067          	jalr	x0,0(x1)
    2000332c:	00001597          	auipc	x11,0x1
    20003330:	12f58593          	addi	x11,x11,303 # 2000445b <_binary_loader_binary_bin_start+0x4313>
    20003334:	00700613          	addi	x12,x0,7
    20003338:	00040513          	addi	x10,x8,0
    2000333c:	00813303          	ld	x6,8(x2)
    20003340:	01813083          	ld	x1,24(x2)
    20003344:	01013403          	ld	x8,16(x2)
    20003348:	02010113          	addi	x2,x2,32
    2000334c:	00030067          	jalr	x0,0(x6)
    20003350:	0005061b          	addiw	x12,x10,0
    20003354:	02000593          	addi	x11,x0,32
    20003358:	00b67663          	bgeu	x12,x11,20003364 <_binary_loader_binary_bin_start+0x321c>
    2000335c:	00000513          	addi	x10,x0,0
    20003360:	00008067          	jalr	x0,0(x1)
    20003364:	07f00693          	addi	x13,x0,127
    20003368:	00100593          	addi	x11,x0,1
    2000336c:	00d67663          	bgeu	x12,x13,20003378 <_binary_loader_binary_bin_start+0x3230>
    20003370:	00058513          	addi	x10,x11,0
    20003374:	00008067          	jalr	x0,0(x1)
    20003378:	0105559b          	srliw	x11,x10,0x10
    2000337c:	02059863          	bne	x11,x0,200033ac <_binary_loader_binary_bin_start+0x3264>
    20003380:	00001597          	auipc	x11,0x1
    20003384:	4f858593          	addi	x11,x11,1272 # 20004878 <_binary_loader_binary_bin_start+0x4730>
    20003388:	00001697          	auipc	x13,0x1
    2000338c:	54068693          	addi	x13,x13,1344 # 200048c8 <_binary_loader_binary_bin_start+0x4780>
    20003390:	00001797          	auipc	x15,0x1
    20003394:	65778793          	addi	x15,x15,1623 # 200049e7 <_binary_loader_binary_bin_start+0x489f>
    20003398:	02800613          	addi	x12,x0,40
    2000339c:	11f00713          	addi	x14,x0,287
    200033a0:	12f00813          	addi	x16,x0,303
    200033a4:	00000317          	auipc	x6,0x0
    200033a8:	11030067          	jalr	x0,272(x6) # 200034b4 <_binary_loader_binary_bin_start+0x336c>
    200033ac:	0115559b          	srliw	x11,x10,0x11
    200033b0:	02059863          	bne	x11,x0,200033e0 <_binary_loader_binary_bin_start+0x3298>
    200033b4:	00001597          	auipc	x11,0x1
    200033b8:	76258593          	addi	x11,x11,1890 # 20004b16 <_binary_loader_binary_bin_start+0x49ce>
    200033bc:	00001697          	auipc	x13,0x1
    200033c0:	7b268693          	addi	x13,x13,1970 # 20004b6e <_binary_loader_binary_bin_start+0x4a26>
    200033c4:	00002797          	auipc	x15,0x2
    200033c8:	86e78793          	addi	x15,x15,-1938 # 20004c32 <_binary_loader_binary_bin_start+0x4aea>
    200033cc:	02c00613          	addi	x12,x0,44
    200033d0:	0c400713          	addi	x14,x0,196
    200033d4:	1c200813          	addi	x16,x0,450
    200033d8:	00000317          	auipc	x6,0x0
    200033dc:	0dc30067          	jalr	x0,220(x6) # 200034b4 <_binary_loader_binary_bin_start+0x336c>
    200033e0:	0055559b          	srliw	x11,x10,0x5
    200033e4:	00001637          	lui	x12,0x1
    200033e8:	5376069b          	addiw	x13,x12,1335
    200033ec:	00d5c5b3          	xor	x11,x11,x13
    200033f0:	0015b593          	sltiu	x11,x11,1
    200033f4:	fffd56b7          	lui	x13,0xfffd5
    200033f8:	8c66869b          	addiw	x13,x13,-1850
    200033fc:	00d506bb          	addw	x13,x10,x13
    20003400:	0066b693          	sltiu	x13,x13,6
    20003404:	00d5e5b3          	or	x11,x11,x13
    20003408:	0015569b          	srliw	x13,x10,0x1
    2000340c:	00016737          	lui	x14,0x16
    20003410:	c0f7071b          	addiw	x14,x14,-1009
    20003414:	00e6c6b3          	xor	x13,x13,x14
    20003418:	0016b693          	sltiu	x13,x13,1
    2000341c:	00b6e5b3          	or	x11,x13,x11
    20003420:	fffd36b7          	lui	x13,0xfffd3
    20003424:	15e6869b          	addiw	x13,x13,350
    20003428:	00d506bb          	addw	x13,x10,x13
    2000342c:	00e6b693          	sltiu	x13,x13,14
    20003430:	00b6e5b3          	or	x11,x13,x11
    20003434:	fffd16b7          	lui	x13,0xfffd1
    20003438:	41f6869b          	addiw	x13,x13,1055
    2000343c:	00d506bb          	addw	x13,x10,x13
    20003440:	c1f6061b          	addiw	x12,x12,-993
    20003444:	00c6b633          	sltu	x12,x13,x12
    20003448:	00b665b3          	or	x11,x12,x11
    2000344c:	fffd0637          	lui	x12,0xfffd0
    20003450:	5e26069b          	addiw	x13,x12,1506
    20003454:	00d506bb          	addw	x13,x10,x13
    20003458:	5e26b693          	sltiu	x13,x13,1506
    2000345c:	00b6e5b3          	or	x11,x13,x11
    20003460:	fffcf6b7          	lui	x13,0xfffcf
    20003464:	cb56869b          	addiw	x13,x13,-843
    20003468:	00d506bb          	addw	x13,x10,x13
    2000346c:	0056b693          	sltiu	x13,x13,5
    20003470:	00b6e5b3          	or	x11,x13,x11
    20003474:	fffce6b7          	lui	x13,0xfffce
    20003478:	c506869b          	addiw	x13,x13,-944
    2000347c:	00d506bb          	addw	x13,x10,x13
    20003480:	000ae737          	lui	x14,0xae
    20003484:	d507071b          	addiw	x14,x14,-688
    20003488:	00e6b6b3          	sltu	x13,x13,x14
    2000348c:	00b6e5b3          	or	x11,x13,x11
    20003490:	0015f693          	andi	x13,x11,1
    20003494:	00000593          	addi	x11,x0,0
    20003498:	ec069ce3          	bne	x13,x0,20003370 <_binary_loader_binary_bin_start+0x3228>
    2000349c:	ffef05b7          	lui	x11,0xffef0
    200034a0:	00b5053b          	addw	x10,x10,x11
    200034a4:	1f06059b          	addiw	x11,x12,496
    200034a8:	00b535b3          	sltu	x11,x10,x11
    200034ac:	00058513          	addi	x10,x11,0 # ffffffffffef0000 <__BSS_END+0xffffffff7fdefffe>
    200034b0:	00008067          	jalr	x0,0(x1)
    200034b4:	03051293          	slli	x5,x10,0x30
    200034b8:	06060c63          	beq	x12,x0,20003530 <_binary_loader_binary_bin_start+0x33e8>
    200034bc:	00050893          	addi	x17,x10,0
    200034c0:	00000513          	addi	x10,x0,0
    200034c4:	0382d313          	srli	x6,x5,0x38
    200034c8:	00161613          	slli	x12,x12,0x1
    200034cc:	00c58633          	add	x12,x11,x12
    200034d0:	0ff8f393          	andi	x7,x17,255
    200034d4:	01c0006f          	jal	x0,200034f0 <_binary_loader_binary_bin_start+0x33a8>
    200034d8:	01d33533          	sltu	x10,x6,x29
    200034dc:	00c5ce33          	xor	x28,x11,x12
    200034e0:	001e3e13          	sltiu	x28,x28,1
    200034e4:	01c56e33          	or	x28,x10,x28
    200034e8:	00088513          	addi	x10,x17,0
    200034ec:	040e1263          	bne	x28,x0,20003530 <_binary_loader_binary_bin_start+0x33e8>
    200034f0:	0005ce83          	lbu	x29,0(x11)
    200034f4:	0015ce03          	lbu	x28,1(x11)
    200034f8:	00258593          	addi	x11,x11,2
    200034fc:	01c508b3          	add	x17,x10,x28
    20003500:	fc6e9ce3          	bne	x29,x6,200034d8 <_binary_loader_binary_bin_start+0x3390>
    20003504:	0aa8ec63          	bltu	x17,x10,200035bc <_binary_loader_binary_bin_start+0x3474>
    20003508:	0d176663          	bltu	x14,x17,200035d4 <_binary_loader_binary_bin_start+0x348c>
    2000350c:	00a68533          	add	x10,x13,x10
    20003510:	000e0c63          	beq	x28,x0,20003528 <_binary_loader_binary_bin_start+0x33e0>
    20003514:	00054e83          	lbu	x29,0(x10)
    20003518:	00150513          	addi	x10,x10,1
    2000351c:	fffe0e13          	addi	x28,x28,-1
    20003520:	fe7e98e3          	bne	x29,x7,20003510 <_binary_loader_binary_bin_start+0x33c8>
    20003524:	06c0006f          	jal	x0,20003590 <_binary_loader_binary_bin_start+0x3448>
    20003528:	00088513          	addi	x10,x17,0
    2000352c:	fcc592e3          	bne	x11,x12,200034f0 <_binary_loader_binary_bin_start+0x33a8>
    20003530:	0302d593          	srli	x11,x5,0x30
    20003534:	01078633          	add	x12,x15,x16
    20003538:	00100513          	addi	x10,x0,1
    2000353c:	04c78663          	beq	x15,x12,20003588 <_binary_loader_binary_bin_start+0x3440>
    20003540:	00078703          	lb	x14,0(x15)
    20003544:	00178693          	addi	x13,x15,1
    20003548:	00074a63          	blt	x14,x0,2000355c <_binary_loader_binary_bin_start+0x3414>
    2000354c:	0ff77713          	andi	x14,x14,255
    20003550:	40e585bb          	subw	x11,x11,x14
    20003554:	0205d463          	bge	x11,x0,2000357c <_binary_loader_binary_bin_start+0x3434>
    20003558:	0300006f          	jal	x0,20003588 <_binary_loader_binary_bin_start+0x3440>
    2000355c:	04c68063          	beq	x13,x12,2000359c <_binary_loader_binary_bin_start+0x3454>
    20003560:	0017c803          	lbu	x16,1(x15)
    20003564:	00278693          	addi	x13,x15,2
    20003568:	07f77713          	andi	x14,x14,127
    2000356c:	00871713          	slli	x14,x14,0x8
    20003570:	01076733          	or	x14,x14,x16
    20003574:	40e585bb          	subw	x11,x11,x14
    20003578:	0005c863          	blt	x11,x0,20003588 <_binary_loader_binary_bin_start+0x3440>
    2000357c:	00154513          	xori	x10,x10,1
    20003580:	00068793          	addi	x15,x13,0 # fffffffffffce000 <__BSS_END+0xffffffff7fecdffe>
    20003584:	fac79ee3          	bne	x15,x12,20003540 <_binary_loader_binary_bin_start+0x33f8>
    20003588:	00157513          	andi	x10,x10,1
    2000358c:	00008067          	jalr	x0,0(x1)
    20003590:	00000513          	addi	x10,x0,0
    20003594:	00157513          	andi	x10,x10,1
    20003598:	00008067          	jalr	x0,0(x1)
    2000359c:	00001517          	auipc	x10,0x1
    200035a0:	20450513          	addi	x10,x10,516 # 200047a0 <_binary_loader_binary_bin_start+0x4658>
    200035a4:	00001617          	auipc	x12,0x1
    200035a8:	2bc60613          	addi	x12,x12,700 # 20004860 <_binary_loader_binary_bin_start+0x4718>
    200035ac:	02b00593          	addi	x11,x0,43
    200035b0:	00000097          	auipc	x1,0x0
    200035b4:	bc0080e7          	jalr	x1,-1088(x1) # 20003170 <_binary_loader_binary_bin_start+0x3028>
    200035b8:	c0001073          	unimp
    200035bc:	00001617          	auipc	x12,0x1
    200035c0:	28c60613          	addi	x12,x12,652 # 20004848 <_binary_loader_binary_bin_start+0x4700>
    200035c4:	00088593          	addi	x11,x17,0
    200035c8:	ffffe097          	auipc	x1,0xffffe
    200035cc:	3a8080e7          	jalr	x1,936(x1) # 20001970 <_binary_loader_binary_bin_start+0x1828>
    200035d0:	c0001073          	unimp
    200035d4:	00001617          	auipc	x12,0x1
    200035d8:	27460613          	addi	x12,x12,628 # 20004848 <_binary_loader_binary_bin_start+0x4700>
    200035dc:	00088513          	addi	x10,x17,0
    200035e0:	00070593          	addi	x11,x14,0 # ae000 <_binary_loader_binary_bin_size+0xa8d60>
    200035e4:	ffffe097          	auipc	x1,0xffffe
    200035e8:	31c080e7          	jalr	x1,796(x1) # 20001900 <_binary_loader_binary_bin_start+0x17b8>
    200035ec:	c0001073          	unimp
    200035f0:	00000693          	addi	x13,x0,0
    200035f4:	00b5159b          	slliw	x11,x10,0xb
    200035f8:	02100893          	addi	x17,x0,33
    200035fc:	00002617          	auipc	x12,0x2
    20003600:	87860613          	addi	x12,x12,-1928 # 20004e74 <_binary_loader_binary_bin_start+0x4d2c>
    20003604:	00100713          	addi	x14,x0,1
    20003608:	0ff00793          	addi	x15,x0,255
    2000360c:	02100813          	addi	x16,x0,33
    20003610:	0100006f          	jal	x0,20003620 <_binary_loader_binary_bin_start+0x34d8>
    20003614:	00088813          	addi	x16,x17,0
    20003618:	40d808b3          	sub	x17,x16,x13
    2000361c:	0506f663          	bgeu	x13,x16,20003668 <_binary_loader_binary_bin_start+0x3520>
    20003620:	0018d893          	srli	x17,x17,0x1
    20003624:	00d888b3          	add	x17,x17,x13
    20003628:	00289293          	slli	x5,x17,0x2
    2000362c:	005602b3          	add	x5,x12,x5
    20003630:	0002a283          	lw	x5,0(x5)
    20003634:	00b2931b          	slliw	x6,x5,0xb
    20003638:	fff00293          	addi	x5,x0,-1
    2000363c:	00b36663          	bltu	x6,x11,20003648 <_binary_loader_binary_bin_start+0x3500>
    20003640:	00b342b3          	xor	x5,x6,x11
    20003644:	005032b3          	sltu	x5,x0,x5
    20003648:	fce286e3          	beq	x5,x14,20003614 <_binary_loader_binary_bin_start+0x34cc>
    2000364c:	0ff2f693          	andi	x13,x5,255
    20003650:	00f69a63          	bne	x13,x15,20003664 <_binary_loader_binary_bin_start+0x351c>
    20003654:	00188693          	addi	x13,x17,1
    20003658:	40d808b3          	sub	x17,x16,x13
    2000365c:	fd06e2e3          	bltu	x13,x16,20003620 <_binary_loader_binary_bin_start+0x34d8>
    20003660:	0080006f          	jal	x0,20003668 <_binary_loader_binary_bin_start+0x3520>
    20003664:	00188693          	addi	x13,x17,1
    20003668:	02000713          	addi	x14,x0,32
    2000366c:	0ad76c63          	bltu	x14,x13,20003724 <_binary_loader_binary_bin_start+0x35dc>
    20003670:	00269593          	slli	x11,x13,0x2
    20003674:	00b607b3          	add	x15,x12,x11
    20003678:	0007e583          	lwu	x11,0(x15)
    2000367c:	0155d593          	srli	x11,x11,0x15
    20003680:	00e69863          	bne	x13,x14,20003690 <_binary_loader_binary_bin_start+0x3548>
    20003684:	2d700713          	addi	x14,x0,727
    20003688:	01f00693          	addi	x13,x0,31
    2000368c:	0140006f          	jal	x0,200036a0 <_binary_loader_binary_bin_start+0x3558>
    20003690:	0047e703          	lwu	x14,4(x15)
    20003694:	01575713          	srli	x14,x14,0x15
    20003698:	00068e63          	beq	x13,x0,200036b4 <_binary_loader_binary_bin_start+0x356c>
    2000369c:	fff68693          	addi	x13,x13,-1
    200036a0:	00269693          	slli	x13,x13,0x2
    200036a4:	00d60633          	add	x12,x12,x13
    200036a8:	00066603          	lwu	x12,0(x12)
    200036ac:	02b61613          	slli	x12,x12,0x2b
    200036b0:	02b65693          	srli	x13,x12,0x2b
    200036b4:	fff5c613          	xori	x12,x11,-1
    200036b8:	00c70633          	add	x12,x14,x12
    200036bc:	04060663          	beq	x12,x0,20003708 <_binary_loader_binary_bin_start+0x35c0>
    200036c0:	2d700793          	addi	x15,x0,727
    200036c4:	00058613          	addi	x12,x11,0
    200036c8:	00b7e463          	bltu	x15,x11,200036d0 <_binary_loader_binary_bin_start+0x3588>
    200036cc:	2d700613          	addi	x12,x0,727
    200036d0:	00000793          	addi	x15,x0,0
    200036d4:	40d506bb          	subw	x13,x10,x13
    200036d8:	fff70513          	addi	x10,x14,-1
    200036dc:	00002717          	auipc	x14,0x2
    200036e0:	81c70713          	addi	x14,x14,-2020 # 20004ef8 <_binary_loader_binary_bin_start+0x4db0>
    200036e4:	02b60663          	beq	x12,x11,20003710 <_binary_loader_binary_bin_start+0x35c8>
    200036e8:	00b70833          	add	x16,x14,x11
    200036ec:	00084803          	lbu	x16,0(x16)
    200036f0:	010787bb          	addw	x15,x15,x16
    200036f4:	00f6ea63          	bltu	x13,x15,20003708 <_binary_loader_binary_bin_start+0x35c0>
    200036f8:	00158593          	addi	x11,x11,1
    200036fc:	feb514e3          	bne	x10,x11,200036e4 <_binary_loader_binary_bin_start+0x359c>
    20003700:	00157513          	andi	x10,x10,1
    20003704:	00008067          	jalr	x0,0(x1)
    20003708:	0015f513          	andi	x10,x11,1
    2000370c:	00008067          	jalr	x0,0(x1)
    20003710:	2d700593          	addi	x11,x0,727
    20003714:	00060513          	addi	x10,x12,0
    20003718:	00000097          	auipc	x1,0x0
    2000371c:	a9c080e7          	jalr	x1,-1380(x1) # 200031b4 <_binary_loader_binary_bin_start+0x306c>
    20003720:	c0001073          	unimp
    20003724:	02100513          	addi	x10,x0,33
    20003728:	02100593          	addi	x11,x0,33
    2000372c:	00000097          	auipc	x1,0x0
    20003730:	a88080e7          	jalr	x1,-1400(x1) # 200031b4 <_binary_loader_binary_bin_start+0x306c>
    20003734:	c0001073          	unimp
    20003738:	fc010113          	addi	x2,x2,-64
    2000373c:	02113c23          	sd	x1,56(x2)
    20003740:	02813823          	sd	x8,48(x2)
    20003744:	00053503          	ld	x10,0(x10)
    20003748:	00058413          	addi	x8,x11,0
    2000374c:	00a13023          	sd	x10,0(x2)
    20003750:	01050593          	addi	x11,x10,16
    20003754:	00b13423          	sd	x11,8(x2)
    20003758:	01850593          	addi	x11,x10,24
    2000375c:	00b13823          	sd	x11,16(x2)
    20003760:	00843583          	ld	x11,8(x8)
    20003764:	02050513          	addi	x10,x10,32
    20003768:	00a13c23          	sd	x10,24(x2)
    2000376c:	00043503          	ld	x10,0(x8)
    20003770:	0185b683          	ld	x13,24(x11)
    20003774:	00001597          	auipc	x11,0x1
    20003778:	db458593          	addi	x11,x11,-588 # 20004528 <_binary_loader_binary_bin_start+0x43e0>
    2000377c:	00900613          	addi	x12,x0,9
    20003780:	000680e7          	jalr	x1,0(x13)
    20003784:	02813023          	sd	x8,32(x2)
    20003788:	02a10423          	sb	x10,40(x2)
    2000378c:	020104a3          	sb	x0,41(x2)
    20003790:	00001597          	auipc	x11,0x1
    20003794:	da158593          	addi	x11,x11,-607 # 20004531 <_binary_loader_binary_bin_start+0x43e9>
    20003798:	00000717          	auipc	x14,0x0
    2000379c:	b4c70713          	addi	x14,x14,-1204 # 200032e4 <_binary_loader_binary_bin_start+0x319c>
    200037a0:	02010513          	addi	x10,x2,32
    200037a4:	00700613          	addi	x12,x0,7
    200037a8:	00010693          	addi	x13,x2,0
    200037ac:	ffffd097          	auipc	x1,0xffffd
    200037b0:	5e0080e7          	jalr	x1,1504(x1) # 20000d8c <_binary_loader_binary_bin_start+0xc44>
    200037b4:	00001597          	auipc	x11,0x1
    200037b8:	d8458593          	addi	x11,x11,-636 # 20004538 <_binary_loader_binary_bin_start+0x43f0>
    200037bc:	ffffe717          	auipc	x14,0xffffe
    200037c0:	bd070713          	addi	x14,x14,-1072 # 2000138c <_binary_loader_binary_bin_start+0x1244>
    200037c4:	02010513          	addi	x10,x2,32
    200037c8:	00700613          	addi	x12,x0,7
    200037cc:	00810693          	addi	x13,x2,8
    200037d0:	ffffd097          	auipc	x1,0xffffd
    200037d4:	5bc080e7          	jalr	x1,1468(x1) # 20000d8c <_binary_loader_binary_bin_start+0xc44>
    200037d8:	00001597          	auipc	x11,0x1
    200037dc:	b8658593          	addi	x11,x11,-1146 # 2000435e <_binary_loader_binary_bin_start+0x4216>
    200037e0:	ffffe717          	auipc	x14,0xffffe
    200037e4:	a7870713          	addi	x14,x14,-1416 # 20001258 <_binary_loader_binary_bin_start+0x1110>
    200037e8:	02010513          	addi	x10,x2,32
    200037ec:	00800613          	addi	x12,x0,8
    200037f0:	01010693          	addi	x13,x2,16
    200037f4:	ffffd097          	auipc	x1,0xffffd
    200037f8:	598080e7          	jalr	x1,1432(x1) # 20000d8c <_binary_loader_binary_bin_start+0xc44>
    200037fc:	00001597          	auipc	x11,0x1
    20003800:	d4358593          	addi	x11,x11,-701 # 2000453f <_binary_loader_binary_bin_start+0x43f7>
    20003804:	00000717          	auipc	x14,0x0
    20003808:	8bc70713          	addi	x14,x14,-1860 # 200030c0 <_binary_loader_binary_bin_start+0x2f78>
    2000380c:	02010513          	addi	x10,x2,32
    20003810:	00a00613          	addi	x12,x0,10
    20003814:	01810693          	addi	x13,x2,24
    20003818:	ffffd097          	auipc	x1,0xffffd
    2000381c:	574080e7          	jalr	x1,1396(x1) # 20000d8c <_binary_loader_binary_bin_start+0xc44>
    20003820:	02914503          	lbu	x10,41(x2)
    20003824:	02814583          	lbu	x11,40(x2)
    20003828:	04050c63          	beq	x10,x0,20003880 <_binary_loader_binary_bin_start+0x3738>
    2000382c:	00100513          	addi	x10,x0,1
    20003830:	04059663          	bne	x11,x0,2000387c <_binary_loader_binary_bin_start+0x3734>
    20003834:	02013503          	ld	x10,32(x2)
    20003838:	03054583          	lbu	x11,48(x10)
    2000383c:	0045f593          	andi	x11,x11,4
    20003840:	02059063          	bne	x11,x0,20003860 <_binary_loader_binary_bin_start+0x3718>
    20003844:	00853583          	ld	x11,8(x10)
    20003848:	00053503          	ld	x10,0(x10)
    2000384c:	0185b683          	ld	x13,24(x11)
    20003850:	00001597          	auipc	x11,0x1
    20003854:	c1258593          	addi	x11,x11,-1006 # 20004462 <_binary_loader_binary_bin_start+0x431a>
    20003858:	00200613          	addi	x12,x0,2
    2000385c:	01c0006f          	jal	x0,20003878 <_binary_loader_binary_bin_start+0x3730>
    20003860:	00853583          	ld	x11,8(x10)
    20003864:	00053503          	ld	x10,0(x10)
    20003868:	0185b683          	ld	x13,24(x11)
    2000386c:	00001597          	auipc	x11,0x1
    20003870:	bee58593          	addi	x11,x11,-1042 # 2000445a <_binary_loader_binary_bin_start+0x4312>
    20003874:	00100613          	addi	x12,x0,1
    20003878:	000680e7          	jalr	x1,0(x13)
    2000387c:	00050593          	addi	x11,x10,0
    20003880:	00b03533          	sltu	x10,x0,x11
    20003884:	03813083          	ld	x1,56(x2)
    20003888:	03013403          	ld	x8,48(x2)
    2000388c:	04010113          	addi	x2,x2,64
    20003890:	00008067          	jalr	x0,0(x1)
    20003894:	f7010113          	addi	x2,x2,-144
    20003898:	08113423          	sd	x1,136(x2)
    2000389c:	08813023          	sd	x8,128(x2)
    200038a0:	06913c23          	sd	x9,120(x2)
    200038a4:	07213823          	sd	x18,112(x2)
    200038a8:	07313423          	sd	x19,104(x2)
    200038ac:	07413023          	sd	x20,96(x2)
    200038b0:	05513c23          	sd	x21,88(x2)
    200038b4:	05613823          	sd	x22,80(x2)
    200038b8:	00002417          	auipc	x8,0x2
    200038bc:	b5140413          	addi	x8,x8,-1199 # 20005409 <_binary_loader_binary_bin_end+0x21>
    200038c0:	00040023          	sb	x0,0(x8)
    200038c4:	00050a63          	beq	x10,x0,200038d8 <_binary_loader_binary_bin_start+0x3790>
    200038c8:	00044503          	lbu	x10,0(x8)
    200038cc:	00157513          	andi	x10,x10,1
    200038d0:	fe050ce3          	beq	x10,x0,200038c8 <_binary_loader_binary_bin_start+0x3780>
    200038d4:	1080006f          	jal	x0,200039dc <_binary_loader_binary_bin_start+0x3894>
    200038d8:	00002517          	auipc	x10,0x2
    200038dc:	9d850513          	addi	x10,x10,-1576 # 200052b0 <_binary_loader_binary_bin_start+0x5168>
    200038e0:	00a13c23          	sd	x10,24(x2)
    200038e4:	00100493          	addi	x9,x0,1
    200038e8:	02913023          	sd	x9,32(x2)
    200038ec:	00013423          	sd	x0,8(x2)
    200038f0:	00002917          	auipc	x18,0x2
    200038f4:	9b890913          	addi	x18,x18,-1608 # 200052a8 <_binary_loader_binary_bin_start+0x5160>
    200038f8:	03213423          	sd	x18,40(x2)
    200038fc:	02013823          	sd	x0,48(x2)
    20003900:	00810513          	addi	x10,x2,8
    20003904:	ffffd097          	auipc	x1,0xffffd
    20003908:	bc0080e7          	jalr	x1,-1088(x1) # 200004c4 <_binary_loader_binary_bin_start+0x37c>
    2000390c:	00002517          	auipc	x10,0x2
    20003910:	9cc50513          	addi	x10,x10,-1588 # 200052d8 <_binary_loader_binary_bin_start+0x5190>
    20003914:	00a13c23          	sd	x10,24(x2)
    20003918:	02913023          	sd	x9,32(x2)
    2000391c:	00013423          	sd	x0,8(x2)
    20003920:	03213423          	sd	x18,40(x2)
    20003924:	02013823          	sd	x0,48(x2)
    20003928:	00810513          	addi	x10,x2,8
    2000392c:	ffffd097          	auipc	x1,0xffffd
    20003930:	b98080e7          	jalr	x1,-1128(x1) # 200004c4 <_binary_loader_binary_bin_start+0x37c>
    20003934:	90010517          	auipc	x10,0x90010
    20003938:	81450513          	addi	x10,x10,-2028 # ffffffffb0013148 <__BSS_END+0xffffffff2ff13146>
    2000393c:	00053503          	ld	x10,0(x10)
    20003940:	04a13423          	sd	x10,72(x2)
    20003944:	04810913          	addi	x18,x2,72
    20003948:	03213c23          	sd	x18,56(x2)
    2000394c:	ffffd997          	auipc	x19,0xffffd
    20003950:	d2c98993          	addi	x19,x19,-724 # 20000678 <_binary_loader_binary_bin_start+0x530>
    20003954:	05313023          	sd	x19,64(x2)
    20003958:	00002517          	auipc	x10,0x2
    2000395c:	99850513          	addi	x10,x10,-1640 # 200052f0 <_binary_loader_binary_bin_start+0x51a8>
    20003960:	00a13c23          	sd	x10,24(x2)
    20003964:	00200a13          	addi	x20,x0,2
    20003968:	03413023          	sd	x20,32(x2)
    2000396c:	00002a97          	auipc	x21,0x2
    20003970:	9a4a8a93          	addi	x21,x21,-1628 # 20005310 <_binary_loader_binary_bin_start+0x51c8>
    20003974:	01513423          	sd	x21,8(x2)
    20003978:	00913823          	sd	x9,16(x2)
    2000397c:	03810b13          	addi	x22,x2,56
    20003980:	03613423          	sd	x22,40(x2)
    20003984:	02913823          	sd	x9,48(x2)
    20003988:	00810513          	addi	x10,x2,8
    2000398c:	ffffd097          	auipc	x1,0xffffd
    20003990:	b38080e7          	jalr	x1,-1224(x1) # 200004c4 <_binary_loader_binary_bin_start+0x37c>
    20003994:	ffffc517          	auipc	x10,0xffffc
    20003998:	7b450513          	addi	x10,x10,1972 # 20000148 <_binary_loader_binary_bin_start>
    2000399c:	00053503          	ld	x10,0(x10)
    200039a0:	04a13423          	sd	x10,72(x2)
    200039a4:	03213c23          	sd	x18,56(x2)
    200039a8:	05313023          	sd	x19,64(x2)
    200039ac:	00002517          	auipc	x10,0x2
    200039b0:	9a450513          	addi	x10,x10,-1628 # 20005350 <_binary_loader_binary_bin_start+0x5208>
    200039b4:	00a13c23          	sd	x10,24(x2)
    200039b8:	03413023          	sd	x20,32(x2)
    200039bc:	01513423          	sd	x21,8(x2)
    200039c0:	00913823          	sd	x9,16(x2)
    200039c4:	03613423          	sd	x22,40(x2)
    200039c8:	02913823          	sd	x9,48(x2)
    200039cc:	00810513          	addi	x10,x2,8
    200039d0:	ffffd097          	auipc	x1,0xffffd
    200039d4:	af4080e7          	jalr	x1,-1292(x1) # 200004c4 <_binary_loader_binary_bin_start+0x37c>
    200039d8:	00940023          	sb	x9,0(x8)
    200039dc:	08813083          	ld	x1,136(x2)
    200039e0:	08013403          	ld	x8,128(x2)
    200039e4:	07813483          	ld	x9,120(x2)
    200039e8:	07013903          	ld	x18,112(x2)
    200039ec:	06813983          	ld	x19,104(x2)
    200039f0:	06013a03          	ld	x20,96(x2)
    200039f4:	05813a83          	ld	x21,88(x2)
    200039f8:	05013b03          	ld	x22,80(x2)
    200039fc:	09010113          	addi	x2,x2,144
    20003a00:	00008067          	jalr	x0,0(x1)
    20003a04:	fa010113          	addi	x2,x2,-96
    20003a08:	04113c23          	sd	x1,88(x2)
    20003a0c:	04813823          	sd	x8,80(x2)
    20003a10:	00a13023          	sd	x10,0(x2)
    20003a14:	0330000f          	fence	rw,rw
    20003a18:	00002417          	auipc	x8,0x2
    20003a1c:	9d040413          	addi	x8,x8,-1584 # 200053e8 <_binary_loader_binary_bin_end>
    20003a20:	00043503          	ld	x10,0(x8)
    20003a24:	0230000f          	fence	r,rw
    20003a28:	04051263          	bne	x10,x0,20003a6c <_binary_loader_binary_bin_start+0x3924>
    20003a2c:	00100593          	addi	x11,x0,1
    20003a30:	1604352f          	lr.d.aqrl	x10,(x8)
    20003a34:	00051663          	bne	x10,x0,20003a40 <_binary_loader_binary_bin_start+0x38f8>
    20003a38:	1eb4362f          	sc.d.aqrl	x12,x11,(x8)
    20003a3c:	fe061ae3          	bne	x12,x0,20003a30 <_binary_loader_binary_bin_start+0x38e8>
    20003a40:	02051663          	bne	x10,x0,20003a6c <_binary_loader_binary_bin_start+0x3924>
    20003a44:	9000f517          	auipc	x10,0x9000f
    20003a48:	70450513          	addi	x10,x10,1796 # ffffffffb0013148 <__BSS_END+0xffffffff2ff13146>
    20003a4c:	00053503          	ld	x10,0(x10)
    20003a50:	00b43423          	sd	x11,8(x8)
    20003a54:	00040823          	sb	x0,16(x8)
    20003a58:	00a43c23          	sd	x10,24(x8)
    20003a5c:	0310000f          	fence	rw,w
    20003a60:	00200513          	addi	x10,x0,2
    20003a64:	00a43023          	sd	x10,0(x8)
    20003a68:	0280006f          	jal	x0,20003a90 <_binary_loader_binary_bin_start+0x3948>
    20003a6c:	00100593          	addi	x11,x0,1
    20003a70:	00b51c63          	bne	x10,x11,20003a88 <_binary_loader_binary_bin_start+0x3940>
    20003a74:	0100000f          	fence	w,unknown
    20003a78:	0330000f          	fence	rw,rw
    20003a7c:	00043503          	ld	x10,0(x8)
    20003a80:	0230000f          	fence	r,rw
    20003a84:	feb508e3          	beq	x10,x11,20003a74 <_binary_loader_binary_bin_start+0x392c>
    20003a88:	00200593          	addi	x11,x0,2
    20003a8c:	0cb51863          	bne	x10,x11,20003b5c <_binary_loader_binary_bin_start+0x3a14>
    20003a90:	01040693          	addi	x13,x8,16
    20003a94:	0036f513          	andi	x10,x13,3
    20003a98:	0035161b          	slliw	x12,x10,0x3
    20003a9c:	0ff00513          	addi	x10,x0,255
    20003aa0:	00c515bb          	sllw	x11,x10,x12
    20003aa4:	00100513          	addi	x10,x0,1
    20003aa8:	00c5163b          	sllw	x12,x10,x12
    20003aac:	02061613          	slli	x12,x12,0x20
    20003ab0:	02065613          	srli	x12,x12,0x20
    20003ab4:	ffc6f693          	andi	x13,x13,-4
    20003ab8:	1406a72f          	lr.w.aq	x14,(x13)
    20003abc:	00b777b3          	and	x15,x14,x11
    20003ac0:	00079c63          	bne	x15,x0,20003ad8 <_binary_loader_binary_bin_start+0x3990>
    20003ac4:	00c747b3          	xor	x15,x14,x12
    20003ac8:	00b7f7b3          	and	x15,x15,x11
    20003acc:	00f747b3          	xor	x15,x14,x15
    20003ad0:	18f6a7af          	sc.w	x15,x15,(x13)
    20003ad4:	fe0792e3          	bne	x15,x0,20003ab8 <_binary_loader_binary_bin_start+0x3970>
    20003ad8:	00b77733          	and	x14,x14,x11
    20003adc:	0007071b          	addiw	x14,x14,0
    20003ae0:	00071663          	bne	x14,x0,20003aec <_binary_loader_binary_bin_start+0x39a4>
    20003ae4:	0140006f          	jal	x0,20003af8 <_binary_loader_binary_bin_start+0x39b0>
    20003ae8:	0100000f          	fence	w,unknown
    20003aec:	01040703          	lb	x14,16(x8)
    20003af0:	fe071ce3          	bne	x14,x0,20003ae8 <_binary_loader_binary_bin_start+0x39a0>
    20003af4:	fc5ff06f          	jal	x0,20003ab8 <_binary_loader_binary_bin_start+0x3970>
    20003af8:	00010593          	addi	x11,x2,0
    20003afc:	00b13423          	sd	x11,8(x2)
    20003b00:	00000597          	auipc	x11,0x0
    20003b04:	c3858593          	addi	x11,x11,-968 # 20003738 <_binary_loader_binary_bin_start+0x35f0>
    20003b08:	00b13823          	sd	x11,16(x2)
    20003b0c:	01840593          	addi	x11,x8,24
    20003b10:	00b13c23          	sd	x11,24(x2)
    20003b14:	02013023          	sd	x0,32(x2)
    20003b18:	00002597          	auipc	x11,0x2
    20003b1c:	85858593          	addi	x11,x11,-1960 # 20005370 <_binary_loader_binary_bin_start+0x5228>
    20003b20:	02b13823          	sd	x11,48(x2)
    20003b24:	00200593          	addi	x11,x0,2
    20003b28:	02b13c23          	sd	x11,56(x2)
    20003b2c:	00810593          	addi	x11,x2,8
    20003b30:	04b13023          	sd	x11,64(x2)
    20003b34:	04a13423          	sd	x10,72(x2)
    20003b38:	00000597          	auipc	x11,0x0
    20003b3c:	51858593          	addi	x11,x11,1304 # 20004050 <_binary_loader_binary_bin_start+0x3f08>
    20003b40:	01810513          	addi	x10,x2,24
    20003b44:	02010613          	addi	x12,x2,32
    20003b48:	ffffe097          	auipc	x1,0xffffe
    20003b4c:	ea0080e7          	jalr	x1,-352(x1) # 200019e8 <_binary_loader_binary_bin_start+0x18a0>
    20003b50:	0310000f          	fence	rw,w
    20003b54:	00040823          	sb	x0,16(x8)
    20003b58:	0000006f          	jal	x0,20003b58 <_binary_loader_binary_bin_start+0x3a10>
    20003b5c:	02051263          	bne	x10,x0,20003b80 <_binary_loader_binary_bin_start+0x3a38>
    20003b60:	00001517          	auipc	x10,0x1
    20003b64:	70850513          	addi	x10,x10,1800 # 20005268 <_binary_loader_binary_bin_start+0x5120>
    20003b68:	00001617          	auipc	x12,0x1
    20003b6c:	72860613          	addi	x12,x12,1832 # 20005290 <_binary_loader_binary_bin_start+0x5148>
    20003b70:	02800593          	addi	x11,x0,40
    20003b74:	fffff097          	auipc	x1,0xfffff
    20003b78:	5fc080e7          	jalr	x1,1532(x1) # 20003170 <_binary_loader_binary_bin_start+0x3028>
    20003b7c:	c0001073          	unimp
    20003b80:	00001517          	auipc	x10,0x1
    20003b84:	66850513          	addi	x10,x10,1640 # 200051e8 <_binary_loader_binary_bin_start+0x50a0>
    20003b88:	00001617          	auipc	x12,0x1
    20003b8c:	6c860613          	addi	x12,x12,1736 # 20005250 <_binary_loader_binary_bin_start+0x5108>
    20003b90:	01100593          	addi	x11,x0,17
    20003b94:	fffff097          	auipc	x1,0xfffff
    20003b98:	5dc080e7          	jalr	x1,1500(x1) # 20003170 <_binary_loader_binary_bin_start+0x3028>
    20003b9c:	c0001073          	unimp
    20003ba0:	02051513          	slli	x10,x10,0x20
    20003ba4:	02055513          	srli	x10,x10,0x20
    20003ba8:	00008067          	jalr	x0,0(x1)
    20003bac:	02051513          	slli	x10,x10,0x20
    20003bb0:	02055513          	srli	x10,x10,0x20
    20003bb4:	00008067          	jalr	x0,0(x1)
    20003bb8:	00000317          	auipc	x6,0x0
    20003bbc:	06030067          	jalr	x0,96(x6) # 20003c18 <_binary_loader_binary_bin_start+0x3ad0>
    20003bc0:	ff010113          	addi	x2,x2,-16
    20003bc4:	00113423          	sd	x1,8(x2)
    20003bc8:	00000097          	auipc	x1,0x0
    20003bcc:	050080e7          	jalr	x1,80(x1) # 20003c18 <_binary_loader_binary_bin_start+0x3ad0>
    20003bd0:	00058513          	addi	x10,x11,0
    20003bd4:	00813083          	ld	x1,8(x2)
    20003bd8:	01010113          	addi	x2,x2,16
    20003bdc:	00008067          	jalr	x0,0(x1)
    20003be0:	02050a63          	beq	x10,x0,20003c14 <_binary_loader_binary_bin_start+0x3acc>
    20003be4:	00050613          	addi	x12,x10,0
    20003be8:	00000513          	addi	x10,x0,0
    20003bec:	00100693          	addi	x13,x0,1
    20003bf0:	0100006f          	jal	x0,20003c00 <_binary_loader_binary_bin_start+0x3ab8>
    20003bf4:	00175613          	srli	x12,x14,0x1
    20003bf8:	00159593          	slli	x11,x11,0x1
    20003bfc:	00e6fc63          	bgeu	x13,x14,20003c14 <_binary_loader_binary_bin_start+0x3acc>
    20003c00:	00060713          	addi	x14,x12,0
    20003c04:	00167613          	andi	x12,x12,1
    20003c08:	fe0606e3          	beq	x12,x0,20003bf4 <_binary_loader_binary_bin_start+0x3aac>
    20003c0c:	00b50533          	add	x10,x10,x11
    20003c10:	fe5ff06f          	jal	x0,20003bf4 <_binary_loader_binary_bin_start+0x3aac>
    20003c14:	00008067          	jalr	x0,0(x1)
    20003c18:	fc010113          	addi	x2,x2,-64
    20003c1c:	02113c23          	sd	x1,56(x2)
    20003c20:	02813823          	sd	x8,48(x2)
    20003c24:	02913423          	sd	x9,40(x2)
    20003c28:	03213023          	sd	x18,32(x2)
    20003c2c:	01313c23          	sd	x19,24(x2)
    20003c30:	01413823          	sd	x20,16(x2)
    20003c34:	01513423          	sd	x21,8(x2)
    20003c38:	00050413          	addi	x8,x10,0
    20003c3c:	00b57663          	bgeu	x10,x11,20003c48 <_binary_loader_binary_bin_start+0x3b00>
    20003c40:	00000493          	addi	x9,x0,0
    20003c44:	1280006f          	jal	x0,20003d6c <_binary_loader_binary_bin_start+0x3c24>
    20003c48:	02045613          	srli	x12,x8,0x20
    20003c4c:	00b63533          	sltu	x10,x12,x11
    20003c50:	00154513          	xori	x10,x10,1
    20003c54:	00040693          	addi	x13,x8,0
    20003c58:	00b66463          	bltu	x12,x11,20003c60 <_binary_loader_binary_bin_start+0x3b18>
    20003c5c:	00060693          	addi	x13,x12,0
    20003c60:	0106d613          	srli	x12,x13,0x10
    20003c64:	00551513          	slli	x10,x10,0x5
    20003c68:	02b66863          	bltu	x12,x11,20003c98 <_binary_loader_binary_bin_start+0x3b50>
    20003c6c:	01056513          	ori	x10,x10,16
    20003c70:	00865693          	srli	x13,x12,0x8
    20003c74:	02b6f863          	bgeu	x13,x11,20003ca4 <_binary_loader_binary_bin_start+0x3b5c>
    20003c78:	00060693          	addi	x13,x12,0
    20003c7c:	0046d613          	srli	x12,x13,0x4
    20003c80:	02b67863          	bgeu	x12,x11,20003cb0 <_binary_loader_binary_bin_start+0x3b68>
    20003c84:	00068613          	addi	x12,x13,0
    20003c88:	00265693          	srli	x13,x12,0x2
    20003c8c:	02b6f863          	bgeu	x13,x11,20003cbc <_binary_loader_binary_bin_start+0x3b74>
    20003c90:	00060693          	addi	x13,x12,0
    20003c94:	02c0006f          	jal	x0,20003cc0 <_binary_loader_binary_bin_start+0x3b78>
    20003c98:	00068613          	addi	x12,x13,0
    20003c9c:	00865693          	srli	x13,x12,0x8
    20003ca0:	fcb6ece3          	bltu	x13,x11,20003c78 <_binary_loader_binary_bin_start+0x3b30>
    20003ca4:	00856513          	ori	x10,x10,8
    20003ca8:	0046d613          	srli	x12,x13,0x4
    20003cac:	fcb66ce3          	bltu	x12,x11,20003c84 <_binary_loader_binary_bin_start+0x3b3c>
    20003cb0:	00456513          	ori	x10,x10,4
    20003cb4:	00265693          	srli	x13,x12,0x2
    20003cb8:	fcb6ece3          	bltu	x13,x11,20003c90 <_binary_loader_binary_bin_start+0x3b48>
    20003cbc:	00256513          	ori	x10,x10,2
    20003cc0:	0016d613          	srli	x12,x13,0x1
    20003cc4:	00b63633          	sltu	x12,x12,x11
    20003cc8:	00164613          	xori	x12,x12,1
    20003ccc:	00c56933          	or	x18,x10,x12
    20003cd0:	01259533          	sll	x10,x11,x18
    20003cd4:	40a40433          	sub	x8,x8,x10
    20003cd8:	00100613          	addi	x12,x0,1
    20003cdc:	012614b3          	sll	x9,x12,x18
    20003ce0:	08b46663          	bltu	x8,x11,20003d6c <_binary_loader_binary_bin_start+0x3c24>
    20003ce4:	00054663          	blt	x10,x0,20003cf0 <_binary_loader_binary_bin_start+0x3ba8>
    20003ce8:	00048613          	addi	x12,x9,0
    20003cec:	0300006f          	jal	x0,20003d1c <_binary_loader_binary_bin_start+0x3bd4>
    20003cf0:	00155513          	srli	x10,x10,0x1
    20003cf4:	fff90913          	addi	x18,x18,-1
    20003cf8:	00100613          	addi	x12,x0,1
    20003cfc:	40a406b3          	sub	x13,x8,x10
    20003d00:	01261633          	sll	x12,x12,x18
    20003d04:	0006d663          	bge	x13,x0,20003d10 <_binary_loader_binary_bin_start+0x3bc8>
    20003d08:	00040693          	addi	x13,x8,0
    20003d0c:	00c0006f          	jal	x0,20003d18 <_binary_loader_binary_bin_start+0x3bd0>
    20003d10:	00c4e4b3          	or	x9,x9,x12
    20003d14:	00068413          	addi	x8,x13,0
    20003d18:	04b6ea63          	bltu	x13,x11,20003d6c <_binary_loader_binary_bin_start+0x3c24>
    20003d1c:	fff60993          	addi	x19,x12,-1
    20003d20:	04090063          	beq	x18,x0,20003d60 <_binary_loader_binary_bin_start+0x3c18>
    20003d24:	fff50a13          	addi	x20,x10,-1
    20003d28:	00090a93          	addi	x21,x18,0
    20003d2c:	fffa8a93          	addi	x21,x21,-1
    20003d30:	00100513          	addi	x10,x0,1
    20003d34:	00000097          	auipc	x1,0x0
    20003d38:	e78080e7          	jalr	x1,-392(x1) # 20003bac <_binary_loader_binary_bin_start+0x3a64>
    20003d3c:	00a41533          	sll	x10,x8,x10
    20003d40:	41450433          	sub	x8,x10,x20
    20003d44:	03f00513          	addi	x10,x0,63
    20003d48:	00000097          	auipc	x1,0x0
    20003d4c:	e58080e7          	jalr	x1,-424(x1) # 20003ba0 <_binary_loader_binary_bin_start+0x3a58>
    20003d50:	40a45533          	sra	x10,x8,x10
    20003d54:	01457533          	and	x10,x10,x20
    20003d58:	00850433          	add	x8,x10,x8
    20003d5c:	fc0a98e3          	bne	x21,x0,20003d2c <_binary_loader_binary_bin_start+0x3be4>
    20003d60:	01347533          	and	x10,x8,x19
    20003d64:	009564b3          	or	x9,x10,x9
    20003d68:	01245433          	srl	x8,x8,x18
    20003d6c:	00048513          	addi	x10,x9,0
    20003d70:	00040593          	addi	x11,x8,0
    20003d74:	03813083          	ld	x1,56(x2)
    20003d78:	03013403          	ld	x8,48(x2)
    20003d7c:	02813483          	ld	x9,40(x2)
    20003d80:	02013903          	ld	x18,32(x2)
    20003d84:	01813983          	ld	x19,24(x2)
    20003d88:	01013a03          	ld	x20,16(x2)
    20003d8c:	00813a83          	ld	x21,8(x2)
    20003d90:	04010113          	addi	x2,x2,64
    20003d94:	00008067          	jalr	x0,0(x1)
    20003d98:	2724                	c.fld	f9,72(x14)
    20003d9a:	8000                	0x8000
    20003d9c:	0000                	c.unimp
    20003d9e:	0000                	c.unimp
    20003da0:	26d8                	c.fld	f14,136(x13)
    20003da2:	8000                	0x8000
    20003da4:	0000                	c.unimp
    20003da6:	0000                	c.unimp
    20003da8:	26d8                	c.fld	f14,136(x13)
    20003daa:	8000                	0x8000
    20003dac:	0000                	c.unimp
    20003dae:	0000                	c.unimp
    20003db0:	26d8                	c.fld	f14,136(x13)
    20003db2:	8000                	0x8000
    20003db4:	0000                	c.unimp
    20003db6:	0000                	c.unimp
    20003db8:	26d8                	c.fld	f14,136(x13)
    20003dba:	8000                	0x8000
    20003dbc:	0000                	c.unimp
    20003dbe:	0000                	c.unimp
    20003dc0:	26d8                	c.fld	f14,136(x13)
    20003dc2:	8000                	0x8000
    20003dc4:	0000                	c.unimp
    20003dc6:	0000                	c.unimp
    20003dc8:	26d8                	c.fld	f14,136(x13)
    20003dca:	8000                	0x8000
    20003dcc:	0000                	c.unimp
    20003dce:	0000                	c.unimp
    20003dd0:	26d8                	c.fld	f14,136(x13)
    20003dd2:	8000                	0x8000
    20003dd4:	0000                	c.unimp
    20003dd6:	0000                	c.unimp
    20003dd8:	26d8                	c.fld	f14,136(x13)
    20003dda:	8000                	0x8000
    20003ddc:	0000                	c.unimp
    20003dde:	0000                	c.unimp
    20003de0:	26c8                	c.fld	f10,136(x13)
    20003de2:	8000                	0x8000
    20003de4:	0000                	c.unimp
    20003de6:	0000                	c.unimp
    20003de8:	2708                	c.fld	f10,8(x14)
    20003dea:	8000                	0x8000
    20003dec:	0000                	c.unimp
    20003dee:	0000                	c.unimp
    20003df0:	26d8                	c.fld	f14,136(x13)
    20003df2:	8000                	0x8000
    20003df4:	0000                	c.unimp
    20003df6:	0000                	c.unimp
    20003df8:	26d8                	c.fld	f14,136(x13)
    20003dfa:	8000                	0x8000
    20003dfc:	0000                	c.unimp
    20003dfe:	0000                	c.unimp
    20003e00:	2710                	c.fld	f12,8(x14)
    20003e02:	8000                	0x8000
    20003e04:	0000                	c.unimp
    20003e06:	0000                	c.unimp
    20003e08:	26d8                	c.fld	f14,136(x13)
    20003e0a:	8000                	0x8000
    20003e0c:	0000                	c.unimp
    20003e0e:	0000                	c.unimp
    20003e10:	26d8                	c.fld	f14,136(x13)
    20003e12:	8000                	0x8000
    20003e14:	0000                	c.unimp
    20003e16:	0000                	c.unimp
    20003e18:	26d8                	c.fld	f14,136(x13)
    20003e1a:	8000                	0x8000
    20003e1c:	0000                	c.unimp
    20003e1e:	0000                	c.unimp
    20003e20:	26d8                	c.fld	f14,136(x13)
    20003e22:	8000                	0x8000
    20003e24:	0000                	c.unimp
    20003e26:	0000                	c.unimp
    20003e28:	26d8                	c.fld	f14,136(x13)
    20003e2a:	8000                	0x8000
    20003e2c:	0000                	c.unimp
    20003e2e:	0000                	c.unimp
    20003e30:	26d8                	c.fld	f14,136(x13)
    20003e32:	8000                	0x8000
    20003e34:	0000                	c.unimp
    20003e36:	0000                	c.unimp
    20003e38:	26d8                	c.fld	f14,136(x13)
    20003e3a:	8000                	0x8000
    20003e3c:	0000                	c.unimp
    20003e3e:	0000                	c.unimp
    20003e40:	26d8                	c.fld	f14,136(x13)
    20003e42:	8000                	0x8000
    20003e44:	0000                	c.unimp
    20003e46:	0000                	c.unimp
    20003e48:	26d8                	c.fld	f14,136(x13)
    20003e4a:	8000                	0x8000
    20003e4c:	0000                	c.unimp
    20003e4e:	0000                	c.unimp
    20003e50:	26d8                	c.fld	f14,136(x13)
    20003e52:	8000                	0x8000
    20003e54:	0000                	c.unimp
    20003e56:	0000                	c.unimp
    20003e58:	26d8                	c.fld	f14,136(x13)
    20003e5a:	8000                	0x8000
    20003e5c:	0000                	c.unimp
    20003e5e:	0000                	c.unimp
    20003e60:	26d8                	c.fld	f14,136(x13)
    20003e62:	8000                	0x8000
    20003e64:	0000                	c.unimp
    20003e66:	0000                	c.unimp
    20003e68:	26d8                	c.fld	f14,136(x13)
    20003e6a:	8000                	0x8000
    20003e6c:	0000                	c.unimp
    20003e6e:	0000                	c.unimp
    20003e70:	26d8                	c.fld	f14,136(x13)
    20003e72:	8000                	0x8000
    20003e74:	0000                	c.unimp
    20003e76:	0000                	c.unimp
    20003e78:	26d8                	c.fld	f14,136(x13)
    20003e7a:	8000                	0x8000
    20003e7c:	0000                	c.unimp
    20003e7e:	0000                	c.unimp
    20003e80:	26d8                	c.fld	f14,136(x13)
    20003e82:	8000                	0x8000
    20003e84:	0000                	c.unimp
    20003e86:	0000                	c.unimp
    20003e88:	26d8                	c.fld	f14,136(x13)
    20003e8a:	8000                	0x8000
    20003e8c:	0000                	c.unimp
    20003e8e:	0000                	c.unimp
    20003e90:	26d8                	c.fld	f14,136(x13)
    20003e92:	8000                	0x8000
    20003e94:	0000                	c.unimp
    20003e96:	0000                	c.unimp
    20003e98:	26d8                	c.fld	f14,136(x13)
    20003e9a:	8000                	0x8000
    20003e9c:	0000                	c.unimp
    20003e9e:	0000                	c.unimp
    20003ea0:	26d8                	c.fld	f14,136(x13)
    20003ea2:	8000                	0x8000
    20003ea4:	0000                	c.unimp
    20003ea6:	0000                	c.unimp
    20003ea8:	26d8                	c.fld	f14,136(x13)
    20003eaa:	8000                	0x8000
    20003eac:	0000                	c.unimp
    20003eae:	0000                	c.unimp
    20003eb0:	26d8                	c.fld	f14,136(x13)
    20003eb2:	8000                	0x8000
    20003eb4:	0000                	c.unimp
    20003eb6:	0000                	c.unimp
    20003eb8:	26d8                	c.fld	f14,136(x13)
    20003eba:	8000                	0x8000
    20003ebc:	0000                	c.unimp
    20003ebe:	0000                	c.unimp
    20003ec0:	26d8                	c.fld	f14,136(x13)
    20003ec2:	8000                	0x8000
    20003ec4:	0000                	c.unimp
    20003ec6:	0000                	c.unimp
    20003ec8:	26d8                	c.fld	f14,136(x13)
    20003eca:	8000                	0x8000
    20003ecc:	0000                	c.unimp
    20003ece:	0000                	c.unimp
    20003ed0:	2718                	c.fld	f14,8(x14)
    20003ed2:	8000                	0x8000
    20003ed4:	0000                	c.unimp
    20003ed6:	0000                	c.unimp
    20003ed8:	2820                	c.fld	f8,80(x8)
    20003eda:	8000                	0x8000
    20003edc:	0000                	c.unimp
    20003ede:	0000                	c.unimp
    20003ee0:	2758                	c.fld	f14,136(x14)
    20003ee2:	8000                	0x8000
    20003ee4:	0000                	c.unimp
    20003ee6:	0000                	c.unimp
    20003ee8:	27a0                	c.fld	f8,72(x15)
    20003eea:	8000                	0x8000
    20003eec:	0000                	c.unimp
    20003eee:	0000                	c.unimp
    20003ef0:	27fc                	c.fld	f15,200(x15)
    20003ef2:	8000                	0x8000
    20003ef4:	0000                	c.unimp
    20003ef6:	0000                	c.unimp
    20003ef8:	2808                	c.fld	f10,16(x8)
    20003efa:	8000                	0x8000
    20003efc:	0000                	c.unimp
    20003efe:	0000                	c.unimp
    20003f00:	2814                	c.fld	f13,16(x8)
    20003f02:	8000                	0x8000
    20003f04:	0000                	c.unimp
    20003f06:	0000                	c.unimp
    20003f08:	2bc8                	c.fld	f10,144(x15)
    20003f0a:	8000                	0x8000
    20003f0c:	0000                	c.unimp
    20003f0e:	0000                	c.unimp
    20003f10:	2b04                	c.fld	f9,16(x14)
    20003f12:	8000                	0x8000
    20003f14:	0000                	c.unimp
    20003f16:	0000                	c.unimp
    20003f18:	2b04                	c.fld	f9,16(x14)
    20003f1a:	8000                	0x8000
    20003f1c:	0000                	c.unimp
    20003f1e:	0000                	c.unimp
    20003f20:	2b04                	c.fld	f9,16(x14)
    20003f22:	8000                	0x8000
    20003f24:	0000                	c.unimp
    20003f26:	0000                	c.unimp
    20003f28:	2b04                	c.fld	f9,16(x14)
    20003f2a:	8000                	0x8000
    20003f2c:	0000                	c.unimp
    20003f2e:	0000                	c.unimp
    20003f30:	2b04                	c.fld	f9,16(x14)
    20003f32:	8000                	0x8000
    20003f34:	0000                	c.unimp
    20003f36:	0000                	c.unimp
    20003f38:	2b04                	c.fld	f9,16(x14)
    20003f3a:	8000                	0x8000
    20003f3c:	0000                	c.unimp
    20003f3e:	0000                	c.unimp
    20003f40:	2b04                	c.fld	f9,16(x14)
    20003f42:	8000                	0x8000
    20003f44:	0000                	c.unimp
    20003f46:	0000                	c.unimp
    20003f48:	2b04                	c.fld	f9,16(x14)
    20003f4a:	8000                	0x8000
    20003f4c:	0000                	c.unimp
    20003f4e:	0000                	c.unimp
    20003f50:	2a68                	c.fld	f10,208(x12)
    20003f52:	8000                	0x8000
    20003f54:	0000                	c.unimp
    20003f56:	0000                	c.unimp
    20003f58:	2bb8                	c.fld	f14,80(x15)
    20003f5a:	8000                	0x8000
    20003f5c:	0000                	c.unimp
    20003f5e:	0000                	c.unimp
    20003f60:	2b04                	c.fld	f9,16(x14)
    20003f62:	8000                	0x8000
    20003f64:	0000                	c.unimp
    20003f66:	0000                	c.unimp
    20003f68:	2b04                	c.fld	f9,16(x14)
    20003f6a:	8000                	0x8000
    20003f6c:	0000                	c.unimp
    20003f6e:	0000                	c.unimp
    20003f70:	2bc0                	c.fld	f8,144(x15)
    20003f72:	8000                	0x8000
    20003f74:	0000                	c.unimp
    20003f76:	0000                	c.unimp
    20003f78:	2b04                	c.fld	f9,16(x14)
    20003f7a:	8000                	0x8000
    20003f7c:	0000                	c.unimp
    20003f7e:	0000                	c.unimp
    20003f80:	2b04                	c.fld	f9,16(x14)
    20003f82:	8000                	0x8000
    20003f84:	0000                	c.unimp
    20003f86:	0000                	c.unimp
    20003f88:	2b04                	c.fld	f9,16(x14)
    20003f8a:	8000                	0x8000
    20003f8c:	0000                	c.unimp
    20003f8e:	0000                	c.unimp
    20003f90:	2b04                	c.fld	f9,16(x14)
    20003f92:	8000                	0x8000
    20003f94:	0000                	c.unimp
    20003f96:	0000                	c.unimp
    20003f98:	2b04                	c.fld	f9,16(x14)
    20003f9a:	8000                	0x8000
    20003f9c:	0000                	c.unimp
    20003f9e:	0000                	c.unimp
    20003fa0:	2b04                	c.fld	f9,16(x14)
    20003fa2:	8000                	0x8000
    20003fa4:	0000                	c.unimp
    20003fa6:	0000                	c.unimp
    20003fa8:	2b04                	c.fld	f9,16(x14)
    20003faa:	8000                	0x8000
    20003fac:	0000                	c.unimp
    20003fae:	0000                	c.unimp
    20003fb0:	2b04                	c.fld	f9,16(x14)
    20003fb2:	8000                	0x8000
    20003fb4:	0000                	c.unimp
    20003fb6:	0000                	c.unimp
    20003fb8:	2b04                	c.fld	f9,16(x14)
    20003fba:	8000                	0x8000
    20003fbc:	0000                	c.unimp
    20003fbe:	0000                	c.unimp
    20003fc0:	2b04                	c.fld	f9,16(x14)
    20003fc2:	8000                	0x8000
    20003fc4:	0000                	c.unimp
    20003fc6:	0000                	c.unimp
    20003fc8:	2b04                	c.fld	f9,16(x14)
    20003fca:	8000                	0x8000
    20003fcc:	0000                	c.unimp
    20003fce:	0000                	c.unimp
    20003fd0:	2b04                	c.fld	f9,16(x14)
    20003fd2:	8000                	0x8000
    20003fd4:	0000                	c.unimp
    20003fd6:	0000                	c.unimp
    20003fd8:	2b04                	c.fld	f9,16(x14)
    20003fda:	8000                	0x8000
    20003fdc:	0000                	c.unimp
    20003fde:	0000                	c.unimp
    20003fe0:	2b04                	c.fld	f9,16(x14)
    20003fe2:	8000                	0x8000
    20003fe4:	0000                	c.unimp
    20003fe6:	0000                	c.unimp
    20003fe8:	2b04                	c.fld	f9,16(x14)
    20003fea:	8000                	0x8000
    20003fec:	0000                	c.unimp
    20003fee:	0000                	c.unimp
    20003ff0:	2b04                	c.fld	f9,16(x14)
    20003ff2:	8000                	0x8000
    20003ff4:	0000                	c.unimp
    20003ff6:	0000                	c.unimp
    20003ff8:	2b04                	c.fld	f9,16(x14)
    20003ffa:	8000                	0x8000
    20003ffc:	0000                	c.unimp
    20003ffe:	0000                	c.unimp
    20004000:	2b04                	c.fld	f9,16(x14)
    20004002:	8000                	0x8000
    20004004:	0000                	c.unimp
    20004006:	0000                	c.unimp
    20004008:	2b04                	c.fld	f9,16(x14)
    2000400a:	8000                	0x8000
    2000400c:	0000                	c.unimp
    2000400e:	0000                	c.unimp
    20004010:	2b04                	c.fld	f9,16(x14)
    20004012:	8000                	0x8000
    20004014:	0000                	c.unimp
    20004016:	0000                	c.unimp
    20004018:	2af8                	c.fld	f14,208(x13)
    2000401a:	8000                	0x8000
    2000401c:	0000                	c.unimp
    2000401e:	0000                	c.unimp
    20004020:	2d10                	c.fld	f12,24(x10)
    20004022:	8000                	0x8000
    20004024:	0000                	c.unimp
    20004026:	0000                	c.unimp
    20004028:	2c3c                	c.fld	f15,88(x8)
    2000402a:	8000                	0x8000
    2000402c:	0000                	c.unimp
    2000402e:	0000                	c.unimp
    20004030:	2c8c                	c.fld	f11,24(x9)
    20004032:	8000                	0x8000
    20004034:	0000                	c.unimp
    20004036:	0000                	c.unimp
    20004038:	2cf8                	c.fld	f14,216(x9)
    2000403a:	8000                	0x8000
    2000403c:	0000                	c.unimp
    2000403e:	0000                	c.unimp
    20004040:	2cec                	c.fld	f11,216(x9)
    20004042:	8000                	0x8000
    20004044:	0000                	c.unimp
    20004046:	0000                	c.unimp
    20004048:	2d04                	c.fld	f9,24(x10)
    2000404a:	8000                	0x8000
    2000404c:	0000                	c.unimp
    2000404e:	0000                	c.unimp
    20004050:	00b0                	c.addi4spn	x12,x2,72
    20004052:	8000                	0x8000
    20004054:	0000                	c.unimp
    20004056:	0000                	c.unimp
    20004058:	0008                	0x8
    2000405a:	0000                	c.unimp
    2000405c:	0000                	c.unimp
    2000405e:	0000                	c.unimp
    20004060:	0008                	0x8
    20004062:	0000                	c.unimp
    20004064:	0000                	c.unimp
    20004066:	0000                	c.unimp
    20004068:	02b4                	c.addi4spn	x13,x2,328
    2000406a:	8000                	0x8000
    2000406c:	0000                	c.unimp
    2000406e:	0000                	c.unimp
    20004070:	00b4                	c.addi4spn	x13,x2,72
    20004072:	8000                	0x8000
    20004074:	0000                	c.unimp
    20004076:	0000                	c.unimp
    20004078:	0250                	c.addi4spn	x12,x2,260
    2000407a:	8000                	0x8000
    2000407c:	0000                	c.unimp
    2000407e:	0000                	c.unimp
    20004080:	6c6c6163          	bltu	x24,x6,20004742 <_binary_loader_binary_bin_start+0x45fa>
    20004084:	6465                	c.lui	x8,0x19
    20004086:	6020                	c.ld	x8,64(x8)
    20004088:	6552                	c.ldsp	x10,272(x2)
    2000408a:	746c7573          	csrrci	x10,0x746,24
    2000408e:	3a3a                	c.fldsp	f20,424(x2)
    20004090:	6e75                	c.lui	x28,0x1d
    20004092:	70617277          	0x70617277
    20004096:	2928                	c.fld	f10,80(x10)
    20004098:	2060                	c.fld	f8,192(x8)
    2000409a:	61206e6f          	jal	x28,2000a6ac <_binary_loader_binary_bin_end+0x52c4>
    2000409e:	206e                	c.fldsp	f0,216(x2)
    200040a0:	4560                	c.lw	x8,76(x10)
    200040a2:	7272                	c.ldsp	x4,312(x2)
    200040a4:	2060                	c.fld	f8,192(x8)
    200040a6:	6176                	c.ldsp	x2,344(x2)
    200040a8:	756c                	c.ld	x11,232(x10)
    200040aa:	0065                	c.addi	x0,25
    200040ac:	0000                	c.unimp
    200040ae:	0000                	c.unimp
    200040b0:	00b0                	c.addi4spn	x12,x2,72
    200040b2:	8000                	0x8000
	...
    200040c0:	0001                	c.addi	x0,0
    200040c2:	0000                	c.unimp
    200040c4:	0000                	c.unimp
    200040c6:	0000                	c.unimp
    200040c8:	28f4                	c.fld	f13,208(x9)
    200040ca:	8000                	0x8000
    200040cc:	0000                	c.unimp
    200040ce:	0000                	c.unimp
    200040d0:	2f637273          	csrrci	x4,0x2f6,6
    200040d4:	6175                	c.addi16sp	x2,368
    200040d6:	7472                	c.ldsp	x8,312(x2)
    200040d8:	722e                	c.ldsp	x4,232(x2)
    200040da:	00000073          	ecall
    200040de:	0000                	c.unimp
    200040e0:	3f88                	c.fld	f10,56(x15)
    200040e2:	8000                	0x8000
    200040e4:	0000                	c.unimp
    200040e6:	0000                	c.unimp
    200040e8:	0000000b          	0xb
    200040ec:	0000                	c.unimp
    200040ee:	0000                	c.unimp
    200040f0:	002e                	c.slli	x0,0xb
    200040f2:	0000                	c.unimp
    200040f4:	0005                	c.addi	x0,1
    200040f6:	0000                	c.unimp
    200040f8:	6d6f682f          	0x6d6f682f
    200040fc:	2f65                	c.addiw	x30,25
    200040fe:	676f6873          	csrrsi	x16,0x676,30
    20004102:	722e2f6f          	jal	x30,200e6824 <_binary_loader_binary_bin_end+0xe143c>
    20004106:	7375                	c.lui	x6,0xffffd
    20004108:	7574                	c.ld	x13,232(x10)
    2000410a:	2f70                	c.fld	f12,216(x14)
    2000410c:	6f74                	c.ld	x13,216(x14)
    2000410e:	68636c6f          	jal	x24,2003a794 <_binary_loader_binary_bin_end+0x353ac>
    20004112:	6961                	c.lui	x18,0x18
    20004114:	736e                	c.ldsp	x6,248(x2)
    20004116:	67696e2f          	0x67696e2f
    2000411a:	7468                	c.ld	x10,232(x8)
    2000411c:	796c                	c.ld	x11,240(x10)
    2000411e:	782d                	c.lui	x16,0xfffeb
    20004120:	3638                	c.fld	f14,104(x12)
    20004122:	365f 2d34 6e75      	0x6e752d34365f
    20004128:	776f6e6b          	0x776f6e6b
    2000412c:	2d6e                	c.fldsp	f26,216(x2)
    2000412e:	696c                	c.ld	x11,208(x10)
    20004130:	756e                	c.ldsp	x10,248(x2)
    20004132:	2d78                	c.fld	f14,216(x10)
    20004134:	2f756e67          	0x2f756e67
    20004138:	696c                	c.ld	x11,208(x10)
    2000413a:	2f62                	c.fldsp	f30,24(x2)
    2000413c:	7572                	c.ldsp	x10,312(x2)
    2000413e:	696c7473          	csrrci	x8,0x696,24
    20004142:	2f62                	c.fldsp	f30,24(x2)
    20004144:	2f637273          	csrrci	x4,0x2f6,6
    20004148:	7572                	c.ldsp	x10,312(x2)
    2000414a:	6c2f7473          	csrrci	x8,0x6c2,30
    2000414e:	6269                	c.lui	x4,0x1a
    20004150:	6172                	c.ldsp	x2,280(x2)
    20004152:	7972                	c.ldsp	x18,312(x2)
    20004154:	726f632f          	0x726f632f
    20004158:	2f65                	c.addiw	x30,25
    2000415a:	2f637273          	csrrci	x4,0x2f6,6
    2000415e:	6d66                	c.ldsp	x26,88(x2)
    20004160:	2f74                	c.fld	f13,216(x14)
    20004162:	756e                	c.ldsp	x10,248(x2)
    20004164:	2e6d                	c.addiw	x28,27
    20004166:	7372                	c.ldsp	x6,312(x2)
    20004168:	3fb0                	c.fld	f12,120(x15)
    2000416a:	8000                	0x8000
    2000416c:	0000                	c.unimp
    2000416e:	0000                	c.unimp
    20004170:	0070                	c.addi4spn	x12,x2,12
    20004172:	0000                	c.unimp
    20004174:	0000                	c.unimp
    20004176:	0000                	c.unimp
    20004178:	0065                	c.addi	x0,25
    2000417a:	0000                	c.unimp
    2000417c:	0014                	0x14
    2000417e:	0000                	c.unimp
    20004180:	7830                	c.ld	x12,112(x8)
    20004182:	3030                	c.fld	f12,96(x8)
    20004184:	3130                	c.fld	f12,96(x10)
    20004186:	3230                	c.fld	f12,96(x12)
    20004188:	3330                	c.fld	f12,96(x14)
    2000418a:	3430                	c.fld	f12,104(x8)
    2000418c:	3530                	c.fld	f12,104(x10)
    2000418e:	3630                	c.fld	f12,104(x12)
    20004190:	3730                	c.fld	f12,104(x14)
    20004192:	3830                	c.fld	f12,112(x8)
    20004194:	3930                	c.fld	f12,112(x10)
    20004196:	3031                	0x3031
    20004198:	3131                	c.addiw	x2,-20
    2000419a:	3231                	c.addiw	x4,-20
    2000419c:	3331                	c.addiw	x6,-20
    2000419e:	3431                	c.addiw	x8,-20
    200041a0:	3531                	c.addiw	x10,-20
    200041a2:	3631                	c.addiw	x12,-20
    200041a4:	3731                	c.addiw	x14,-20
    200041a6:	3831                	c.addiw	x16,-20
    200041a8:	3931                	c.addiw	x18,-20
    200041aa:	3032                	c.fldsp	f0,296(x2)
    200041ac:	3132                	c.fldsp	f2,296(x2)
    200041ae:	3232                	c.fldsp	f4,296(x2)
    200041b0:	3332                	c.fldsp	f6,296(x2)
    200041b2:	3432                	c.fldsp	f8,296(x2)
    200041b4:	3532                	c.fldsp	f10,296(x2)
    200041b6:	3632                	c.fldsp	f12,296(x2)
    200041b8:	3732                	c.fldsp	f14,296(x2)
    200041ba:	3832                	c.fldsp	f16,296(x2)
    200041bc:	3932                	c.fldsp	f18,296(x2)
    200041be:	31333033          	0x31333033
    200041c2:	33333233          	0x33333233
    200041c6:	35333433          	0x35333433
    200041ca:	37333633          	0x37333633
    200041ce:	39333833          	0x39333833
    200041d2:	3034                	c.fld	f13,96(x8)
    200041d4:	3134                	c.fld	f13,96(x10)
    200041d6:	3234                	c.fld	f13,96(x12)
    200041d8:	3334                	c.fld	f13,96(x14)
    200041da:	3434                	c.fld	f13,104(x8)
    200041dc:	3534                	c.fld	f13,104(x10)
    200041de:	3634                	c.fld	f13,104(x12)
    200041e0:	3734                	c.fld	f13,104(x14)
    200041e2:	3834                	c.fld	f13,112(x8)
    200041e4:	3934                	c.fld	f13,112(x10)
    200041e6:	3035                	0x3035
    200041e8:	3135                	c.addiw	x2,-19
    200041ea:	3235                	c.addiw	x4,-19
    200041ec:	3335                	c.addiw	x6,-19
    200041ee:	3435                	c.addiw	x8,-19
    200041f0:	3535                	c.addiw	x10,-19
    200041f2:	3635                	c.addiw	x12,-19
    200041f4:	3735                	c.addiw	x14,-19
    200041f6:	3835                	c.addiw	x16,-19
    200041f8:	3935                	c.addiw	x18,-19
    200041fa:	3036                	c.fldsp	f0,360(x2)
    200041fc:	3136                	c.fldsp	f2,360(x2)
    200041fe:	3236                	c.fldsp	f4,360(x2)
    20004200:	3336                	c.fldsp	f6,360(x2)
    20004202:	3436                	c.fldsp	f8,360(x2)
    20004204:	3536                	c.fldsp	f10,360(x2)
    20004206:	3636                	c.fldsp	f12,360(x2)
    20004208:	3736                	c.fldsp	f14,360(x2)
    2000420a:	3836                	c.fldsp	f16,360(x2)
    2000420c:	3936                	c.fldsp	f18,360(x2)
    2000420e:	31373037          	lui	x0,0x31373
    20004212:	33373237          	lui	x4,0x33373
    20004216:	35373437          	lui	x8,0x35373
    2000421a:	37373637          	lui	x12,0x37373
    2000421e:	39373837          	lui	x16,0x39373
    20004222:	3038                	c.fld	f14,96(x8)
    20004224:	3138                	c.fld	f14,96(x10)
    20004226:	3238                	c.fld	f14,96(x12)
    20004228:	3338                	c.fld	f14,96(x14)
    2000422a:	3438                	c.fld	f14,104(x8)
    2000422c:	3538                	c.fld	f14,104(x10)
    2000422e:	3638                	c.fld	f14,104(x12)
    20004230:	3738                	c.fld	f14,104(x14)
    20004232:	3838                	c.fld	f14,112(x8)
    20004234:	3938                	c.fld	f14,112(x10)
    20004236:	3039                	0x3039
    20004238:	3139                	c.addiw	x2,-18
    2000423a:	3239                	c.addiw	x4,-18
    2000423c:	3339                	c.addiw	x6,-18
    2000423e:	3439                	c.addiw	x8,-18
    20004240:	3539                	c.addiw	x10,-18
    20004242:	3639                	c.addiw	x12,-18
    20004244:	3739                	c.addiw	x14,-18
    20004246:	3839                	c.addiw	x16,-18
    20004248:	3939                	c.addiw	x18,-18
    2000424a:	2e2e2e5b          	0x2e2e2e5b
    2000424e:	625d                	c.lui	x4,0x17
    20004250:	7479                	c.lui	x8,0xffffe
    20004252:	2065                	0x2065
    20004254:	6e69                	c.lui	x28,0x1a
    20004256:	6564                	c.ld	x9,200(x10)
    20004258:	2078                	c.fld	f14,192(x8)
    2000425a:	6920                	c.ld	x8,80(x10)
    2000425c:	756f2073          	csrrs	x0,0x756,x30
    20004260:	2074                	c.fld	f13,192(x8)
    20004262:	6220666f          	jal	x12,2000a884 <_binary_loader_binary_bin_end+0x549c>
    20004266:	646e756f          	jal	x10,200eb8ac <_binary_loader_binary_bin_end+0xe64c4>
    2000426a:	666f2073          	csrrs	x0,0x666,x30
    2000426e:	6020                	c.ld	x8,64(x8)
    20004270:	80004107          	flq	f2,-2048(x0) # fffffffffffff800 <__BSS_END+0xffffffff7feff7fe>
    20004274:	0000                	c.unimp
    20004276:	0000                	c.unimp
    20004278:	0000000b          	0xb
    2000427c:	0000                	c.unimp
    2000427e:	0000                	c.unimp
    20004280:	4112                	c.lwsp	x2,4(x2)
    20004282:	8000                	0x8000
    20004284:	0000                	c.unimp
    20004286:	0000                	c.unimp
    20004288:	0016                	c.slli	x0,0x5
    2000428a:	0000                	c.unimp
    2000428c:	0000                	c.unimp
    2000428e:	0000                	c.unimp
    20004290:	4630                	c.lw	x12,72(x12)
    20004292:	8000                	0x8000
    20004294:	0000                	c.unimp
    20004296:	0000                	c.unimp
    20004298:	0001                	c.addi	x0,0
    2000429a:	0000                	c.unimp
    2000429c:	0000                	c.unimp
    2000429e:	0000                	c.unimp
    200042a0:	6562                	c.ldsp	x10,24(x2)
    200042a2:	206e6967          	0x206e6967
    200042a6:	3d3c                	c.fld	f15,120(x10)
    200042a8:	6520                	c.ld	x8,72(x10)
    200042aa:	646e                	c.ldsp	x8,216(x2)
    200042ac:	2820                	c.fld	f8,80(x8)
    200042ae:	2020                	c.fld	f8,64(x8)
    200042b0:	2020                	c.fld	f8,64(x8)
    200042b2:	656d6f53          	0x656d6f53
    200042b6:	3c20                	c.fld	f8,120(x8)
    200042b8:	203d                	0x203d
    200042ba:	7274                	c.ld	x13,224(x12)
    200042bc:	6575                	c.lui	x10,0x1d
    200042be:	6966                	c.ldsp	x18,88(x2)
    200042c0:	656c                	c.ld	x11,200(x10)
    200042c2:	696c                	c.ld	x11,208(x10)
    200042c4:	656e                	c.ldsp	x10,216(x2)
    200042c6:	6f4e                	c.ldsp	x30,208(x2)
    200042c8:	656e                	c.ldsp	x10,216(x2)
    200042ca:	2029                	0x2029
    200042cc:	6e656877          	0x6e656877
    200042d0:	7320                	c.ld	x8,96(x14)
    200042d2:	696c                	c.ld	x11,208(x10)
    200042d4:	676e6963          	bltu	x28,x22,20004946 <_binary_loader_binary_bin_start+0x47fe>
    200042d8:	6020                	c.ld	x8,64(x8)
    200042da:	6172                	c.ldsp	x2,280(x2)
    200042dc:	676e                	c.ldsp	x14,216(x2)
    200042de:	2065                	0x2065
    200042e0:	6e65                	c.lui	x28,0x19
    200042e2:	2064                	c.fld	f9,192(x8)
    200042e4:	6e69                	c.lui	x28,0x1a
    200042e6:	6564                	c.ld	x9,200(x10)
    200042e8:	2078                	c.fld	f14,192(x8)
    200042ea:	0000                	c.unimp
    200042ec:	0000                	c.unimp
    200042ee:	0000                	c.unimp
    200042f0:	4158                	c.lw	x14,4(x10)
    200042f2:	8000                	0x8000
    200042f4:	0000                	c.unimp
    200042f6:	0000                	c.unimp
    200042f8:	000e                	c.slli	x0,0x3
    200042fa:	0000                	c.unimp
    200042fc:	0000                	c.unimp
    200042fe:	0000                	c.unimp
    20004300:	416e                	c.lwsp	x2,216(x2)
    20004302:	8000                	0x8000
    20004304:	0000                	c.unimp
    20004306:	0000                	c.unimp
    20004308:	0004                	0x4
    2000430a:	0000                	c.unimp
    2000430c:	0000                	c.unimp
    2000430e:	0000                	c.unimp
    20004310:	4182                	c.lwsp	x3,0(x2)
    20004312:	8000                	0x8000
    20004314:	0000                	c.unimp
    20004316:	0000                	c.unimp
    20004318:	0010                	0x10
    2000431a:	0000                	c.unimp
    2000431c:	0000                	c.unimp
    2000431e:	0000                	c.unimp
    20004320:	4630                	c.lw	x12,72(x12)
    20004322:	8000                	0x8000
    20004324:	0000                	c.unimp
    20004326:	0000                	c.unimp
    20004328:	0001                	c.addi	x0,0
    2000432a:	0000                	c.unimp
    2000432c:	0000                	c.unimp
    2000432e:	0000                	c.unimp
    20004330:	6920                	c.ld	x8,80(x10)
    20004332:	6f6e2073          	csrrs	x0,0x6f6,x28
    20004336:	2074                	c.fld	f13,192(x8)
    20004338:	2061                	0x2061
    2000433a:	72616863          	bltu	x2,x6,20004a6a <_binary_loader_binary_bin_start+0x4922>
    2000433e:	6220                	c.ld	x8,64(x12)
    20004340:	646e756f          	jal	x10,200eb986 <_binary_loader_binary_bin_end+0xe659e>
    20004344:	7261                	c.lui	x4,0xffff8
    20004346:	3b79                	c.addiw	x22,-2
    20004348:	6920                	c.ld	x8,80(x10)
    2000434a:	2074                	c.fld	f13,192(x8)
    2000434c:	7369                	c.lui	x6,0xffffa
    2000434e:	6920                	c.ld	x8,80(x10)
    20004350:	736e                	c.ldsp	x6,248(x2)
    20004352:	6469                	c.lui	x8,0x1a
    20004354:	2065                	0x2065
    20004356:	2820                	c.fld	f8,80(x8)
    20004358:	7962                	c.ldsp	x18,56(x2)
    2000435a:	6574                	c.ld	x13,200(x10)
    2000435c:	6f6c2073          	csrrs	x0,0x6f6,x24
    20004360:	69746163          	bltu	x8,x23,200049e2 <_binary_loader_binary_bin_start+0x489a>
    20004364:	6f4c6e6f          	jal	x28,200caa58 <_binary_loader_binary_bin_end+0xc5670>
    20004368:	69746163          	bltu	x8,x23,200049ea <_binary_loader_binary_bin_start+0x48a2>
    2000436c:	20296e6f          	jal	x28,2009a56e <_binary_loader_binary_bin_end+0x95186>
    20004370:	6020666f          	jal	x12,2000a972 <_binary_loader_binary_bin_end+0x558a>
    20004374:	0000                	c.unimp
    20004376:	0000                	c.unimp
    20004378:	80004107          	flq	f2,-2048(x0) # fffffffffffff800 <__BSS_END+0xffffffff7feff7fe>
    2000437c:	0000                	c.unimp
    2000437e:	0000                	c.unimp
    20004380:	0000000b          	0xb
    20004384:	0000                	c.unimp
    20004386:	0000                	c.unimp
    20004388:	41e8                	c.lw	x10,68(x11)
    2000438a:	8000                	0x8000
    2000438c:	0000                	c.unimp
    2000438e:	0000                	c.unimp
    20004390:	0026                	c.slli	x0,0x9
    20004392:	0000                	c.unimp
    20004394:	0000                	c.unimp
    20004396:	0000                	c.unimp
    20004398:	420e                	c.lwsp	x4,192(x2)
    2000439a:	8000                	0x8000
    2000439c:	0000                	c.unimp
    2000439e:	0000                	c.unimp
    200043a0:	0008                	0x8
    200043a2:	0000                	c.unimp
    200043a4:	0000                	c.unimp
    200043a6:	0000                	c.unimp
    200043a8:	4226                	c.lwsp	x4,72(x2)
    200043aa:	8000                	0x8000
    200043ac:	0000                	c.unimp
    200043ae:	0000                	c.unimp
    200043b0:	0006                	c.slli	x0,0x1
    200043b2:	0000                	c.unimp
    200043b4:	0000                	c.unimp
    200043b6:	0000                	c.unimp
    200043b8:	4630                	c.lw	x12,72(x12)
    200043ba:	8000                	0x8000
    200043bc:	0000                	c.unimp
    200043be:	0000                	c.unimp
    200043c0:	0001                	c.addi	x0,0
    200043c2:	0000                	c.unimp
    200043c4:	0000                	c.unimp
    200043c6:	0000                	c.unimp
    200043c8:	6d6f682f          	0x6d6f682f
    200043cc:	2f65                	c.addiw	x30,25
    200043ce:	676f6873          	csrrsi	x16,0x676,30
    200043d2:	722e2f6f          	jal	x30,200e6af4 <_binary_loader_binary_bin_end+0xe170c>
    200043d6:	7375                	c.lui	x6,0xffffd
    200043d8:	7574                	c.ld	x13,232(x10)
    200043da:	2f70                	c.fld	f12,216(x14)
    200043dc:	6f74                	c.ld	x13,216(x14)
    200043de:	68636c6f          	jal	x24,2003aa64 <_binary_loader_binary_bin_end+0x3567c>
    200043e2:	6961                	c.lui	x18,0x18
    200043e4:	736e                	c.ldsp	x6,248(x2)
    200043e6:	67696e2f          	0x67696e2f
    200043ea:	7468                	c.ld	x10,232(x8)
    200043ec:	796c                	c.ld	x11,240(x10)
    200043ee:	782d                	c.lui	x16,0xfffeb
    200043f0:	3638                	c.fld	f14,104(x12)
    200043f2:	365f 2d34 6e75      	0x6e752d34365f
    200043f8:	776f6e6b          	0x776f6e6b
    200043fc:	2d6e                	c.fldsp	f26,216(x2)
    200043fe:	696c                	c.ld	x11,208(x10)
    20004400:	756e                	c.ldsp	x10,248(x2)
    20004402:	2d78                	c.fld	f14,216(x10)
    20004404:	2f756e67          	0x2f756e67
    20004408:	696c                	c.ld	x11,208(x10)
    2000440a:	2f62                	c.fldsp	f30,24(x2)
    2000440c:	7572                	c.ldsp	x10,312(x2)
    2000440e:	696c7473          	csrrci	x8,0x696,24
    20004412:	2f62                	c.fldsp	f30,24(x2)
    20004414:	2f637273          	csrrci	x4,0x2f6,6
    20004418:	7572                	c.ldsp	x10,312(x2)
    2000441a:	6c2f7473          	csrrci	x8,0x6c2,30
    2000441e:	6269                	c.lui	x4,0x1a
    20004420:	6172                	c.ldsp	x2,280(x2)
    20004422:	7972                	c.ldsp	x18,312(x2)
    20004424:	726f632f          	0x726f632f
    20004428:	2f65                	c.addiw	x30,25
    2000442a:	2f637273          	csrrci	x4,0x2f6,6
    2000442e:	2f727473          	csrrci	x8,0x2f7,4
    20004432:	6f6d                	c.lui	x30,0x1b
    20004434:	2e64                	c.fld	f9,216(x12)
    20004436:	7372                	c.ldsp	x6,312(x2)
    20004438:	4280                	c.lw	x8,0(x13)
    2000443a:	8000                	0x8000
    2000443c:	0000                	c.unimp
    2000443e:	0000                	c.unimp
    20004440:	0070                	c.addi4spn	x12,x2,12
    20004442:	0000                	c.unimp
    20004444:	0000                	c.unimp
    20004446:	0000                	c.unimp
    20004448:	00000107          	0x107
    2000444c:	001d                	c.addi	x0,7
    2000444e:	0000                	c.unimp
    20004450:	7b20                	c.ld	x8,112(x14)
    20004452:	2c0a                	c.fldsp	f24,128(x2)
    20004454:	2c0a                	c.fldsp	f24,128(x2)
    20004456:	2020                	c.fld	f8,64(x8)
    20004458:	207d207b          	0x207d207b
    2000445c:	2e2e207b          	0x2e2e207b
    20004460:	7d20                	c.ld	x8,120(x10)
    20004462:	7d20                	c.ld	x8,120(x10)
    20004464:	0a28                	c.addi4spn	x10,x2,280
    20004466:	2928                	c.fld	f10,80(x10)
    20004468:	00b0                	c.addi4spn	x12,x2,72
    2000446a:	8000                	0x8000
    2000446c:	0000                	c.unimp
    2000446e:	0000                	c.unimp
    20004470:	0008                	0x8
    20004472:	0000                	c.unimp
    20004474:	0000                	c.unimp
    20004476:	0000                	c.unimp
    20004478:	0008                	0x8
    2000447a:	0000                	c.unimp
    2000447c:	0000                	c.unimp
    2000447e:	0000                	c.unimp
    20004480:	0fb0                	c.addi4spn	x12,x2,984
    20004482:	8000                	0x8000
    20004484:	0000                	c.unimp
    20004486:	0000                	c.unimp
    20004488:	0fbc                	c.addi4spn	x15,x2,984
    2000448a:	8000                	0x8000
    2000448c:	0000                	c.unimp
    2000448e:	0000                	c.unimp
    20004490:	10ac                	c.addi4spn	x11,x2,104
    20004492:	8000                	0x8000
    20004494:	0000                	c.unimp
    20004496:	0000                	c.unimp
    20004498:	2f6c6f63          	bltu	x24,x22,20004796 <_binary_loader_binary_bin_start+0x464e>
    2000449c:	6f68                	c.ld	x10,216(x14)
    2000449e:	656d                	c.lui	x10,0x1b
    200044a0:	6f68732f          	0x6f68732f
    200044a4:	2e2f6f67          	0x2e2f6f67
    200044a8:	7572                	c.ldsp	x10,312(x2)
    200044aa:	70757473          	csrrci	x8,0x707,10
    200044ae:	6f6f742f          	0x6f6f742f
    200044b2:	636c                	c.ld	x11,192(x14)
    200044b4:	6168                	c.ld	x10,192(x10)
    200044b6:	6e69                	c.lui	x28,0x1a
    200044b8:	696e2f73          	csrrs	x30,0x696,x28
    200044bc:	6c746867          	0x6c746867
    200044c0:	2d79                	c.addiw	x26,30
    200044c2:	3878                	c.fld	f14,240(x8)
    200044c4:	5f36                	c.lwsp	x30,108(x2)
    200044c6:	3436                	c.fldsp	f8,360(x2)
    200044c8:	752d                	c.lui	x10,0xfffeb
    200044ca:	6b6e                	c.ldsp	x22,216(x2)
    200044cc:	6f6e                	c.ldsp	x30,216(x2)
    200044ce:	6c2d6e77          	0x6c2d6e77
    200044d2:	6e69                	c.lui	x28,0x1a
    200044d4:	7875                	c.lui	x16,0xffffd
    200044d6:	672d                	c.lui	x14,0xb
    200044d8:	756e                	c.ldsp	x10,248(x2)
    200044da:	62696c2f          	0x62696c2f
    200044de:	7375722f          	0x7375722f
    200044e2:	6c74                	c.ld	x13,216(x8)
    200044e4:	6269                	c.lui	x4,0x1a
    200044e6:	6372732f          	0x6372732f
    200044ea:	7375722f          	0x7375722f
    200044ee:	2f74                	c.fld	f13,216(x14)
    200044f0:	696c                	c.ld	x11,208(x10)
    200044f2:	7262                	c.ldsp	x4,56(x2)
    200044f4:	7261                	c.lui	x4,0xffff8
    200044f6:	2f79                	c.addiw	x30,30
    200044f8:	65726f63          	bltu	x4,x23,20004b56 <_binary_loader_binary_bin_start+0x4a0e>
    200044fc:	6372732f          	0x6372732f
    20004500:	696c732f          	0x696c732f
    20004504:	6d2f6563          	bltu	x30,x18,20004bce <_binary_loader_binary_bin_start+0x4a86>
    20004508:	6d65                	c.lui	x26,0x19
    2000450a:	2e726863          	bltu	x4,x7,200047fa <_binary_loader_binary_bin_start+0x46b2>
    2000450e:	7372                	c.ldsp	x6,312(x2)
    20004510:	80004353          	0x80004353
    20004514:	0000                	c.unimp
    20004516:	0000                	c.unimp
    20004518:	0075                	c.addi	x0,29
    2000451a:	0000                	c.unimp
    2000451c:	0000                	c.unimp
    2000451e:	0000                	c.unimp
    20004520:	0068                	c.addi4spn	x10,x2,12
    20004522:	0000                	c.unimp
    20004524:	00000027          	0x27
    20004528:	6150                	c.ld	x12,128(x10)
    2000452a:	696e                	c.ldsp	x18,216(x2)
    2000452c:	666e4963          	blt	x28,x6,20004b9e <_binary_loader_binary_bin_start+0x4a56>
    20004530:	7961706f          	jal	x0,2001bcc6 <_binary_loader_binary_bin_end+0x168de>
    20004534:	6f6c                	c.ld	x11,216(x14)
    20004536:	6461                	c.lui	x8,0x18
    20004538:	656d                	c.lui	x10,0x1b
    2000453a:	67617373          	csrrci	x6,0x676,2
    2000453e:	6365                	c.lui	x6,0x19
    20004540:	6e61                	c.lui	x28,0x18
    20004542:	755f 776e 6e69      	0x6e69776e755f
    20004548:	2e64                	c.fld	f9,216(x12)
    2000454a:	002e                	c.slli	x0,0xb
    2000454c:	0000                	c.unimp
    2000454e:	0000                	c.unimp
    20004550:	4401                	c.li	x8,0
    20004552:	8000                	0x8000
    20004554:	0000                	c.unimp
    20004556:	0000                	c.unimp
    20004558:	0002                	c.slli64	x0
    2000455a:	0000                	c.unimp
    2000455c:	0000                	c.unimp
    2000455e:	0000                	c.unimp
    20004560:	6172                	c.ldsp	x2,280(x2)
    20004562:	676e                	c.ldsp	x14,216(x2)
    20004564:	2065                	0x2065
    20004566:	72617473          	csrrci	x8,0x726,2
    2000456a:	2074                	c.fld	f13,192(x8)
    2000456c:	6e69                	c.lui	x28,0x1a
    2000456e:	6564                	c.ld	x9,200(x10)
    20004570:	2078                	c.fld	f14,192(x8)
    20004572:	6f20                	c.ld	x8,88(x14)
    20004574:	7475                	c.lui	x8,0xffffd
    20004576:	6f20                	c.ld	x8,88(x14)
    20004578:	2066                	c.fldsp	f0,88(x2)
    2000457a:	6172                	c.ldsp	x2,280(x2)
    2000457c:	676e                	c.ldsp	x14,216(x2)
    2000457e:	2065                	0x2065
    20004580:	6f66                	c.ldsp	x30,88(x2)
    20004582:	2072                	c.fldsp	f0,280(x2)
    20004584:	63696c73          	csrrsi	x24,0x636,18
    20004588:	2065                	0x2065
    2000458a:	6c20666f          	jal	x12,2000ac4c <_binary_loader_binary_bin_end+0x5864>
    2000458e:	6e65                	c.lui	x28,0x19
    20004590:	20687467          	0x20687467
    20004594:	0000                	c.unimp
    20004596:	0000                	c.unimp
    20004598:	4418                	c.lw	x14,8(x8)
    2000459a:	8000                	0x8000
    2000459c:	0000                	c.unimp
    2000459e:	0000                	c.unimp
    200045a0:	0012                	c.slli	x0,0x4
    200045a2:	0000                	c.unimp
    200045a4:	0000                	c.unimp
    200045a6:	0000                	c.unimp
    200045a8:	442a                	c.lwsp	x8,136(x2)
    200045aa:	8000                	0x8000
    200045ac:	0000                	c.unimp
    200045ae:	0000                	c.unimp
    200045b0:	0022                	c.slli	x0,0x8
    200045b2:	0000                	c.unimp
    200045b4:	0000                	c.unimp
    200045b6:	0000                	c.unimp
    200045b8:	4192                	c.lwsp	x3,4(x2)
    200045ba:	8000                	0x8000
    200045bc:	0000                	c.unimp
    200045be:	0000                	c.unimp
    200045c0:	0010                	0x10
    200045c2:	0000                	c.unimp
    200045c4:	0000                	c.unimp
    200045c6:	0000                	c.unimp
    200045c8:	442a                	c.lwsp	x8,136(x2)
    200045ca:	8000                	0x8000
    200045cc:	0000                	c.unimp
    200045ce:	0000                	c.unimp
    200045d0:	0022                	c.slli	x0,0x8
    200045d2:	0000                	c.unimp
    200045d4:	0000                	c.unimp
    200045d6:	0000                	c.unimp
    200045d8:	63696c73          	csrrsi	x24,0x636,18
    200045dc:	2065                	0x2065
    200045de:	6e69                	c.lui	x28,0x1a
    200045e0:	6564                	c.ld	x9,200(x10)
    200045e2:	2078                	c.fld	f14,192(x8)
    200045e4:	72617473          	csrrci	x8,0x726,2
    200045e8:	7374                	c.ld	x13,224(x14)
    200045ea:	6120                	c.ld	x8,64(x10)
    200045ec:	2074                	c.fld	f13,192(x8)
    200045ee:	6220                	c.ld	x8,64(x12)
    200045f0:	7475                	c.lui	x8,0xffffd
    200045f2:	6520                	c.ld	x8,72(x10)
    200045f4:	646e                	c.ldsp	x8,216(x2)
    200045f6:	74612073          	csrrs	x0,0x746,x2
    200045fa:	0020                	c.addi4spn	x8,x2,8
    200045fc:	0000                	c.unimp
    200045fe:	0000                	c.unimp
    20004600:	4490                	c.lw	x12,8(x9)
    20004602:	8000                	0x8000
    20004604:	0000                	c.unimp
    20004606:	0000                	c.unimp
    20004608:	0016                	c.slli	x0,0x5
    2000460a:	0000                	c.unimp
    2000460c:	0000                	c.unimp
    2000460e:	0000                	c.unimp
    20004610:	44a6                	c.lwsp	x9,72(x2)
    20004612:	8000                	0x8000
    20004614:	0000                	c.unimp
    20004616:	0000                	c.unimp
    20004618:	000d                	c.addi	x0,3
    2000461a:	0000                	c.unimp
    2000461c:	0000                	c.unimp
    2000461e:	0000                	c.unimp
    20004620:	00b0                	c.addi4spn	x12,x2,72
    20004622:	8000                	0x8000
    20004624:	0000                	c.unimp
    20004626:	0000                	c.unimp
    20004628:	0018                	0x18
    2000462a:	0000                	c.unimp
    2000462c:	0000                	c.unimp
    2000462e:	0000                	c.unimp
    20004630:	0008                	0x8
    20004632:	0000                	c.unimp
    20004634:	0000                	c.unimp
    20004636:	0000                	c.unimp
    20004638:	096c                	c.addi4spn	x11,x2,156
    2000463a:	8000                	0x8000
    2000463c:	0000                	c.unimp
    2000463e:	0000                	c.unimp
    20004640:	0e64                	c.addi4spn	x9,x2,796
    20004642:	8000                	0x8000
    20004644:	0000                	c.unimp
    20004646:	0000                	c.unimp
    20004648:	0f50                	c.addi4spn	x12,x2,916
    2000464a:	8000                	0x8000
    2000464c:	0000                	c.unimp
    2000464e:	0000                	c.unimp
    20004650:	6d6f682f          	0x6d6f682f
    20004654:	2f65                	c.addiw	x30,25
    20004656:	676f6873          	csrrsi	x16,0x676,30
    2000465a:	722e2f6f          	jal	x30,200e6d7c <_binary_loader_binary_bin_end+0xe1994>
    2000465e:	7375                	c.lui	x6,0xffffd
    20004660:	7574                	c.ld	x13,232(x10)
    20004662:	2f70                	c.fld	f12,216(x14)
    20004664:	6f74                	c.ld	x13,216(x14)
    20004666:	68636c6f          	jal	x24,2003acec <_binary_loader_binary_bin_end+0x35904>
    2000466a:	6961                	c.lui	x18,0x18
    2000466c:	736e                	c.ldsp	x6,248(x2)
    2000466e:	67696e2f          	0x67696e2f
    20004672:	7468                	c.ld	x10,232(x8)
    20004674:	796c                	c.ld	x11,240(x10)
    20004676:	782d                	c.lui	x16,0xfffeb
    20004678:	3638                	c.fld	f14,104(x12)
    2000467a:	365f 2d34 6e75      	0x6e752d34365f
    20004680:	776f6e6b          	0x776f6e6b
    20004684:	2d6e                	c.fldsp	f26,216(x2)
    20004686:	696c                	c.ld	x11,208(x10)
    20004688:	756e                	c.ldsp	x10,248(x2)
    2000468a:	2d78                	c.fld	f14,216(x10)
    2000468c:	2f756e67          	0x2f756e67
    20004690:	696c                	c.ld	x11,208(x10)
    20004692:	2f62                	c.fldsp	f30,24(x2)
    20004694:	7572                	c.ldsp	x10,312(x2)
    20004696:	696c7473          	csrrci	x8,0x696,24
    2000469a:	2f62                	c.fldsp	f30,24(x2)
    2000469c:	2f637273          	csrrci	x4,0x2f6,6
    200046a0:	7572                	c.ldsp	x10,312(x2)
    200046a2:	6c2f7473          	csrrci	x8,0x6c2,30
    200046a6:	6269                	c.lui	x4,0x1a
    200046a8:	6172                	c.ldsp	x2,280(x2)
    200046aa:	7972                	c.ldsp	x18,312(x2)
    200046ac:	726f632f          	0x726f632f
    200046b0:	2f65                	c.addiw	x30,25
    200046b2:	2f637273          	csrrci	x4,0x2f6,6
    200046b6:	6d66                	c.ldsp	x26,88(x2)
    200046b8:	2f74                	c.fld	f13,216(x14)
    200046ba:	6f6d                	c.lui	x30,0x1b
    200046bc:	2e64                	c.fld	f9,216(x12)
    200046be:	7372                	c.ldsp	x6,312(x2)
    200046c0:	6166                	c.ldsp	x2,88(x2)
    200046c2:	736c                	c.ld	x11,224(x14)
    200046c4:	0065                	c.addi	x0,25
    200046c6:	0000                	c.unimp
    200046c8:	4508                	c.lw	x10,8(x10)
    200046ca:	8000                	0x8000
    200046cc:	0000                	c.unimp
    200046ce:	0000                	c.unimp
    200046d0:	0070                	c.addi4spn	x12,x2,12
    200046d2:	0000                	c.unimp
    200046d4:	0000                	c.unimp
    200046d6:	0000                	c.unimp
    200046d8:	097a                	c.slli	x18,0x1e
    200046da:	0000                	c.unimp
    200046dc:	001e                	c.slli	x0,0x7
    200046de:	0000                	c.unimp
    200046e0:	4508                	c.lw	x10,8(x10)
    200046e2:	8000                	0x8000
    200046e4:	0000                	c.unimp
    200046e6:	0000                	c.unimp
    200046e8:	0070                	c.addi4spn	x12,x2,12
    200046ea:	0000                	c.unimp
    200046ec:	0000                	c.unimp
    200046ee:	0000                	c.unimp
    200046f0:	0981                	c.addi	x19,0
    200046f2:	0000                	c.unimp
    200046f4:	0016                	c.slli	x0,0x5
    200046f6:	0000                	c.unimp
    200046f8:	7245                	c.lui	x4,0xffff1
    200046fa:	6f72                	c.ldsp	x30,280(x2)
    200046fc:	4172                	c.lwsp	x2,28(x2)
    200046fe:	796e                	c.ldsp	x18,248(x2)
    20004700:	00b0                	c.addi4spn	x12,x2,72
    20004702:	8000                	0x8000
	...
    20004710:	0001                	c.addi	x0,0
    20004712:	0000                	c.unimp
    20004714:	0000                	c.unimp
    20004716:	0000                	c.unimp
    20004718:	12a4                	c.addi4spn	x9,x2,360
    2000471a:	8000                	0x8000
    2000471c:	0000                	c.unimp
    2000471e:	0000                	c.unimp
    20004720:	6e69                	c.lui	x28,0x1a
    20004722:	6564                	c.ld	x9,200(x10)
    20004724:	2078                	c.fld	f14,192(x8)
    20004726:	2074756f          	jal	x10,2004c12c <_binary_loader_binary_bin_end+0x46d44>
    2000472a:	6220666f          	jal	x12,2000ad4c <_binary_loader_binary_bin_end+0x5964>
    2000472e:	646e756f          	jal	x10,200ebd74 <_binary_loader_binary_bin_end+0xe698c>
    20004732:	74203a73          	csrrc	x20,0x742,x0
    20004736:	6568                	c.ld	x10,200(x10)
    20004738:	6c20                	c.ld	x8,88(x8)
    2000473a:	6e65                	c.lui	x28,0x19
    2000473c:	6920                	c.ld	x8,80(x10)
    2000473e:	62202073          	csrrs	x0,0x622,x0
    20004742:	7475                	c.lui	x8,0xffffd
    20004744:	7420                	c.ld	x8,104(x8)
    20004746:	6568                	c.ld	x10,200(x10)
    20004748:	6920                	c.ld	x8,80(x10)
    2000474a:	646e                	c.ldsp	x8,216(x2)
    2000474c:	7865                	c.lui	x16,0xffff9
    2000474e:	6920                	c.ld	x8,80(x10)
    20004750:	00002073          	csrrs	x0,ustatus,x0
    20004754:	0000                	c.unimp
    20004756:	0000                	c.unimp
    20004758:	45d8                	c.lw	x14,12(x11)
    2000475a:	8000                	0x8000
    2000475c:	0000                	c.unimp
    2000475e:	0000                	c.unimp
    20004760:	0020                	c.addi4spn	x8,x2,8
    20004762:	0000                	c.unimp
    20004764:	0000                	c.unimp
    20004766:	0000                	c.unimp
    20004768:	45f8                	c.lw	x14,76(x11)
    2000476a:	8000                	0x8000
    2000476c:	0000                	c.unimp
    2000476e:	0000                	c.unimp
    20004770:	0012                	c.slli	x0,0x4
    20004772:	0000                	c.unimp
    20004774:	0000                	c.unimp
    20004776:	0000                	c.unimp
    20004778:	3a60                	c.fld	f8,240(x12)
    2000477a:	0020                	c.addi4spn	x8,x2,8
    2000477c:	0000                	c.unimp
    2000477e:	0000                	c.unimp
    20004780:	5160                	c.lw	x8,100(x10)
    20004782:	8000                	0x8000
	...
    20004790:	4631                	c.li	x12,12
    20004792:	8000                	0x8000
    20004794:	0000                	c.unimp
    20004796:	0000                	c.unimp
    20004798:	0002                	c.slli64	x0
    2000479a:	0000                	c.unimp
    2000479c:	0000                	c.unimp
    2000479e:	0000                	c.unimp
    200047a0:	6c6c6163          	bltu	x24,x6,20004e62 <_binary_loader_binary_bin_start+0x4d1a>
    200047a4:	6465                	c.lui	x8,0x19
    200047a6:	6020                	c.ld	x8,64(x8)
    200047a8:	6974704f          	fnmadd.s	f0,f8,f23,f13
    200047ac:	3a3a6e6f          	jal	x28,200ab34e <_binary_loader_binary_bin_end+0xa5f66>
    200047b0:	6e75                	c.lui	x28,0x1d
    200047b2:	70617277          	0x70617277
    200047b6:	2928                	c.fld	f10,80(x10)
    200047b8:	2060                	c.fld	f8,192(x8)
    200047ba:	61206e6f          	jal	x28,2000adcc <_binary_loader_binary_bin_end+0x59e4>
    200047be:	6020                	c.ld	x8,64(x8)
    200047c0:	6f4e                	c.ldsp	x30,208(x2)
    200047c2:	656e                	c.ldsp	x10,216(x2)
    200047c4:	2060                	c.fld	f8,192(x8)
    200047c6:	6176                	c.ldsp	x2,344(x2)
    200047c8:	756c                	c.ld	x11,232(x10)
    200047ca:	2f65                	c.addiw	x30,25
    200047cc:	6f68                	c.ld	x10,216(x14)
    200047ce:	656d                	c.lui	x10,0x1b
    200047d0:	6f68732f          	0x6f68732f
    200047d4:	2e2f6f67          	0x2e2f6f67
    200047d8:	7572                	c.ldsp	x10,312(x2)
    200047da:	70757473          	csrrci	x8,0x707,10
    200047de:	6f6f742f          	0x6f6f742f
    200047e2:	636c                	c.ld	x11,192(x14)
    200047e4:	6168                	c.ld	x10,192(x10)
    200047e6:	6e69                	c.lui	x28,0x1a
    200047e8:	696e2f73          	csrrs	x30,0x696,x28
    200047ec:	6c746867          	0x6c746867
    200047f0:	2d79                	c.addiw	x26,30
    200047f2:	3878                	c.fld	f14,240(x8)
    200047f4:	5f36                	c.lwsp	x30,108(x2)
    200047f6:	3436                	c.fldsp	f8,360(x2)
    200047f8:	752d                	c.lui	x10,0xfffeb
    200047fa:	6b6e                	c.ldsp	x22,216(x2)
    200047fc:	6f6e                	c.ldsp	x30,216(x2)
    200047fe:	6c2d6e77          	0x6c2d6e77
    20004802:	6e69                	c.lui	x28,0x1a
    20004804:	7875                	c.lui	x16,0xffffd
    20004806:	672d                	c.lui	x14,0xb
    20004808:	756e                	c.ldsp	x10,248(x2)
    2000480a:	62696c2f          	0x62696c2f
    2000480e:	7375722f          	0x7375722f
    20004812:	6c74                	c.ld	x13,216(x8)
    20004814:	6269                	c.lui	x4,0x1a
    20004816:	6372732f          	0x6372732f
    2000481a:	7375722f          	0x7375722f
    2000481e:	2f74                	c.fld	f13,216(x14)
    20004820:	696c                	c.ld	x11,208(x10)
    20004822:	7262                	c.ldsp	x4,56(x2)
    20004824:	7261                	c.lui	x4,0xffff8
    20004826:	2f79                	c.addiw	x30,30
    20004828:	65726f63          	bltu	x4,x23,20004e86 <_binary_loader_binary_bin_start+0x4d3e>
    2000482c:	6372732f          	0x6372732f
    20004830:	696e752f          	0x696e752f
    20004834:	65646f63          	bltu	x8,x22,20004e92 <_binary_loader_binary_bin_start+0x4d4a>
    20004838:	6972702f          	0x6972702f
    2000483c:	746e                	c.ldsp	x8,248(x2)
    2000483e:	6261                	c.lui	x4,0x18
    20004840:	656c                	c.ld	x11,200(x10)
    20004842:	722e                	c.ldsp	x4,232(x2)
    20004844:	00000073          	ecall
    20004848:	80004683          	lbu	x13,-2048(x0) # fffffffffffff800 <__BSS_END+0xffffffff7feff7fe>
    2000484c:	0000                	c.unimp
    2000484e:	0000                	c.unimp
    20004850:	007a                	c.slli	x0,0x1e
    20004852:	0000                	c.unimp
    20004854:	0000                	c.unimp
    20004856:	0000                	c.unimp
    20004858:	000a                	c.slli	x0,0x2
    2000485a:	0000                	c.unimp
    2000485c:	001c                	0x1c
    2000485e:	0000                	c.unimp
    20004860:	80004683          	lbu	x13,-2048(x0) # fffffffffffff800 <__BSS_END+0xffffffff7feff7fe>
    20004864:	0000                	c.unimp
    20004866:	0000                	c.unimp
    20004868:	007a                	c.slli	x0,0x1e
    2000486a:	0000                	c.unimp
    2000486c:	0000                	c.unimp
    2000486e:	0000                	c.unimp
    20004870:	001a                	c.slli	x0,0x6
    20004872:	0000                	c.unimp
    20004874:	0028                	c.addi4spn	x10,x2,8
    20004876:	0000                	c.unimp
    20004878:	0100                	c.addi4spn	x8,x2,128
    2000487a:	06050503          	lb	x10,96(x10) # fffffffffffeb060 <__BSS_END+0xffffffff7feeb05e>
    2000487e:	0206                	c.slli	x4,0x1
    20004880:	07080607          	0x7080607
    20004884:	1109                	c.addi	x2,-30
    20004886:	1c0a                	c.slli	x24,0x22
    20004888:	1a0c190b          	0x1a0c190b
    2000488c:	100d                	c.addi	x0,-29
    2000488e:	0c0e                	c.slli	x24,0x3
    20004890:	0310040f          	0x310040f
    20004894:	1212                	c.slli	x4,0x24
    20004896:	01160913          	addi	x18,x12,17 # 37373011 <_binary_loader_binary_bin_end+0x1736dc29>
    2000489a:	01180417          	auipc	x8,0x1180
    2000489e:	0319                	c.addi	x6,6
    200048a0:	071a                	c.slli	x14,0x6
    200048a2:	021c011b          	addiw	x2,x24,33
    200048a6:	161f 0320 032b      	0x32b0320161f
    200048ac:	0b2d                	c.addi	x22,11
    200048ae:	012e                	c.slli	x2,0xb
    200048b0:	0330                	c.addi4spn	x12,x2,392
    200048b2:	0231                	c.addi	x4,12
    200048b4:	0132                	c.slli	x2,0xc
    200048b6:	02a902a7          	0x2a902a7
    200048ba:	04aa                	c.slli	x9,0xa
    200048bc:	02fa08ab          	0x2fa08ab
    200048c0:	02fd05fb          	0x2fd05fb
    200048c4:	03fe                	c.slli	x7,0x1f
    200048c6:	09ff                	0x9ff
    200048c8:	78ad                	c.lui	x17,0xfffeb
    200048ca:	8b79                	c.andi	x14,30
    200048cc:	a28d                	c.j	20004a2e <_binary_loader_binary_bin_start+0x48e6>
    200048ce:	5730                	c.lw	x12,104(x14)
    200048d0:	8b58                	0x8b58
    200048d2:	908c                	0x908c
    200048d4:	dd1c                	c.sw	x15,56(x10)
    200048d6:	0f0e                	c.slli	x30,0x3
    200048d8:	fcfb4c4b          	0xfcfb4c4b
    200048dc:	2f2e                	c.fldsp	f30,200(x2)
    200048de:	5f5d5c3f 8e8d84e2 	0x8e8d84e25f5d5c3f
    200048e6:	9291                	c.srli	x13,0x24
    200048e8:	b1a9                	c.j	20004532 <_binary_loader_binary_bin_start+0x43ea>
    200048ea:	bbba                	c.fsdsp	f14,496(x2)
    200048ec:	c6c5                	c.beqz	x13,20004994 <_binary_loader_binary_bin_start+0x484c>
    200048ee:	cac9                	c.beqz	x13,20004980 <_binary_loader_binary_bin_start+0x4838>
    200048f0:	e4de                	c.sdsp	x23,72(x2)
    200048f2:	ffe5                	c.bnez	x15,200048ea <_binary_loader_binary_bin_start+0x47a2>
    200048f4:	0400                	c.addi4spn	x8,x2,512
    200048f6:	1211                	c.addi	x4,-28
    200048f8:	3129                	c.addiw	x2,-22
    200048fa:	3734                	c.fld	f13,104(x14)
    200048fc:	3b3a                	c.fldsp	f22,424(x2)
    200048fe:	493d                	c.li	x18,15
    20004900:	5d4a                	c.lwsp	x26,176(x2)
    20004902:	8e84                	0x8e84
    20004904:	a992                	c.fsdsp	f4,208(x2)
    20004906:	b4b1                	c.j	20004352 <_binary_loader_binary_bin_start+0x420a>
    20004908:	bbba                	c.fsdsp	f14,496(x2)
    2000490a:	cac6                	c.swsp	x17,84(x2)
    2000490c:	cfce                	c.swsp	x19,220(x2)
    2000490e:	e5e4                	c.sd	x9,200(x11)
    20004910:	0400                	c.addi4spn	x8,x2,512
    20004912:	0e0d                	c.addi	x28,3
    20004914:	1211                	c.addi	x4,-28
    20004916:	3129                	c.addiw	x2,-22
    20004918:	3a34                	c.fld	f13,112(x12)
    2000491a:	4946453b          	0x4946453b
    2000491e:	5e4a                	c.lwsp	x28,176(x2)
    20004920:	6564                	c.ld	x9,200(x10)
    20004922:	9184                	0x9184
    20004924:	cec99d9b          	0xcec99d9b
    20004928:	29110dcf          	fnmadd.s	f27,f2,f17,f5,rne
    2000492c:	3b3a                	c.fldsp	f22,424(x2)
    2000492e:	4945                	c.li	x18,17
    20004930:	5e5c5b57          	0x5e5c5b57
    20004934:	645f 8d65 a991      	0xa9918d65645f
    2000493a:	bab4                	c.fsd	f13,112(x13)
    2000493c:	dfc9c5bb          	0xdfc9c5bb
    20004940:	e5e4                	c.sd	x9,200(x11)
    20004942:	0df0                	c.addi4spn	x12,x2,732
    20004944:	4511                	c.li	x10,4
    20004946:	6449                	c.lui	x8,0x12
    20004948:	8065                	c.srli	x8,0x19
    2000494a:	b284                	c.fsd	f9,32(x13)
    2000494c:	bebc                	c.fsd	f15,120(x13)
    2000494e:	f0d7d5bf 8b8583f1 	0x8b8583f1f0d7d5bf
    20004956:	a6a4                	c.fsd	f9,72(x13)
    20004958:	bfbe                	c.fsdsp	f15,504(x2)
    2000495a:	c7c5                	c.beqz	x15,20004a02 <_binary_loader_binary_bin_start+0x48ba>
    2000495c:	48dbdacf          	fnmadd.s	f21,f23,f13,f9,unknown
    20004960:	bd98                	c.fsd	f14,56(x11)
    20004962:	c6cd                	c.beqz	x13,20004a0c <_binary_loader_binary_bin_start+0x48c4>
    20004964:	cfce                	c.swsp	x19,220(x2)
    20004966:	4e49                	c.li	x28,18
    20004968:	5e59574f          	fnmadd.q	f14,f18,f5,f11,unknown
    2000496c:	895f 8f8e b6b1      	0xb6b18f8e895f
    20004972:	c6c1bfb7          	lui	x31,0xc6c1b
    20004976:	1611d7c7          	fmsub.q	f15,f3,f1,f2,unknown
    2000497a:	f65c5b17          	auipc	x22,0xf65c5
    2000497e:	80fffef7          	0x80fffef7
    20004982:	716d                	c.addi16sp	x2,-272
    20004984:	dfde                	c.swsp	x23,252(x2)
    20004986:	1f0e                	c.slli	x30,0x23
    20004988:	6f6e                	c.ldsp	x30,216(x2)
    2000498a:	1d1c                	c.addi4spn	x15,x2,688
    2000498c:	7d5f ae7e 7faf      	0x7fafae7e7d5f
    20004992:	1716bcbb          	0x1716bcbb
    20004996:	1f1e                	c.slli	x30,0x27
    20004998:	4746                	c.lwsp	x14,80(x2)
    2000499a:	4f4e                	c.lwsp	x30,208(x2)
    2000499c:	5a58                	c.lw	x14,52(x12)
    2000499e:	5e5c                	c.lw	x15,60(x12)
    200049a0:	7f7e                	c.ldsp	x30,504(x2)
    200049a2:	c5b5                	c.beqz	x11,20004a0e <_binary_loader_binary_bin_start+0x48c6>
    200049a4:	d5d4                	c.sw	x13,44(x11)
    200049a6:	f0dc                	c.sd	x15,160(x9)
    200049a8:	f5f1                	c.bnez	x11,20004974 <_binary_loader_binary_bin_start+0x482c>
    200049aa:	7372                	c.ldsp	x6,312(x2)
    200049ac:	9675748f          	0x9675748f
    200049b0:	2e26                	c.fldsp	f28,72(x2)
    200049b2:	b7afa72f          	0xb7afa72f
    200049b6:	d7cfc7bf 97409adf 	0x97409adfd7cfc7bf
    200049be:	3098                	c.fld	f14,32(x9)
    200049c0:	d4d21f8f          	0xd4d21f8f
    200049c4:	ffce                	c.sdsp	x19,504(x2)
    200049c6:	4f4e                	c.lwsp	x30,208(x2)
    200049c8:	5b5a                	c.lwsp	x22,180(x2)
    200049ca:	100f0807          	0x100f0807
    200049ce:	efee2f27          	fsw	f30,-258(x28) # 19efe <_binary_loader_binary_bin_size+0x14c5e>
    200049d2:	6f6e                	c.ldsp	x30,216(x2)
    200049d4:	423f3d37          	lui	x26,0x423f3
    200049d8:	9045                	c.srli	x8,0x31
    200049da:	5391                	c.li	x7,-28
    200049dc:	c9c87567          	0xc9c87567
    200049e0:	d1d0                	c.sw	x12,36(x11)
    200049e2:	d9d8                	c.sw	x14,52(x11)
    200049e4:	00fffee7          	0xfffee7
    200049e8:	5f20                	c.lw	x8,120(x14)
    200049ea:	8222                	c.mv	x4,x8
    200049ec:	04df 4482 1b08      	0x1b08448204df
    200049f2:	0604                	c.addi4spn	x9,x2,768
    200049f4:	8111                	c.srli	x10,0x4
    200049f6:	0eac                	c.addi4spn	x11,x2,856
    200049f8:	ab80                	c.fsd	f8,16(x15)
    200049fa:	1f05                	c.addi	x30,-31
    200049fc:	8109                	c.srli	x10,0x2
    200049fe:	0819031b          	addiw	x6,x18,129
    20004a02:	0401                	c.addi	x8,0
    20004a04:	0434042f          	0x434042f
    20004a08:	07010307          	0x7010307
    20004a0c:	0706                	c.slli	x14,0x1
    20004a0e:	0a11                	c.addi	x20,4
    20004a10:	0f50                	c.addi4spn	x12,x2,916
    20004a12:	0712                	c.slli	x14,0x4
    20004a14:	0755                	c.addi	x14,21
    20004a16:	0a1c0403          	lb	x8,161(x24) # 1100a1 <_binary_loader_binary_bin_size+0x10ae01>
    20004a1a:	0309                	c.addi	x6,2
    20004a1c:	0308                	c.addi4spn	x10,x2,384
    20004a1e:	03020307          	0x3020307
    20004a22:	040c0303          	lb	x6,64(x24)
    20004a26:	0305                	c.addi	x6,1
    20004a28:	0e01060b          	0xe01060b
    20004a2c:	0515                	c.addi	x10,5
    20004a2e:	074e                	c.slli	x14,0x13
    20004a30:	0757071b          	addiw	x14,x14,117
    20004a34:	0602                	c.slli64	x12
    20004a36:	04500c17          	auipc	x24,0x4500
    20004a3a:	032d0343          	fmadd.d	f6,f26,f18,f0,rne
    20004a3e:	0401                	c.addi	x8,0
    20004a40:	0611                	c.addi	x12,4
    20004a42:	043a0c0f          	0x43a0c0f
    20004a46:	251d                	c.addiw	x10,7
    20004a48:	205f 046d 256a      	0x256a046d205f
    20004a4e:	c880                	c.sw	x8,16(x9)
    20004a50:	8205                	c.srli	x12,0x1
    20004a52:	03b0                	c.addi4spn	x12,x2,456
    20004a54:	061a                	c.slli	x12,0x6
    20004a56:	fd82                	c.sdsp	x0,248(x2)
    20004a58:	16075903          	lhu	x18,352(x14) # b160 <_binary_loader_binary_bin_size+0x5ec0>
    20004a5c:	1809                	c.addi	x16,-30
    20004a5e:	1409                	c.addi	x8,-30
    20004a60:	140c                	c.addi4spn	x11,x2,544
    20004a62:	6a0c                	c.ld	x11,16(x12)
    20004a64:	0a06                	c.slli	x20,0x1
    20004a66:	1a06                	c.slli	x20,0x21
    20004a68:	5906                	c.lwsp	x18,96(x2)
    20004a6a:	46052b07          	flw	f22,1120(x10)
    20004a6e:	2c0a                	c.fldsp	f24,128(x2)
    20004a70:	0c04                	c.addi4spn	x9,x2,528
    20004a72:	0104                	c.addi4spn	x9,x2,128
    20004a74:	2c0b3103          	ld	x2,704(x22) # 165c9c3a <__GPIO_START+0x65b7c3a>
    20004a78:	1a04                	c.addi4spn	x9,x2,304
    20004a7a:	0b06                	c.slli	x22,0x1
    20004a7c:	06ac8003          	lb	x0,106(x25)
    20004a80:	060a                	c.slli	x12,0x2
    20004a82:	034d312f          	amoadd.d.rl	x2,x20,(x26)
    20004a86:	a480                	c.fsd	f8,8(x9)
    20004a88:	3c08                	c.fld	f10,56(x8)
    20004a8a:	3c030f03          	lb	x30,960(x6) # ffffffffffffd3c0 <__BSS_END+0xffffffff7fefd3be>
    20004a8e:	2b083807          	fld	f16,688(x16) # ffffffffffffd2b0 <__BSS_END+0xffffffff7fefd2ae>
    20004a92:	8205                	c.srli	x12,0x1
    20004a94:	11ff                	0x11ff
    20004a96:	0818                	c.addi4spn	x14,x2,16
    20004a98:	032d112f          	0x32d112f
    20004a9c:	0f21                	c.addi	x30,8
    20004a9e:	0f21                	c.addi	x30,8
    20004aa0:	8c80                	0x8c80
    20004aa2:	8204                	0x8204
    20004aa4:	150b1997          	auipc	x19,0x150b1
    20004aa8:	9488                	0x9488
    20004aaa:	2f05                	c.addiw	x30,1
    20004aac:	3b05                	c.addiw	x22,-31
    20004aae:	180e0207          	0x180e0207
    20004ab2:	8009                	c.srli	x8,0x2
    20004ab4:	22be                	c.fldsp	f5,456(x2)
    20004ab6:	0c74                	c.addi4spn	x13,x2,540
    20004ab8:	d680                	c.sw	x8,40(x13)
    20004aba:	0c1a                	c.slli	x24,0x6
    20004abc:	8005                	c.srli	x8,0x1
    20004abe:	05ff                	0x5ff
    20004ac0:	df80                	c.sw	x8,56(x15)
    20004ac2:	f20c                	c.sd	x11,32(x12)
    20004ac4:	039d                	c.addi	x7,7
    20004ac6:	5c810937          	lui	x18,0x5c810
    20004aca:	8014                	0x8014
    20004acc:	08b8                	c.addi4spn	x14,x2,88
    20004ace:	cb80                	c.sw	x8,16(x15)
    20004ad0:	0a05                	c.addi	x20,1
    20004ad2:	3b18                	c.fld	f14,48(x14)
    20004ad4:	38060a03          	lb	x20,896(x12)
    20004ad8:	4608                	c.lw	x10,8(x12)
    20004ada:	0c08                	c.addi4spn	x10,x2,528
    20004adc:	7406                	c.ldsp	x8,96(x2)
    20004ade:	5a031e0b          	0x5a031e0b
    20004ae2:	5904                	c.lw	x9,48(x10)
    20004ae4:	8009                	c.srli	x8,0x2
    20004ae6:	0a1c1883          	lh	x17,161(x24) # 24504ad7 <_binary_loader_binary_bin_end+0x44ff6ef>
    20004aea:	0916                	c.slli	x18,0x5
    20004aec:	044c                	c.addi4spn	x11,x2,516
    20004aee:	8a80                	0x8a80
    20004af0:	ab06                	c.fsdsp	f1,400(x2)
    20004af2:	0ca4                	c.addi4spn	x9,x2,600
    20004af4:	a1310417          	auipc	x8,0xa1310
    20004af8:	8104                	0x8104
    20004afa:	26da                	c.fldsp	f13,400(x2)
    20004afc:	05050c07          	0x5050c07
    20004b00:	a680                	c.fsd	f8,8(x13)
    20004b02:	8110                	0x8110
    20004b04:	07f5                	c.addi	x15,29
    20004b06:	2001                	0x2001
    20004b08:	062a                	c.slli	x12,0xa
    20004b0a:	044c                	c.addi4spn	x11,x2,516
    20004b0c:	8d80                	0x8d80
    20004b0e:	8004                	0x8004
    20004b10:	03be                	c.slli	x7,0xf
    20004b12:	0d0f031b          	addiw	x6,x30,208
    20004b16:	0600                	c.addi4spn	x8,x2,768
    20004b18:	0101                	c.addi	x2,0
    20004b1a:	02040103          	lb	x2,32(x8) # ffffffffc1314b14 <__BSS_END+0xffffffff41214b12>
    20004b1e:	0705                	c.addi	x14,1
    20004b20:	08080207          	0x8080207
    20004b24:	0209                	c.addi	x4,2
    20004b26:	050a                	c.slli	x10,0x2
    20004b28:	040e020b          	0x40e020b
    20004b2c:	0110                	c.addi4spn	x12,x2,128
    20004b2e:	0211                	c.addi	x4,4
    20004b30:	0512                	c.slli	x10,0x4
    20004b32:	01141113          	slli	x2,x8,0x11
    20004b36:	0215                	c.addi	x4,5
    20004b38:	0d190217          	auipc	x4,0xd190
    20004b3c:	051c                	c.addi4spn	x15,x2,640
    20004b3e:	081d                	c.addi	x16,7
    20004b40:	011f 0124 046a      	0x46a0124011f
    20004b46:	03af026b          	0x3af026b
    20004b4a:	02b1                	c.addi	x5,12
    20004b4c:	02bc                	c.addi4spn	x15,x2,328
    20004b4e:	02d102cf          	fnmadd.d	f5,f2,f13,f0,rne
    20004b52:	0cd4                	c.addi4spn	x13,x2,596
    20004b54:	09d5                	c.addi	x19,21
    20004b56:	02d6                	c.slli	x5,0x15
    20004b58:	01da02d7          	0x1da02d7
    20004b5c:	05e0                	c.addi4spn	x8,x2,716
    20004b5e:	02e1                	c.addi	x5,24
    20004b60:	02e804e7          	jalr	x9,46(x16)
    20004b64:	20ee                	c.fldsp	f1,216(x2)
    20004b66:	04f0                	c.addi4spn	x12,x2,588
    20004b68:	02f8                	c.addi4spn	x14,x2,332
    20004b6a:	03fa                	c.slli	x7,0x1e
    20004b6c:	270c01fb          	0x270c01fb
    20004b70:	4f4e3e3b          	0x4f4e3e3b
    20004b74:	9f9e9e8f          	0x9f9e9e8f
    20004b78:	96938b7b          	0x96938b7b
    20004b7c:	b2a2                	c.fsdsp	f8,352(x2)
    20004b7e:	86ba                	c.mv	x13,x14
    20004b80:	06b1                	c.addi	x13,12
    20004b82:	3d360907          	0x3d360907
    20004b86:	563e                	c.lwsp	x12,236(x2)
    20004b88:	04d1d0f3          	csrrwi	x1,0x4d,3
    20004b8c:	1814                	c.addi4spn	x13,x2,48
    20004b8e:	3736                	c.fldsp	f14,360(x2)
    20004b90:	5756                	c.lwsp	x14,116(x2)
    20004b92:	aa7f                	0xaa7f
    20004b94:	afae                	c.fsdsp	f11,472(x2)
    20004b96:	35bd                	c.addiw	x11,-17
    20004b98:	12e0                	c.addi4spn	x8,x2,364
    20004b9a:	9e8e8987          	0x9e8e8987
    20004b9e:	0d04                	c.addi4spn	x9,x2,656
    20004ba0:	110e                	c.slli	x2,0x23
    20004ba2:	2912                	c.fldsp	f18,256(x2)
    20004ba4:	3431                	c.addiw	x8,-20
    20004ba6:	453a                	c.lwsp	x10,140(x2)
    20004ba8:	4946                	c.lwsp	x18,80(x2)
    20004baa:	4e4a                	c.lwsp	x28,144(x2)
    20004bac:	5c65644f          	0x5c65644f
    20004bb0:	b7b6                	c.fsdsp	f13,488(x2)
    20004bb2:	08071c1b          	0x8071c1b
    20004bb6:	0b0a                	c.slli	x22,0x2
    20004bb8:	1714                	c.addi4spn	x13,x2,928
    20004bba:	3936                	c.fldsp	f18,360(x2)
    20004bbc:	a83a                	c.fsdsp	f14,16(x2)
    20004bbe:	d8a9                	c.beqz	x9,20004b10 <_binary_loader_binary_bin_start+0x49c8>
    20004bc0:	09d9                	c.addi	x19,22
    20004bc2:	a8919037          	lui	x0,0xa8919
    20004bc6:	3e3b0a07          	0x3e3b0a07
    20004bca:	6966                	c.ldsp	x18,88(x2)
    20004bcc:	6f11928f          	0x6f11928f
    20004bd0:	bf5f efee 625a      	0x625aefeebf5f
    20004bd6:	fcf4                	c.sd	x13,248(x9)
    20004bd8:	53ff                	0x53ff
    20004bda:	9a54                	0x9a54
    20004bdc:	272f2e9b          	0x272f2e9b
    20004be0:	5528                	c.lw	x10,104(x10)
    20004be2:	a09d                	c.j	20004c48 <_binary_loader_binary_bin_start+0x4b00>
    20004be4:	a3a1                	c.j	2000512c <_binary_loader_binary_bin_start+0x4fe4>
    20004be6:	a7a4                	c.fsd	f9,72(x15)
    20004be8:	ada8                	c.fsd	f10,88(x11)
    20004bea:	bcba                	c.fsdsp	f14,120(x2)
    20004bec:	06c4                	c.addi4spn	x9,x2,836
    20004bee:	1d150c0b          	0x1d150c0b
    20004bf2:	3f3a                	c.fldsp	f30,424(x2)
    20004bf4:	5145                	c.li	x2,-15
    20004bf6:	a7a6                	c.fsdsp	f9,456(x2)
    20004bf8:	cdcc                	c.sw	x11,28(x11)
    20004bfa:	07a0                	c.addi4spn	x8,x2,968
    20004bfc:	1a19                	c.addi	x20,-26
    20004bfe:	2522                	c.fldsp	f10,8(x2)
    20004c00:	3f3e                	c.fldsp	f30,488(x2)
    20004c02:	ffefece7          	0xffefece7
    20004c06:	c6c5                	c.beqz	x13,20004cae <_binary_loader_binary_bin_start+0x4b66>
    20004c08:	2004                	c.fld	f9,0(x8)
    20004c0a:	28262523          	sw	x2,650(x12)
    20004c0e:	483a3833          	0x483a3833
    20004c12:	4c4a                	c.lwsp	x24,144(x2)
    20004c14:	5350                	c.lw	x12,36(x14)
    20004c16:	5655                	c.li	x12,-11
    20004c18:	5a58                	c.lw	x14,52(x12)
    20004c1a:	5e5c                	c.lw	x15,60(x12)
    20004c1c:	6360                	c.ld	x8,192(x14)
    20004c1e:	6665                	c.lui	x12,0x19
    20004c20:	7d78736b          	0x7d78736b
    20004c24:	8a7f                	0x8a7f
    20004c26:	aaa4                	c.fsd	f9,80(x13)
    20004c28:	d0c0b0af          	0xd0c0b0af
    20004c2c:	afae                	c.fsdsp	f11,472(x2)
    20004c2e:	6f6e                	c.ldsp	x30,216(x2)
    20004c30:	93be                	c.add	x7,x15
    20004c32:	225e                	c.fldsp	f4,464(x2)
    20004c34:	0403057b          	0x403057b
    20004c38:	032d                	c.addi	x6,11
    20004c3a:	0366                	c.slli	x6,0x19
    20004c3c:	2f01                	c.addiw	x30,0
    20004c3e:	802e                	c.mv	x0,x11
    20004c40:	1d82                	c.slli	x27,0x20
    20004c42:	1c0f3103          	ld	x2,448(x30) # 1b1c0 <_binary_loader_binary_bin_size+0x15f20>
    20004c46:	2404                	c.fld	f9,8(x8)
    20004c48:	1e09                	c.addi	x28,-30
    20004c4a:	2b05                	c.addiw	x22,1
    20004c4c:	4405                	c.li	x8,1
    20004c4e:	0e04                	c.addi4spn	x9,x2,784
    20004c50:	802a                	c.mv	x0,x10
    20004c52:	06aa                	c.slli	x13,0xa
    20004c54:	0424                	c.addi4spn	x9,x2,520
    20004c56:	0424                	c.addi4spn	x9,x2,520
    20004c58:	0828                	c.addi4spn	x10,x2,24
    20004c5a:	0b34                	c.addi4spn	x13,x2,408
    20004c5c:	434e                	c.lwsp	x6,208(x2)
    20004c5e:	3781                	c.addiw	x15,-32
    20004c60:	1609                	c.addi	x12,-30
    20004c62:	080a                	c.slli	x16,0x2
    20004c64:	3b18                	c.fld	f14,48(x14)
    20004c66:	3945                	c.addiw	x18,-15
    20004c68:	09086303          	lwu	x6,144(x16)
    20004c6c:	1630                	c.addi4spn	x12,x2,808
    20004c6e:	2105                	c.addiw	x2,1
    20004c70:	01051b03          	lh	x22,16(x10)
    20004c74:	3840                	c.fld	f8,176(x8)
    20004c76:	4b04                	c.lw	x9,16(x14)
    20004c78:	2f05                	c.addiw	x30,1
    20004c7a:	0a04                	c.addi4spn	x9,x2,272
    20004c7c:	40070907          	0x40070907
    20004c80:	2720                	c.fld	f8,72(x14)
    20004c82:	0c04                	c.addi4spn	x9,x2,528
    20004c84:	3609                	c.addiw	x12,-30
    20004c86:	1a053a03          	ld	x20,416(x10)
    20004c8a:	070c0407          	0x70c0407
    20004c8e:	4950                	c.lw	x12,20(x10)
    20004c90:	330d3337          	lui	x6,0x330d3
    20004c94:	0a082e07          	flw	f28,160(x16)
    20004c98:	2681                	c.addiw	x13,0
    20004c9a:	4b52                	c.lwsp	x22,20(x2)
    20004c9c:	162a082b          	0x162a082b
    20004ca0:	261a                	c.fldsp	f12,384(x2)
    20004ca2:	141c                	c.addi4spn	x15,x2,544
    20004ca4:	044e0917          	auipc	x18,0x44e0
    20004ca8:	0924                	c.addi4spn	x9,x2,152
    20004caa:	0d44                	c.addi4spn	x9,x2,660
    20004cac:	0719                	c.addi	x14,6
    20004cae:	060a                	c.slli	x12,0x2
    20004cb0:	0848                	c.addi4spn	x10,x2,20
    20004cb2:	0b750927          	0xb750927
    20004cb6:	3e42                	c.fldsp	f28,48(x2)
    20004cb8:	062a                	c.slli	x12,0xa
    20004cba:	060a053b          	0x60a053b
    20004cbe:	0651                	c.addi	x12,20
    20004cc0:	0501                	c.addi	x10,0
    20004cc2:	0310                	c.addi4spn	x12,x2,384
    20004cc4:	8005                	c.srli	x8,0x1
    20004cc6:	481e628b          	0x481e628b
    20004cca:	0a08                	c.addi4spn	x10,x2,272
    20004ccc:	a680                	c.fsd	f8,8(x13)
    20004cce:	225e                	c.fldsp	f4,464(x2)
    20004cd0:	0b45                	c.addi	x22,17
    20004cd2:	060a                	c.slli	x12,0x2
    20004cd4:	130d                	c.addi	x6,-29
    20004cd6:	063a                	c.slli	x12,0xe
    20004cd8:	360a                	c.fldsp	f12,160(x2)
    20004cda:	042c                	c.addi4spn	x11,x2,520
    20004cdc:	3cb98017          	auipc	x0,0x3cb98
    20004ce0:	5364                	c.lw	x9,100(x14)
    20004ce2:	480c                	c.lw	x11,16(x8)
    20004ce4:	0a09                	c.addi	x20,2
    20004ce6:	4546                	c.lwsp	x10,80(x2)
    20004ce8:	5308481b          	0x5308481b
    20004cec:	490d                	c.li	x18,3
    20004cee:	f6800a07          	0xf6800a07
    20004cf2:	0a46                	c.slli	x20,0x11
    20004cf4:	031d                	c.addi	x6,7
    20004cf6:	03374947          	fmsub.d	f18,f14,f19,f0,rmm
    20004cfa:	080e                	c.slli	x16,0x3
    20004cfc:	060a                	c.slli	x12,0x2
    20004cfe:	0739                	c.addi	x14,14
    20004d00:	810a                	c.mv	x2,x2
    20004d02:	1936                	c.slli	x18,0x2d
    20004d04:	1c033b07          	fld	f22,448(x6) # 330d31c0 <_binary_loader_binary_bin_end+0x130cddd8>
    20004d08:	0156                	c.slli	x2,0x15
    20004d0a:	830d320f          	0x830d320f
    20004d0e:	0b75669b          	0xb75669b
    20004d12:	c480                	c.sw	x8,8(x9)
    20004d14:	4c8a                	c.lwsp	x25,128(x2)
    20004d16:	30840d63          	beq	x8,x8,20005030 <_binary_loader_binary_bin_start+0x4ee8>
    20004d1a:	1610                	c.addi4spn	x12,x2,800
    20004d1c:	4782aa8f          	0x4782aa8f
    20004d20:	b9a1                	c.j	20004978 <_binary_loader_binary_bin_start+0x4830>
    20004d22:	3982                	c.fldsp	f19,32(x2)
    20004d24:	5c042a07          	flw	f20,1472(x8)
    20004d28:	2606                	c.fldsp	f12,64(x2)
    20004d2a:	460a                	c.lwsp	x12,128(x2)
    20004d2c:	280a                	c.fldsp	f16,128(x2)
    20004d2e:	1305                	c.addi	x6,-31
    20004d30:	b082                	c.fsdsp	f0,96(x2)
    20004d32:	044b655b          	0x44b655b
    20004d36:	0739                	c.addi	x14,14
    20004d38:	4011                	c.li	x0,4
    20004d3a:	0b05                	c.addi	x22,1
    20004d3c:	0e02                	c.slli64	x28
    20004d3e:	8408f897          	auipc	x17,0x8408f
    20004d42:	2ad6                	c.fldsp	f21,336(x2)
    20004d44:	a209                	c.j	20004e46 <_binary_loader_binary_bin_start+0x4cfe>
    20004d46:	0f3381e7          	jalr	x3,243(x7)
    20004d4a:	1d01                	c.addi	x26,-32
    20004d4c:	0e06                	c.slli	x28,0x1
    20004d4e:	0804                	c.addi4spn	x9,x2,16
    20004d50:	8c81                	c.sub	x9,x8
    20004d52:	0489                	c.addi	x9,2
    20004d54:	030d056b          	0x30d056b
    20004d58:	0709                	c.addi	x14,2
    20004d5a:	9210                	0x9210
    20004d5c:	4760                	c.lw	x8,76(x14)
    20004d5e:	7409                	c.lui	x8,0xfffe2
    20004d60:	803c                	0x803c
    20004d62:	0af6                	c.slli	x21,0x1d
    20004d64:	15700873          	0x15700873
    20004d68:	7a46                	c.ldsp	x20,112(x2)
    20004d6a:	0c14                	c.addi4spn	x13,x2,528
    20004d6c:	0c14                	c.addi4spn	x13,x2,528
    20004d6e:	80190957          	0x80190957
    20004d72:	03478187          	0x3478187
    20004d76:	4285                	c.li	x5,1
    20004d78:	5084150f          	0x5084150f
    20004d7c:	061f 8006 2bd5      	0x2bd58006061f
    20004d82:	3e05                	c.addiw	x28,-31
    20004d84:	0121                	c.addi	x2,8
    20004d86:	2d70                	c.fld	f12,216(x10)
    20004d88:	02041a03          	lh	x20,32(x8) # fffffffffffe2020 <__BSS_END+0xffffffff7fee201e>
    20004d8c:	4081                	c.li	x1,0
    20004d8e:	111f 053a 8101      	0x8101053a111f
    20004d94:	2ad0                	c.fld	f12,144(x13)
    20004d96:	e682                	c.sdsp	x0,328(x2)
    20004d98:	f780                	c.sd	x8,40(x15)
    20004d9a:	4c29                	c.li	x24,10
    20004d9c:	0a04                	c.addi4spn	x9,x2,272
    20004d9e:	0204                	c.addi4spn	x9,x2,256
    20004da0:	4c441183          	lh	x3,1220(x8)
    20004da4:	803d                	c.srli	x8,0xf
    20004da6:	3cc2                	c.fldsp	f25,48(x2)
    20004da8:	0106                	c.slli	x2,0x1
    20004daa:	5504                	c.lw	x9,40(x10)
    20004dac:	1b05                	c.addi	x22,-31
    20004dae:	0234                	c.addi4spn	x13,x2,264
    20004db0:	0e81                	c.addi	x29,0
    20004db2:	042c                	c.addi4spn	x11,x2,520
    20004db4:	0c64                	c.addi4spn	x9,x2,540
    20004db6:	0a56                	c.slli	x20,0x15
    20004db8:	ae80                	c.fsd	f8,24(x13)
    20004dba:	1d38                	c.addi4spn	x14,x2,696
    20004dbc:	2c0d                	c.addiw	x24,3
    20004dbe:	0904                	c.addi4spn	x9,x2,144
    20004dc0:	060e0207          	0x60e0207
    20004dc4:	9a80                	0x9a80
    20004dc6:	1104d883          	lhu	x17,272(x9)
    20004dca:	77030d03          	lb	x26,1904(x6)
    20004dce:	5f04                	c.lw	x9,56(x14)
    20004dd0:	0c06                	c.slli	x24,0x1
    20004dd2:	0104                	c.addi4spn	x9,x2,128
    20004dd4:	38040c0f          	0x38040c0f
    20004dd8:	0a08                	c.addi4spn	x10,x2,272
    20004dda:	2806                	c.fldsp	f16,64(x2)
    20004ddc:	2208                	c.fld	f10,0(x12)
    20004dde:	814e                	c.mv	x2,x19
    20004de0:	0c54                	c.addi4spn	x13,x2,532
    20004de2:	031d                	c.addi	x6,7
    20004de4:	0709                	c.addi	x14,2
    20004de6:	0836                	c.slli	x16,0xd
    20004de8:	040e                	c.slli	x8,0x3
    20004dea:	0709                	c.addi	x14,2
    20004dec:	0709                	c.addi	x14,2
    20004dee:	cb80                	c.sw	x8,16(x15)
    20004df0:	0a25                	c.addi	x20,9
    20004df2:	0684                	c.addi4spn	x9,x2,832
    20004df4:	6d6f682f          	0x6d6f682f
    20004df8:	2f65                	c.addiw	x30,25
    20004dfa:	676f6873          	csrrsi	x16,0x676,30
    20004dfe:	722e2f6f          	jal	x30,200e7520 <_binary_loader_binary_bin_end+0xe2138>
    20004e02:	7375                	c.lui	x6,0xffffd
    20004e04:	7574                	c.ld	x13,232(x10)
    20004e06:	2f70                	c.fld	f12,216(x14)
    20004e08:	6f74                	c.ld	x13,216(x14)
    20004e0a:	68636c6f          	jal	x24,2003b490 <_binary_loader_binary_bin_end+0x360a8>
    20004e0e:	6961                	c.lui	x18,0x18
    20004e10:	736e                	c.ldsp	x6,248(x2)
    20004e12:	67696e2f          	0x67696e2f
    20004e16:	7468                	c.ld	x10,232(x8)
    20004e18:	796c                	c.ld	x11,240(x10)
    20004e1a:	782d                	c.lui	x16,0xfffeb
    20004e1c:	3638                	c.fld	f14,104(x12)
    20004e1e:	365f 2d34 6e75      	0x6e752d34365f
    20004e24:	776f6e6b          	0x776f6e6b
    20004e28:	2d6e                	c.fldsp	f26,216(x2)
    20004e2a:	696c                	c.ld	x11,208(x10)
    20004e2c:	756e                	c.ldsp	x10,248(x2)
    20004e2e:	2d78                	c.fld	f14,216(x10)
    20004e30:	2f756e67          	0x2f756e67
    20004e34:	696c                	c.ld	x11,208(x10)
    20004e36:	2f62                	c.fldsp	f30,24(x2)
    20004e38:	7572                	c.ldsp	x10,312(x2)
    20004e3a:	696c7473          	csrrci	x8,0x696,24
    20004e3e:	2f62                	c.fldsp	f30,24(x2)
    20004e40:	2f637273          	csrrci	x4,0x2f6,6
    20004e44:	7572                	c.ldsp	x10,312(x2)
    20004e46:	6c2f7473          	csrrci	x8,0x6c2,30
    20004e4a:	6269                	c.lui	x4,0x1a
    20004e4c:	6172                	c.ldsp	x2,280(x2)
    20004e4e:	7972                	c.ldsp	x18,312(x2)
    20004e50:	726f632f          	0x726f632f
    20004e54:	2f65                	c.addiw	x30,25
    20004e56:	2f637273          	csrrci	x4,0x2f6,6
    20004e5a:	6e75                	c.lui	x28,0x1d
    20004e5c:	6369                	c.lui	x6,0x1a
    20004e5e:	2f65646f          	jal	x8,2005b154 <_binary_loader_binary_bin_end+0x55d6c>
    20004e62:	6e75                	c.lui	x28,0x1d
    20004e64:	6369                	c.lui	x6,0x1a
    20004e66:	5f65646f          	jal	x8,2005b45c <_binary_loader_binary_bin_end+0x56074>
    20004e6a:	6164                	c.ld	x9,192(x10)
    20004e6c:	6174                	c.ld	x13,192(x10)
    20004e6e:	722e                	c.ldsp	x4,232(x2)
    20004e70:	00000073          	ecall
    20004e74:	0300                	c.addi4spn	x8,x2,384
    20004e76:	0000                	c.unimp
    20004e78:	00200483          	lb	x9,2(x0) # 2 <_binary_loader_binary_bin_size-0x529e>
    20004e7c:	0591                	c.addi	x11,4
    20004e7e:	0060                	c.addi4spn	x8,x2,12
    20004e80:	135d                	c.addi	x6,-9
    20004e82:	00a0                	c.addi4spn	x8,x2,72
    20004e84:	1712                	c.slli	x14,0x24
    20004e86:	1f20                	c.addi4spn	x8,x2,952
    20004e88:	200c                	c.fld	f11,0(x8)
    20004e8a:	1f60                	c.addi4spn	x8,x2,956
    20004e8c:	2ba02cef          	jal	x25,20007146 <_binary_loader_binary_bin_end+0x1d5e>
    20004e90:	302a                	c.fldsp	f0,168(x2)
    20004e92:	2c20                	c.fld	f8,88(x8)
    20004e94:	2ce0a66f          	jal	x12,2000f162 <_binary_loader_binary_bin_end+0x9d7a>
    20004e98:	a802                	c.fsdsp	f0,16(x2)
    20004e9a:	2d60                	c.fld	f8,216(x10)
    20004e9c:	fb1e                	c.sdsp	x7,432(x2)
    20004e9e:	2e60                	c.fld	f8,216(x12)
    20004ea0:	fe00                	c.sd	x8,56(x12)
    20004ea2:	3620                	c.fld	f8,104(x12)
    20004ea4:	ff9e                	c.sdsp	x7,504(x2)
    20004ea6:	3660                	c.fld	f8,232(x12)
    20004ea8:	01fd                	c.addi	x3,31
    20004eaa:	36e1                	c.addiw	x13,-8
    20004eac:	0a01                	c.addi	x20,0
    20004eae:	3721                	c.addiw	x14,-24
    20004eb0:	0d24                	c.addi4spn	x9,x2,664
    20004eb2:	37e1                	c.addiw	x15,-8
    20004eb4:	39610eab          	0x39610eab
    20004eb8:	39a1182f          	0x39a1182f
    20004ebc:	1c30                	c.addi4spn	x12,x2,568
    20004ebe:	4861                	c.li	x16,24
    20004ec0:	4ca11ef3          	csrrw	x29,0x4ca,x2
    20004ec4:	3440                	c.fld	f8,168(x8)
    20004ec6:	5061                	c.li	x0,-8
    20004ec8:	6af0                	c.ld	x12,208(x13)
    20004eca:	51a1                	c.li	x3,-24
    20004ecc:	52216f4f          	fnmadd.d	f30,f2,f2,f10,unknown
    20004ed0:	bc9d                	c.j	20004946 <_binary_loader_binary_bin_start+0x47fe>
    20004ed2:	52a1                	c.li	x5,-24
    20004ed4:	cf00                	c.sw	x8,24(x14)
    20004ed6:	5361                	c.li	x6,-8
    20004ed8:	d165                	c.beqz	x10,20004eb8 <_binary_loader_binary_bin_start+0x4d70>
    20004eda:	53a1                	c.li	x7,-24
    20004edc:	da00                	c.sw	x8,48(x12)
    20004ede:	5421                	c.li	x8,-24
    20004ee0:	e000                	c.sd	x8,0(x8)
    20004ee2:	55e1                	c.li	x11,-8
    20004ee4:	e2ae                	c.sdsp	x11,320(x2)
    20004ee6:	5761                	c.li	x14,-8
    20004ee8:	e4ec                	c.sd	x11,200(x9)
    20004eea:	5921                	c.li	x18,-24
    20004eec:	e8d0                	c.sd	x12,144(x9)
    20004eee:	59a1                	c.li	x19,-24
    20004ef0:	0020                	c.addi4spn	x8,x2,8
    20004ef2:	59ee                	c.lwsp	x19,248(x2)
    20004ef4:	01f0                	c.addi4spn	x12,x2,204
    20004ef6:	5a7f                	0x5a7f
    20004ef8:	7000                	c.ld	x8,32(x8)
    20004efa:	0700                	c.addi4spn	x8,x2,896
    20004efc:	2d00                	c.fld	f8,24(x10)
    20004efe:	0101                	c.addi	x2,0
    20004f00:	0201                	c.addi	x4,0
    20004f02:	0201                	c.addi	x4,0
    20004f04:	0101                	c.addi	x2,0
    20004f06:	0b48                	c.addi4spn	x10,x2,404
    20004f08:	1530                	c.addi4spn	x12,x2,680
    20004f0a:	0110                	c.addi4spn	x12,x2,128
    20004f0c:	0765                	c.addi	x14,25
    20004f0e:	0602                	c.slli64	x12
    20004f10:	0202                	c.slli64	x4
    20004f12:	0401                	c.addi	x8,0
    20004f14:	1b1e0123          	sb	x17,418(x28) # 1d1a2 <_binary_loader_binary_bin_size+0x17f02>
    20004f18:	093a0b5b          	0x93a0b5b
    20004f1c:	0109                	c.addi	x2,2
    20004f1e:	0418                	c.addi4spn	x14,x2,512
    20004f20:	0901                	c.addi	x18,0
    20004f22:	0301                	c.addi	x6,0
    20004f24:	0501                	c.addi	x10,0
    20004f26:	083c032b          	0x83c032b
    20004f2a:	182a                	c.slli	x16,0x2a
    20004f2c:	2001                	0x2001
    20004f2e:	01010137          	lui	x2,0x1010
    20004f32:	0804                	c.addi4spn	x9,x2,16
    20004f34:	0104                	c.addi4spn	x9,x2,128
    20004f36:	020a0703          	lb	x14,32(x20) # ffffffffffef0020 <__BSS_END+0xffffffff7fdf001e>
    20004f3a:	011d                	c.addi	x2,7
    20004f3c:	013a                	c.slli	x2,0xe
    20004f3e:	0101                	c.addi	x2,0
    20004f40:	0402                	c.slli64	x8
    20004f42:	0108                	c.addi4spn	x10,x2,128
    20004f44:	0109                	c.addi	x2,2
    20004f46:	020a                	c.slli	x4,0x2
    20004f48:	011a                	c.slli	x2,0x6
    20004f4a:	0202                	c.slli64	x4
    20004f4c:	0139                	c.addi	x2,14
    20004f4e:	0204                	c.addi4spn	x9,x2,256
    20004f50:	0204                	c.addi4spn	x9,x2,256
    20004f52:	0302                	c.slli64	x6
    20004f54:	021e0103          	lb	x2,33(x28)
    20004f58:	020b0103          	lb	x2,32(x22)
    20004f5c:	0139                	c.addi	x2,14
    20004f5e:	0504                	c.addi4spn	x9,x2,640
    20004f60:	0201                	c.addi	x4,0
    20004f62:	0104                	c.addi4spn	x9,x2,128
    20004f64:	0214                	c.addi4spn	x13,x2,256
    20004f66:	0616                	c.slli	x12,0x5
    20004f68:	0101                	c.addi	x2,0
    20004f6a:	013a                	c.slli	x2,0xe
    20004f6c:	0201                	c.addi	x4,0
    20004f6e:	0401                	c.addi	x8,0
    20004f70:	0108                	c.addi4spn	x10,x2,128
    20004f72:	020a0307          	0x20a0307
    20004f76:	011e                	c.slli	x2,0x7
    20004f78:	0101013b          	addw	x2,x2,x16
    20004f7c:	010c                	c.addi4spn	x11,x2,128
    20004f7e:	0109                	c.addi	x2,2
    20004f80:	0128                	c.addi4spn	x10,x2,136
    20004f82:	01370103          	lb	x2,19(x14)
    20004f86:	0301                	c.addi	x6,0
    20004f88:	0305                	c.addi	x6,1
    20004f8a:	0401                	c.addi	x8,0
    20004f8c:	020b0207          	0x20b0207
    20004f90:	011d                	c.addi	x2,7
    20004f92:	013a                	c.slli	x2,0xe
    20004f94:	0102                	c.slli64	x2
    20004f96:	0102                	c.slli64	x2
    20004f98:	02050103          	lb	x2,32(x10)
    20004f9c:	020b0207          	0x20b0207
    20004fa0:	021c                	c.addi4spn	x15,x2,256
    20004fa2:	0239                	c.addi	x4,14
    20004fa4:	0101                	c.addi	x2,0
    20004fa6:	0402                	c.slli64	x8
    20004fa8:	0108                	c.addi4spn	x10,x2,128
    20004faa:	0109                	c.addi	x2,2
    20004fac:	020a                	c.slli	x4,0x2
    20004fae:	011d                	c.addi	x2,7
    20004fb0:	0148                	c.addi4spn	x10,x2,132
    20004fb2:	0104                	c.addi4spn	x9,x2,128
    20004fb4:	0302                	c.slli64	x6
    20004fb6:	0101                	c.addi	x2,0
    20004fb8:	0108                	c.addi4spn	x10,x2,128
    20004fba:	0151                	c.addi	x2,20
    20004fbc:	0702                	c.slli64	x14
    20004fbe:	080c                	c.addi4spn	x11,x2,16
    20004fc0:	0162                	c.slli	x2,0x18
    20004fc2:	0902                	c.slli64	x18
    20004fc4:	0249070b          	0x249070b
    20004fc8:	0101011b          	addiw	x2,x2,16
    20004fcc:	0101                	c.addi	x2,0
    20004fce:	05010e37          	lui	x28,0x5010
    20004fd2:	0201                	c.addi	x4,0
    20004fd4:	0b05                	c.addi	x22,1
    20004fd6:	2401                	c.addiw	x8,0
    20004fd8:	0109                	c.addi	x2,2
    20004fda:	0466                	c.slli	x8,0x19
    20004fdc:	0601                	c.addi	x12,0
    20004fde:	0201                	c.addi	x4,0
    20004fe0:	0202                	c.slli64	x4
    20004fe2:	0219                	c.addi	x4,6
    20004fe4:	0304                	c.addi4spn	x9,x2,384
    20004fe6:	0410                	c.addi4spn	x12,x2,512
    20004fe8:	010d                	c.addi	x2,3
    20004fea:	0202                	c.slli64	x4
    20004fec:	0106                	c.slli	x2,0x1
    20004fee:	0300010f          	0x300010f
    20004ff2:	0300                	c.addi4spn	x8,x2,384
    20004ff4:	021d                	c.addi	x4,7
    20004ff6:	021e                	c.slli	x4,0x7
    20004ff8:	021e                	c.slli	x4,0x7
    20004ffa:	0240                	c.addi4spn	x8,x2,260
    20004ffc:	0701                	c.addi	x14,0
    20004ffe:	0108                	c.addi4spn	x10,x2,128
    20005000:	0b02                	c.slli64	x22
    20005002:	0109                	c.addi	x2,2
    20005004:	032d                	c.addi	x6,11
    20005006:	0101                	c.addi	x2,0
    20005008:	0275                	c.addi	x4,29
    2000500a:	0122                	c.slli	x2,0x8
    2000500c:	0376                	c.slli	x6,0x1d
    2000500e:	0204                	c.addi4spn	x9,x2,256
    20005010:	0109                	c.addi	x2,2
    20005012:	0306                	c.slli	x6,0x1
    20005014:	010202db          	0x10202db
    20005018:	013a                	c.slli	x2,0xe
    2000501a:	0701                	c.addi	x14,0
    2000501c:	0101                	c.addi	x2,0
    2000501e:	0101                	c.addi	x2,0
    20005020:	0802                	c.slli64	x16
    20005022:	0a06                	c.slli	x20,0x1
    20005024:	0102                	c.slli64	x2
    20005026:	1f30                	c.addi4spn	x12,x2,952
    20005028:	0431                	c.addi	x8,12
    2000502a:	0730                	c.addi4spn	x12,x2,904
    2000502c:	0101                	c.addi	x2,0
    2000502e:	0105                	c.addi	x2,1
    20005030:	0928                	c.addi4spn	x10,x2,152
    20005032:	020c                	c.addi4spn	x11,x2,256
    20005034:	0420                	c.addi4spn	x8,x2,520
    20005036:	0202                	c.slli64	x4
    20005038:	0301                	c.addi	x6,0
    2000503a:	0138                	c.addi4spn	x14,x2,136
    2000503c:	0201                	c.addi	x4,0
    2000503e:	03010103          	lb	x2,48(x2) # 1010030 <_binary_loader_binary_bin_size+0x100ad90>
    20005042:	083a                	c.slli	x16,0xe
    20005044:	0202                	c.slli64	x4
    20005046:	0398                	c.addi4spn	x14,x2,448
    20005048:	0d01                	c.addi	x26,0
    2000504a:	0701                	c.addi	x14,0
    2000504c:	0104                	c.addi4spn	x9,x2,128
    2000504e:	0106                	c.slli	x2,0x1
    20005050:	40c60203          	lb	x4,1036(x12) # 1940c <_binary_loader_binary_bin_size+0x1416c>
    20005054:	0100                	c.addi4spn	x8,x2,128
    20005056:	030021c3          	fmadd.d	f3,f0,f16,f0,rdn
    2000505a:	018d                	c.addi	x3,3
    2000505c:	2060                	c.fld	f8,192(x8)
    2000505e:	0600                	c.addi4spn	x8,x2,768
    20005060:	0269                	c.addi	x4,26
    20005062:	0400                	c.addi4spn	x8,x2,512
    20005064:	0a01                	c.addi	x20,0
    20005066:	0220                	c.addi4spn	x8,x2,264
    20005068:	0250                	c.addi4spn	x12,x2,260
    2000506a:	0100                	c.addi4spn	x8,x2,128
    2000506c:	01040103          	lb	x2,16(x8)
    20005070:	0219                	c.addi	x4,6
    20005072:	0105                	c.addi	x2,1
    20005074:	121a0297          	auipc	x5,0x121a0
    20005078:	010d                	c.addi	x2,3
    2000507a:	0826                	c.slli	x16,0x9
    2000507c:	0b19                	c.addi	x22,6
    2000507e:	032e                	c.slli	x6,0xb
    20005080:	0130                	c.addi4spn	x12,x2,136
    20005082:	0402                	c.slli64	x8
    20005084:	0202                	c.slli64	x4
    20005086:	06430127          	0x6430127
    2000508a:	0202                	c.slli64	x4
    2000508c:	0202                	c.slli64	x4
    2000508e:	010c                	c.addi4spn	x11,x2,128
    20005090:	0108                	c.addi4spn	x10,x2,128
    20005092:	0133012f          	0x133012f
    20005096:	0301                	c.addi	x6,0
    20005098:	0202                	c.slli64	x4
    2000509a:	0205                	c.addi	x4,1
    2000509c:	0101                	c.addi	x2,0
    2000509e:	022a                	c.slli	x4,0xa
    200050a0:	0108                	c.addi4spn	x10,x2,128
    200050a2:	01ee                	c.slli	x3,0x1b
    200050a4:	0102                	c.slli64	x2
    200050a6:	0104                	c.addi4spn	x9,x2,128
    200050a8:	0100                	c.addi4spn	x8,x2,128
    200050aa:	1000                	c.addi4spn	x8,x2,32
    200050ac:	1010                	c.addi4spn	x12,x2,32
    200050ae:	0200                	c.addi4spn	x8,x2,256
    200050b0:	0100                	c.addi4spn	x8,x2,128
    200050b2:	01e2                	c.slli	x3,0x18
    200050b4:	0595                	c.addi	x11,5
    200050b6:	0300                	c.addi4spn	x8,x2,384
    200050b8:	0201                	c.addi	x4,0
    200050ba:	0405                	c.addi	x8,1
    200050bc:	0328                	c.addi4spn	x10,x2,392
    200050be:	0104                	c.addi4spn	x9,x2,128
    200050c0:	02a5                	c.addi	x5,9
    200050c2:	0400                	c.addi4spn	x8,x2,512
    200050c4:	0200                	c.addi4spn	x8,x2,256
    200050c6:	0350                	c.addi4spn	x12,x2,388
    200050c8:	0b46                	c.slli	x22,0x11
    200050ca:	0431                	c.addi	x8,12
    200050cc:	0f36017b          	0xf36017b
    200050d0:	0129                	c.addi	x2,10
    200050d2:	0202                	c.slli64	x4
    200050d4:	030a                	c.slli	x6,0x2
    200050d6:	0431                	c.addi	x8,12
    200050d8:	0202                	c.slli64	x4
    200050da:	033d0107          	0x33d0107
    200050de:	0524                	c.addi4spn	x9,x2,648
    200050e0:	0801                	c.addi	x16,0
    200050e2:	013e                	c.slli	x2,0xf
    200050e4:	020c                	c.addi4spn	x11,x2,256
    200050e6:	0934                	c.addi4spn	x13,x2,152
    200050e8:	040a                	c.slli	x8,0x2
    200050ea:	0102                	c.slli64	x2
    200050ec:	035f 0102 0201      	0x2010102035f
    200050f2:	0106                	c.slli	x2,0x1
    200050f4:	0102                	c.slli64	x2
    200050f6:	019d                	c.addi	x3,7
    200050f8:	02150803          	lb	x16,33(x10)
    200050fc:	0239                	c.addi	x4,14
    200050fe:	0101                	c.addi	x2,0
    20005100:	0101                	c.addi	x2,0
    20005102:	0116                	c.slli	x2,0x5
    20005104:	070e                	c.slli	x14,0x3
    20005106:	08c30503          	lb	x10,140(x6) # 1a08c <_binary_loader_binary_bin_size+0x14dec>
    2000510a:	0302                	c.slli64	x6
    2000510c:	0101                	c.addi	x2,0
    2000510e:	01510117          	auipc	x2,0x1510
    20005112:	0602                	c.slli64	x12
    20005114:	0101                	c.addi	x2,0
    20005116:	0102                	c.slli64	x2
    20005118:	0201                	c.addi	x4,0
    2000511a:	0201                	c.addi	x4,0
    2000511c:	040201eb          	0x40201eb
    20005120:	0206                	c.slli	x4,0x1
    20005122:	0201                	c.addi	x4,0
    20005124:	0855021b          	addiw	x4,x10,133
    20005128:	0102                	c.slli64	x2
    2000512a:	0201                	c.addi	x4,0
    2000512c:	016a                	c.slli	x2,0x1a
    2000512e:	0101                	c.addi	x2,0
    20005130:	0602                	c.slli64	x12
    20005132:	0101                	c.addi	x2,0
    20005134:	0365                	c.addi	x6,25
    20005136:	0402                	c.slli64	x8
    20005138:	0501                	c.addi	x10,0
    2000513a:	0900                	c.addi4spn	x8,x2,144
    2000513c:	0201                	c.addi	x4,0
    2000513e:	01f5                	c.addi	x3,29
    20005140:	020a                	c.slli	x4,0x2
    20005142:	0101                	c.addi	x2,0
    20005144:	0104                	c.addi4spn	x9,x2,128
    20005146:	0490                	c.addi4spn	x12,x2,576
    20005148:	0202                	c.slli64	x4
    2000514a:	0104                	c.addi4spn	x9,x2,128
    2000514c:	0a20                	c.addi4spn	x8,x2,280
    2000514e:	0628                	c.addi4spn	x10,x2,776
    20005150:	0402                	c.slli64	x8
    20005152:	0108                	c.addi4spn	x10,x2,128
    20005154:	0609                	c.addi	x12,2
    20005156:	0302                	c.slli64	x6
    20005158:	0d2e                	c.slli	x26,0xb
    2000515a:	0201                	c.addi	x4,0
    2000515c:	0700                	c.addi4spn	x8,x2,896
    2000515e:	0601                	c.addi	x12,0
    20005160:	0101                	c.addi	x2,0
    20005162:	1652                	c.slli	x12,0x34
    20005164:	0702                	c.slli64	x14
    20005166:	0201                	c.addi	x4,0
    20005168:	0201                	c.addi	x4,0
    2000516a:	067a                	c.slli	x12,0x1e
    2000516c:	02010103          	lb	x2,32(x2) # 2151512e <_binary_loader_binary_bin_end+0x150fd46>
    20005170:	0701                	c.addi	x14,0
    20005172:	0101                	c.addi	x2,0
    20005174:	0248                	c.addi4spn	x10,x2,260
    20005176:	01010103          	lb	x2,16(x2)
    2000517a:	0200                	c.addi4spn	x8,x2,256
    2000517c:	0534020b          	0x534020b
    20005180:	0105                	c.addi	x2,1
    20005182:	0101                	c.addi	x2,0
    20005184:	0100                	c.addi4spn	x8,x2,128
    20005186:	0f06                	c.slli	x30,0x1
    20005188:	0500                	c.addi4spn	x8,x2,640
    2000518a:	0100073b          	addw	x14,x0,x16
    2000518e:	0151043f 2e000200 	0x2e0002000151043f
    20005196:	1702                	c.slli	x14,0x20
    20005198:	0100                	c.addi4spn	x8,x2,128
    2000519a:	0301                	c.addi	x6,0
    2000519c:	0504                	c.addi4spn	x9,x2,640
    2000519e:	0808                	c.addi4spn	x10,x2,16
    200051a0:	0702                	c.slli64	x14
    200051a2:	041e                	c.slli	x8,0x7
    200051a4:	0394                	c.addi4spn	x13,x2,448
    200051a6:	3700                	c.fld	f8,40(x14)
    200051a8:	3204                	c.fld	f9,32(x12)
    200051aa:	0108                	c.addi4spn	x10,x2,128
    200051ac:	010e                	c.slli	x2,0x3
    200051ae:	0516                	c.slli	x10,0x5
    200051b0:	0f01                	c.addi	x30,0
    200051b2:	0700                	c.addi4spn	x8,x2,896
    200051b4:	1101                	c.addi	x2,-32
    200051b6:	0702                	c.slli64	x14
    200051b8:	0201                	c.addi	x4,0
    200051ba:	0501                	c.addi	x10,0
    200051bc:	0164                	c.addi4spn	x9,x2,140
    200051be:	07a0                	c.addi4spn	x8,x2,968
    200051c0:	0100                	c.addi4spn	x8,x2,128
    200051c2:	043d                	c.addi	x8,15
    200051c4:	0400                	c.addi4spn	x8,x2,512
    200051c6:	0700                	c.addi4spn	x8,x2,896
    200051c8:	076d                	c.addi	x14,27
    200051ca:	6000                	c.ld	x8,0(x8)
    200051cc:	f080                	c.sd	x8,32(x9)
    200051ce:	0000                	c.unimp
    200051d0:	4cac                	c.lw	x11,88(x9)
    200051d2:	8000                	0x8000
    200051d4:	0000                	c.unimp
    200051d6:	0000                	c.unimp
    200051d8:	007d                	c.addi	x0,31
    200051da:	0000                	c.unimp
    200051dc:	0000                	c.unimp
    200051de:	0000                	c.unimp
    200051e0:	0000013f 00000009 	0x90000013f
    200051e8:	65636e4f          	0x65636e4f
    200051ec:	6820                	c.ld	x8,80(x8)
    200051ee:	7361                	c.lui	x6,0xffff8
    200051f0:	7020                	c.ld	x8,96(x8)
    200051f2:	6e61                	c.lui	x28,0x18
    200051f4:	6369                	c.lui	x6,0x1a
    200051f6:	2f64656b          	0x2f64656b
    200051fa:	6f68                	c.ld	x10,216(x14)
    200051fc:	656d                	c.lui	x10,0x1b
    200051fe:	6f68732f          	0x6f68732f
    20005202:	2e2f6f67          	0x2e2f6f67
    20005206:	67726163          	bltu	x4,x23,20005868 <_binary_loader_binary_bin_end+0x480>
    2000520a:	65722f6f          	jal	x30,20028060 <_binary_loader_binary_bin_end+0x22c78>
    2000520e:	74736967          	0x74736967
    20005212:	7972                	c.ldsp	x18,312(x2)
    20005214:	6372732f          	0x6372732f
    20005218:	7469672f          	0x7469672f
    2000521c:	7568                	c.ld	x10,232(x10)
    2000521e:	2e62                	c.fldsp	f28,24(x2)
    20005220:	2d6d6f63          	bltu	x26,x22,200054fe <_binary_loader_binary_bin_end+0x116>
    20005224:	6531                	c.lui	x10,0xc
    20005226:	32366363          	bltu	x12,x3,2000554c <_binary_loader_binary_bin_end+0x164>
    2000522a:	3939                	c.addiw	x18,-18
    2000522c:	6264                	c.ld	x9,192(x12)
    2000522e:	6539                	c.lui	x10,0xe
    20005230:	33323863          	0x33323863
    20005234:	6970732f          	0x6970732f
    20005238:	2d6e                	c.fldsp	f26,216(x2)
    2000523a:	2e30                	c.fld	f12,88(x12)
    2000523c:	2e35                	c.addiw	x28,13
    2000523e:	2f32                	c.fldsp	f30,264(x2)
    20005240:	2f637273          	csrrci	x4,0x2f6,6
    20005244:	65636e6f          	jal	x28,2003b89a <_binary_loader_binary_bin_end+0x364b2>
    20005248:	722e                	c.ldsp	x4,232(x2)
    2000524a:	00000073          	ecall
    2000524e:	0000                	c.unimp
    20005250:	50b1                	c.li	x1,-20
    20005252:	8000                	0x8000
    20005254:	0000                	c.unimp
    20005256:	0000                	c.unimp
    20005258:	0052                	c.slli	x0,0x14
    2000525a:	0000                	c.unimp
    2000525c:	0000                	c.unimp
    2000525e:	0000                	c.unimp
    20005260:	0080                	c.addi4spn	x8,x2,64
    20005262:	0000                	c.unimp
    20005264:	001d                	c.addi	x0,7
    20005266:	0000                	c.unimp
    20005268:	6e69                	c.lui	x28,0x1a
    2000526a:	6574                	c.ld	x13,200(x10)
    2000526c:	6e72                	c.ldsp	x28,280(x2)
    2000526e:	6c61                	c.lui	x24,0x18
    20005270:	6520                	c.ld	x8,72(x10)
    20005272:	7272                	c.ldsp	x4,312(x2)
    20005274:	203a726f          	jal	x4,200acc76 <_binary_loader_binary_bin_end+0xa788e>
    20005278:	6e65                	c.lui	x28,0x19
    2000527a:	6574                	c.ld	x13,200(x10)
    2000527c:	6572                	c.ldsp	x10,280(x2)
    2000527e:	2064                	c.fld	f9,192(x8)
    20005280:	6e75                	c.lui	x28,0x1d
    20005282:	6572                	c.ldsp	x10,280(x2)
    20005284:	6361                	c.lui	x6,0x18
    20005286:	6168                	c.ld	x10,192(x10)
    20005288:	6c62                	c.ldsp	x24,24(x2)
    2000528a:	2065                	0x2065
    2000528c:	65646f63          	bltu	x8,x22,200058ea <_binary_loader_binary_bin_end+0x502>
    20005290:	50b1                	c.li	x1,-20
    20005292:	8000                	0x8000
    20005294:	0000                	c.unimp
    20005296:	0000                	c.unimp
    20005298:	0052                	c.slli	x0,0x14
    2000529a:	0000                	c.unimp
    2000529c:	0000                	c.unimp
    2000529e:	0000                	c.unimp
    200052a0:	0000007b          	0x7b
    200052a4:	001f 0000 6548      	0x65480000001f
    200052aa:	6c6c                	c.ld	x11,216(x8)
    200052ac:	000a216f          	jal	x2,200a72ac <_binary_loader_binary_bin_end+0xa1ec4>
    200052b0:	5160                	c.lw	x8,100(x10)
    200052b2:	8000                	0x8000
    200052b4:	0000                	c.unimp
    200052b6:	0000                	c.unimp
    200052b8:	00000007          	0x7
    200052bc:	0000                	c.unimp
    200052be:	0000                	c.unimp
    200052c0:	2049                	0x2049
    200052c2:	6d61                	c.lui	x26,0x18
    200052c4:	4220                	c.lw	x8,64(x12)
    200052c6:	5034                	c.lw	x13,96(x8)
    200052c8:	6f72                	c.ldsp	x30,280(x2)
    200052ca:	73736563          	bltu	x6,x23,200059f4 <_binary_loader_binary_bin_end+0x60c>
    200052ce:	0a21726f          	jal	x4,2001c370 <_binary_loader_binary_bin_end+0x16f88>
    200052d2:	0000                	c.unimp
    200052d4:	0000                	c.unimp
    200052d6:	0000                	c.unimp
    200052d8:	5178                	c.lw	x14,100(x10)
    200052da:	8000                	0x8000
    200052dc:	0000                	c.unimp
    200052de:	0000                	c.unimp
    200052e0:	0012                	c.slli	x0,0x4
    200052e2:	0000                	c.unimp
    200052e4:	0000                	c.unimp
    200052e6:	0000                	c.unimp
    200052e8:	4155                	c.li	x2,21
    200052ea:	5452                	c.lwsp	x8,52(x2)
    200052ec:	3d20                	c.fld	f8,120(x10)
    200052ee:	0a20                	c.addi4spn	x8,x2,280
    200052f0:	51a0                	c.lw	x8,96(x11)
    200052f2:	8000                	0x8000
    200052f4:	0000                	c.unimp
    200052f6:	0000                	c.unimp
    200052f8:	00000007          	0x7
    200052fc:	0000                	c.unimp
    200052fe:	0000                	c.unimp
    20005300:	800051a7          	0x800051a7
    20005304:	0000                	c.unimp
    20005306:	0000                	c.unimp
    20005308:	0001                	c.addi	x0,0
    2000530a:	0000                	c.unimp
    2000530c:	0000                	c.unimp
    2000530e:	0000                	c.unimp
    20005310:	0002                	c.slli64	x0
	...
    20005326:	0000                	c.unimp
    20005328:	0010                	0x10
	...
    20005332:	0000                	c.unimp
    20005334:	0020                	c.addi4spn	x8,x2,8
    20005336:	0000                	c.unimp
    20005338:	00000003          	lb	x0,0(x0) # 0 <_binary_loader_binary_bin_size-0x52a0>
	...
    20005348:	4152                	c.lwsp	x2,20(x2)
    2000534a:	204d                	0x204d
    2000534c:	3d20                	c.fld	f8,120(x10)
    2000534e:	0020                	c.addi4spn	x8,x2,8
    20005350:	5200                	c.lw	x8,32(x12)
    20005352:	8000                	0x8000
    20005354:	0000                	c.unimp
    20005356:	0000                	c.unimp
    20005358:	00000007          	0x7
    2000535c:	0000                	c.unimp
    2000535e:	0000                	c.unimp
    20005360:	800051a7          	0x800051a7
    20005364:	0000                	c.unimp
    20005366:	0000                	c.unimp
    20005368:	0001                	c.addi	x0,0
    2000536a:	0000                	c.unimp
    2000536c:	0000                	c.unimp
    2000536e:	0000                	c.unimp
    20005370:	5160                	c.lw	x8,100(x10)
    20005372:	8000                	0x8000
	...
    20005380:	800051a7          	0x800051a7
    20005384:	0000                	c.unimp
    20005386:	0000                	c.unimp
    20005388:	0001                	c.addi	x0,0
    2000538a:	0000                	c.unimp
    2000538c:	0000                	c.unimp
    2000538e:	0000                	c.unimp
    20005390:	feff                	0xfeff
    20005392:	fefe                	c.sdsp	x31,376(x2)
    20005394:	fefe                	c.sdsp	x31,376(x2)
    20005396:	fefe                	c.sdsp	x31,376(x2)
    20005398:	8080                	0x8080
    2000539a:	8080                	0x8080
    2000539c:	8080                	0x8080
    2000539e:	8080                	0x8080
    200053a0:	0a0a                	c.slli	x20,0x2
    200053a2:	0a0a                	c.slli	x20,0x2
    200053a4:	0a0a                	c.slli	x20,0x2
    200053a6:	0a0a                	c.slli	x20,0x2
    200053a8:	cc1ce193          	ori	x3,x25,-831
    200053ac:	afbe                	c.fsdsp	f15,472(x2)
    200053ae:	61e5                	c.lui	x3,0x19
    200053b0:	0101                	c.addi	x2,0
    200053b2:	0101                	c.addi	x2,0
    200053b4:	0101                	c.addi	x2,0
    200053b6:	0101                	c.addi	x2,0
    200053b8:	00ff                	0xff
    200053ba:	00ff                	0xff
    200053bc:	00ff                	0xff
    200053be:	00ff                	0xff
	...
    200053c8:	0000                	c.unimp
    200053ca:	8000                	0x8000
    200053cc:	0000                	c.unimp
    200053ce:	0000                	c.unimp
    200053d0:	52a0                	c.lw	x8,96(x13)
    200053d2:	8000                	0x8000
    200053d4:	0000                	c.unimp
    200053d6:	0000                	c.unimp
    200053d8:	52c2                	c.lwsp	x5,48(x2)
    200053da:	8000                	0x8000
    200053dc:	0000                	c.unimp
    200053de:	0000                	c.unimp
    200053e0:	52c0                	c.lw	x8,36(x13)
    200053e2:	8000                	0x8000
    200053e4:	0000                	c.unimp
	...

Disassembly of section .bss:

0000000080100000 <__BSS_START>:
	...

0000000080100001 <loader_init_done>:
	...

Disassembly of section .riscv.attributes:

0000000000000000 <.riscv.attributes>:
   0:	1941                	c.addi	x18,-16
   2:	0000                	c.unimp
   4:	7200                	c.ld	x8,32(x12)
   6:	7369                	c.lui	x6,0xffffa
   8:	01007663          	bgeu	x0,x16,14 <_binary_loader_binary_bin_size-0x528c>
   c:	0000000f          	fence	unknown,unknown
  10:	7205                	c.lui	x4,0xfffe1
  12:	3676                	c.fldsp	f12,376(x2)
  14:	6934                	c.ld	x13,80(x10)
  16:	7032                	0x7032
  18:	0030                	c.addi4spn	x12,x2,8

Disassembly of section .debug_line:

0000000000000000 <.debug_line>:
   0:	01ce                	c.slli	x3,0x13
   2:	0000                	c.unimp
   4:	001e0003          	lb	x0,1(x28) # 1d001 <_binary_loader_binary_bin_size+0x17d61>
   8:	0000                	c.unimp
   a:	0101                	c.addi	x2,0
   c:	000d0efb          	0xd0efb
  10:	0101                	c.addi	x2,0
  12:	0101                	c.addi	x2,0
  14:	0000                	c.unimp
  16:	0100                	c.addi4spn	x8,x2,128
  18:	0000                	c.unimp
  1a:	0001                	c.addi	x0,0
  1c:	6e65                	c.lui	x28,0x19
  1e:	7274                	c.ld	x13,224(x12)
  20:	2e79                	c.addiw	x28,30
  22:	00000053          	fadd.s	f0,f0,f0,rne
  26:	0000                	c.unimp
  28:	0900                	c.addi4spn	x8,x2,144
  2a:	0002                	c.slli64	x0
  2c:	0000                	c.unimp
  2e:	0020                	c.addi4spn	x8,x2,8
  30:	0000                	c.unimp
  32:	1700                	c.addi4spn	x8,x2,928
  34:	04090103          	lb	x2,64(x18) # 18040 <_binary_loader_binary_bin_size+0x12da0>
  38:	0100                	c.addi4spn	x8,x2,128
  3a:	04090203          	lb	x4,64(x18)
  3e:	0100                	c.addi4spn	x8,x2,128
  40:	04090103          	lb	x2,64(x18)
  44:	0100                	c.addi4spn	x8,x2,128
  46:	04090103          	lb	x2,64(x18)
  4a:	0100                	c.addi4spn	x8,x2,128
  4c:	04090203          	lb	x4,64(x18)
  50:	0100                	c.addi4spn	x8,x2,128
  52:	04090103          	lb	x2,64(x18)
  56:	0100                	c.addi4spn	x8,x2,128
  58:	04090103          	lb	x2,64(x18)
  5c:	0100                	c.addi4spn	x8,x2,128
  5e:	04090203          	lb	x4,64(x18)
  62:	0100                	c.addi4spn	x8,x2,128
  64:	04090103          	lb	x2,64(x18)
  68:	0100                	c.addi4spn	x8,x2,128
  6a:	04090103          	lb	x2,64(x18)
  6e:	0100                	c.addi4spn	x8,x2,128
  70:	04090203          	lb	x4,64(x18)
  74:	0100                	c.addi4spn	x8,x2,128
  76:	08090103          	lb	x2,128(x18)
  7a:	0100                	c.addi4spn	x8,x2,128
  7c:	04090403          	lb	x8,64(x18)
  80:	0100                	c.addi4spn	x8,x2,128
  82:	08090103          	lb	x2,128(x18)
  86:	0100                	c.addi4spn	x8,x2,128
  88:	04090103          	lb	x2,64(x18)
  8c:	0100                	c.addi4spn	x8,x2,128
  8e:	04090403          	lb	x8,64(x18)
  92:	0100                	c.addi4spn	x8,x2,128
  94:	04090103          	lb	x2,64(x18)
  98:	0100                	c.addi4spn	x8,x2,128
  9a:	04090103          	lb	x2,64(x18)
  9e:	0100                	c.addi4spn	x8,x2,128
  a0:	08090103          	lb	x2,128(x18)
  a4:	0100                	c.addi4spn	x8,x2,128
  a6:	04090103          	lb	x2,64(x18)
  aa:	0100                	c.addi4spn	x8,x2,128
  ac:	04090203          	lb	x4,64(x18)
  b0:	0100                	c.addi4spn	x8,x2,128
  b2:	08090103          	lb	x2,128(x18)
  b6:	0100                	c.addi4spn	x8,x2,128
  b8:	08090103          	lb	x2,128(x18)
  bc:	0100                	c.addi4spn	x8,x2,128
  be:	08090203          	lb	x4,128(x18)
  c2:	0100                	c.addi4spn	x8,x2,128
  c4:	04090103          	lb	x2,64(x18)
  c8:	0100                	c.addi4spn	x8,x2,128
  ca:	04090103          	lb	x2,64(x18)
  ce:	0100                	c.addi4spn	x8,x2,128
  d0:	04090103          	lb	x2,64(x18)
  d4:	0100                	c.addi4spn	x8,x2,128
  d6:	04090103          	lb	x2,64(x18)
  da:	0100                	c.addi4spn	x8,x2,128
  dc:	04090103          	lb	x2,64(x18)
  e0:	0100                	c.addi4spn	x8,x2,128
  e2:	04090203          	lb	x4,64(x18)
  e6:	0100                	c.addi4spn	x8,x2,128
  e8:	04090503          	lb	x10,64(x18)
  ec:	0100                	c.addi4spn	x8,x2,128
  ee:	08090103          	lb	x2,128(x18)
  f2:	0100                	c.addi4spn	x8,x2,128
  f4:	04090103          	lb	x2,64(x18)
  f8:	0100                	c.addi4spn	x8,x2,128
  fa:	04090203          	lb	x4,64(x18)
  fe:	0100                	c.addi4spn	x8,x2,128
 100:	04090103          	lb	x2,64(x18)
 104:	0100                	c.addi4spn	x8,x2,128
 106:	04090103          	lb	x2,64(x18)
 10a:	0100                	c.addi4spn	x8,x2,128
 10c:	04090103          	lb	x2,64(x18)
 110:	0100                	c.addi4spn	x8,x2,128
 112:	04090203          	lb	x4,64(x18)
 116:	0100                	c.addi4spn	x8,x2,128
 118:	04090503          	lb	x10,64(x18)
 11c:	0100                	c.addi4spn	x8,x2,128
 11e:	08090103          	lb	x2,128(x18)
 122:	0100                	c.addi4spn	x8,x2,128
 124:	04090103          	lb	x2,64(x18)
 128:	0100                	c.addi4spn	x8,x2,128
 12a:	04090103          	lb	x2,64(x18)
 12e:	0100                	c.addi4spn	x8,x2,128
 130:	04090103          	lb	x2,64(x18)
 134:	0100                	c.addi4spn	x8,x2,128
 136:	08090103          	lb	x2,128(x18)
 13a:	0100                	c.addi4spn	x8,x2,128
 13c:	04090103          	lb	x2,64(x18)
 140:	0100                	c.addi4spn	x8,x2,128
 142:	04090203          	lb	x4,64(x18)
 146:	0100                	c.addi4spn	x8,x2,128
 148:	08090103          	lb	x2,128(x18)
 14c:	0100                	c.addi4spn	x8,x2,128
 14e:	08090103          	lb	x2,128(x18)
 152:	0100                	c.addi4spn	x8,x2,128
 154:	04090203          	lb	x4,64(x18)
 158:	0100                	c.addi4spn	x8,x2,128
 15a:	04090103          	lb	x2,64(x18)
 15e:	0100                	c.addi4spn	x8,x2,128
 160:	04090103          	lb	x2,64(x18)
 164:	0100                	c.addi4spn	x8,x2,128
 166:	04090103          	lb	x2,64(x18)
 16a:	0100                	c.addi4spn	x8,x2,128
 16c:	04090203          	lb	x4,64(x18)
 170:	0100                	c.addi4spn	x8,x2,128
 172:	08090103          	lb	x2,128(x18)
 176:	0100                	c.addi4spn	x8,x2,128
 178:	04090103          	lb	x2,64(x18)
 17c:	0100                	c.addi4spn	x8,x2,128
 17e:	04090103          	lb	x2,64(x18)
 182:	0100                	c.addi4spn	x8,x2,128
 184:	04090203          	lb	x4,64(x18)
 188:	0100                	c.addi4spn	x8,x2,128
 18a:	04090103          	lb	x2,64(x18)
 18e:	0100                	c.addi4spn	x8,x2,128
 190:	04090103          	lb	x2,64(x18)
 194:	0100                	c.addi4spn	x8,x2,128
 196:	04090103          	lb	x2,64(x18)
 19a:	0100                	c.addi4spn	x8,x2,128
 19c:	04090403          	lb	x8,64(x18)
 1a0:	0100                	c.addi4spn	x8,x2,128
 1a2:	04090203          	lb	x4,64(x18)
 1a6:	0100                	c.addi4spn	x8,x2,128
 1a8:	04090103          	lb	x2,64(x18)
 1ac:	0100                	c.addi4spn	x8,x2,128
 1ae:	04090103          	lb	x2,64(x18)
 1b2:	0100                	c.addi4spn	x8,x2,128
 1b4:	04090203          	lb	x4,64(x18)
 1b8:	0100                	c.addi4spn	x8,x2,128
 1ba:	04090103          	lb	x2,64(x18)
 1be:	0100                	c.addi4spn	x8,x2,128
 1c0:	04090103          	lb	x2,64(x18)
 1c4:	0100                	c.addi4spn	x8,x2,128
 1c6:	04090203          	lb	x4,64(x18)
 1ca:	0100                	c.addi4spn	x8,x2,128
 1cc:	0409                	c.addi	x8,2
 1ce:	0000                	c.unimp
 1d0:	0101                	c.addi	x2,0

Disassembly of section .debug_info:

0000000000000000 <.debug_info>:
   0:	002a                	c.slli	x0,0xa
   2:	0000                	c.unimp
   4:	0002                	c.slli64	x0
   6:	0000                	c.unimp
   8:	0000                	c.unimp
   a:	0108                	c.addi4spn	x10,x2,128
   c:	0000                	c.unimp
   e:	0000                	c.unimp
  10:	0000                	c.unimp
  12:	2000                	c.fld	f8,0(x8)
  14:	0000                	c.unimp
  16:	0000                	c.unimp
  18:	0144                	c.addi4spn	x9,x2,132
  1a:	2000                	c.fld	f8,0(x8)
	...
  24:	0008                	0x8
  26:	0000                	c.unimp
  28:	0052                	c.slli	x0,0x14
  2a:	0000                	c.unimp
  2c:	8001                	c.srli64	x8

Disassembly of section .debug_abbrev:

0000000000000000 <.debug_abbrev>:
   0:	1101                	c.addi	x2,-32
   2:	1000                	c.addi4spn	x8,x2,32
   4:	1106                	c.slli	x2,0x21
   6:	1201                	c.addi	x4,-32
   8:	0301                	c.addi	x6,0
   a:	1b0e                	c.slli	x22,0x23
   c:	250e                	c.fldsp	f10,192(x2)
   e:	130e                	c.slli	x6,0x23
  10:	0005                	c.addi	x0,1
	...

Disassembly of section .debug_aranges:

0000000000000000 <.debug_aranges>:
   0:	002c                	c.addi4spn	x11,x2,8
   2:	0000                	c.unimp
   4:	0002                	c.slli64	x0
   6:	0000                	c.unimp
   8:	0000                	c.unimp
   a:	0008                	0x8
   c:	0000                	c.unimp
   e:	0000                	c.unimp
  10:	0000                	c.unimp
  12:	2000                	c.fld	f8,0(x8)
  14:	0000                	c.unimp
  16:	0000                	c.unimp
  18:	0144                	c.addi4spn	x9,x2,132
	...

Disassembly of section .debug_str:

0000000000000000 <.debug_str>:
   0:	6e65                	c.lui	x28,0x19
   2:	7274                	c.ld	x13,224(x12)
   4:	2e79                	c.addiw	x28,30
   6:	682f0053          	0x682f0053
   a:	2f656d6f          	jal	x26,56300 <_binary_loader_binary_bin_size+0x51060>
   e:	676f6873          	csrrsi	x16,0x676,30
  12:	65442f6f          	jal	x30,42666 <_binary_loader_binary_bin_size+0x3d3c6>
  16:	6f746b73          	csrrsi	x22,0x6f7,8
  1a:	2f70                	c.fld	f12,216(x14)
  1c:	3442                	c.fldsp	f8,48(x2)
  1e:	702d                	c.lui	x0,0xfffeb
  20:	6f72                	c.ldsp	x30,280(x2)
  22:	73736563          	bltu	x6,x23,74c <_binary_loader_binary_bin_size-0x4b54>
  26:	722f726f          	jal	x4,f7748 <_binary_loader_binary_bin_size+0xf24a8>
  2a:	7369                	c.lui	x6,0xffffa
  2c:	732d7663          	bgeu	x26,x18,758 <_binary_loader_binary_bin_size-0x4b48>
  30:	6d61                	c.lui	x26,0x18
  32:	6c70                	c.ld	x12,216(x8)
  34:	2d65                	c.addiw	x26,25
  36:	7270                	c.ld	x12,224(x12)
  38:	6172676f          	jal	x14,26e4e <_binary_loader_binary_bin_size+0x21bae>
  3c:	736d                	c.lui	x6,0xffffb
  3e:	6d69732f          	0x6d69732f
  42:	6c70                	c.ld	x12,216(x8)
  44:	5f65                	c.li	x30,-7
  46:	6f6c                	c.ld	x11,216(x14)
  48:	6461                	c.lui	x8,0x18
  4a:	7265                	c.lui	x4,0xffff9
  4c:	755f 7261 0074      	0x747261755f
  52:	20554e47          	fmsub.s	f28,f10,f5,f4,rmm
  56:	5341                	c.li	x6,-16
  58:	3220                	c.fld	f8,96(x12)
  5a:	332e                	c.fldsp	f6,232(x2)
  5c:	2e35                	c.addiw	x28,13
  5e:	0031                	c.addi	x0,12
