
fibonacci_c_opt.o:     file format elf64-littleriscv


Disassembly of section .text:

0000000040000000 <_start>:
    40000000:	00100113          	addi	x2,x0,1
    40000004:	01f11113          	slli	x2,x2,0x1f
    40000008:	20010113          	addi	x2,x2,512
    4000000c:	40000597          	auipc	x11,0x40000
    40000010:	ff458593          	addi	x11,x11,-12 # 80000000 <loop_count>
    40000014:	0005a503          	lw	x10,0(x11)
    40000018:	040000ef          	jal	x1,40000058 <main>
    4000001c:	00050193          	addi	x3,x10,0
    40000020:	0000006f          	jal	x0,40000020 <_start+0x20>

0000000040000024 <fibonacci>:
    40000024:	00050613          	addi	x12,x10,0
    40000028:	02a05463          	bge	x0,x10,40000050 <fibonacci+0x2c>
    4000002c:	00000713          	addi	x14,x0,0
    40000030:	00100793          	addi	x15,x0,1
    40000034:	00100693          	addi	x13,x0,1
    40000038:	00078513          	addi	x10,x15,0
    4000003c:	0017071b          	addiw	x14,x14,1
    40000040:	00d787b3          	add	x15,x15,x13
    40000044:	00050693          	addi	x13,x10,0
    40000048:	fee618e3          	bne	x12,x14,40000038 <fibonacci+0x14>
    4000004c:	00008067          	jalr	x0,0(x1)
    40000050:	00100513          	addi	x10,x0,1
    40000054:	00008067          	jalr	x0,0(x1)

0000000040000058 <main>:
    40000058:	00050613          	addi	x12,x10,0
    4000005c:	02a05463          	bge	x0,x10,40000084 <main+0x2c>
    40000060:	00000713          	addi	x14,x0,0
    40000064:	00100793          	addi	x15,x0,1
    40000068:	00100693          	addi	x13,x0,1
    4000006c:	00078513          	addi	x10,x15,0
    40000070:	0017071b          	addiw	x14,x14,1
    40000074:	00d787b3          	add	x15,x15,x13
    40000078:	00050693          	addi	x13,x10,0
    4000007c:	fee618e3          	bne	x12,x14,4000006c <main+0x14>
    40000080:	00008067          	jalr	x0,0(x1)
    40000084:	00100513          	addi	x10,x0,1
    40000088:	00008067          	jalr	x0,0(x1)
