
loop_c.o:     file format elf64-littleriscv


Disassembly of section .text:

0000000040000000 <_start>:
    40000000:	00100113          	addi	x2,x0,1
    40000004:	01f11113          	slli	x2,x2,0x1f
    40000008:	20010113          	addi	x2,x2,512
    4000000c:	068000ef          	jal	x1,40000074 <main>
    40000010:	00050193          	addi	x3,x10,0
    40000014:	0000006f          	jal	x0,40000014 <_start+0x14>

0000000040000018 <func>:
    40000018:	fe010113          	addi	x2,x2,-32
    4000001c:	00813c23          	sd	x8,24(x2)
    40000020:	02010413          	addi	x8,x2,32
    40000024:	fe042623          	sw	x0,-20(x8)
    40000028:	fe042423          	sw	x0,-24(x8)
    4000002c:	0240006f          	jal	x0,40000050 <func+0x38>

    40000030:	fec42783          	lw	x15,-20(x8)
    40000034:	00078713          	addi	x14,x15,0
    40000038:	fe842783          	lw	x15,-24(x8)
    4000003c:	00f707bb          	addw	x15,x14,x15
    40000040:	fef42623          	sw	x15,-20(x8)
    40000044:	fe842783          	lw	x15,-24(x8)
    40000048:	0017879b          	addiw	x15,x15,1
    4000004c:	fef42423          	sw	x15,-24(x8)
    40000050:	fe842783          	lw	x15,-24(x8)
    40000054:	0007871b          	addiw	x14,x15,0
    40000058:	00900793          	addi	x15,x0,9
    4000005c:	fce7dae3          	bge	x15,x14,40000030 <func+0x18>

    40000060:	fec42783          	lw	x15,-20(x8)
    40000064:	00078513          	addi	x10,x15,0
    40000068:	01813403          	ld	x8,24(x2)
    4000006c:	02010113          	addi	x2,x2,32
    40000070:	00008067          	jalr	x0,0(x1)

0000000040000074 <main>:
    40000074:	fe010113          	addi	x2,x2,-32
    40000078:	00113c23          	sd	x1,24(x2)
    4000007c:	00813823          	sd	x8,16(x2)
    40000080:	02010413          	addi	x8,x2,32
    40000084:	f95ff0ef          	jal	x1,40000018 <func>
    40000088:	00050793          	addi	x15,x10,0
    4000008c:	fef42623          	sw	x15,-20(x8)
    40000090:	fec42783          	lw	x15,-20(x8)
    40000094:	00078513          	addi	x10,x15,0
    40000098:	01813083          	ld	x1,24(x2)
    4000009c:	01013403          	ld	x8,16(x2)
    400000a0:	02010113          	addi	x2,x2,32
    400000a4:	00008067          	jalr	x0,0(x1)
