
loop_c.o:     file format elf64-littleriscv


Disassembly of section .text:

0000000040000000 <_start>:
    40000000:	00100113          	addi	x2,x0,1
    40000004:	01f11113          	slli	x2,x2,0x1f
    40000008:	20010113          	addi	x2,x2,512
    4000000c:	080000ef          	jal	x1,4000008c <main>
    40000010:	00050193          	addi	x3,x10,0
    40000014:	0000006f          	jal	x0,40000014 <_start+0x14>

0000000040000018 <func>:
    40000018:	fe010113          	addi	x2,x2,-32
    4000001c:	00813c23          	sd	x8,24(x2)
    40000020:	02010413          	addi	x8,x2,32
    40000024:	fe042623          	sw	x0,-20(x8)
    40000028:	00100793          	addi	x15,x0,1
    4000002c:	fef42423          	sw	x15,-24(x8)
    40000030:	0380006f          	jal	x0,40000068 <func+0x50>
    40000034:	fec42783          	lw	x15,-20(x8)
    40000038:	00078713          	addi	x14,x15,0
    4000003c:	fe842783          	lw	x15,-24(x8)
    40000040:	00f707bb          	addw	x15,x14,x15
    40000044:	fef42623          	sw	x15,-20(x8)
    40000048:	fec42783          	lw	x15,-20(x8)
    4000004c:	00078713          	addi	x14,x15,0
    40000050:	fe842783          	lw	x15,-24(x8)
    40000054:	00f707bb          	addw	x15,x14,x15
    40000058:	fef42623          	sw	x15,-20(x8)
    4000005c:	fe842783          	lw	x15,-24(x8)
    40000060:	0017879b          	addiw	x15,x15,1
    40000064:	fef42423          	sw	x15,-24(x8)
    40000068:	fe842783          	lw	x15,-24(x8)
    4000006c:	0007871b          	addiw	x14,x15,0
    40000070:	00500793          	addi	x15,x0,5
    40000074:	fce7d0e3          	bge	x15,x14,40000034 <func+0x1c>
    40000078:	fec42783          	lw	x15,-20(x8)
    4000007c:	00078513          	addi	x10,x15,0
    40000080:	01813403          	ld	x8,24(x2)
    40000084:	02010113          	addi	x2,x2,32
    40000088:	00008067          	jalr	x0,0(x1)

000000004000008c <main>:
    4000008c:	fe010113          	addi	x2,x2,-32
    40000090:	00113c23          	sd	x1,24(x2)
    40000094:	00813823          	sd	x8,16(x2)
    40000098:	02010413          	addi	x8,x2,32
    4000009c:	f7dff0ef          	jal	x1,40000018 <func>
    400000a0:	00050793          	addi	x15,x10,0
    400000a4:	fef42623          	sw	x15,-20(x8)
    400000a8:	fec42783          	lw	x15,-20(x8)
    400000ac:	00078513          	addi	x10,x15,0
    400000b0:	01813083          	ld	x1,24(x2)
    400000b4:	01013403          	ld	x8,16(x2)
    400000b8:	02010113          	addi	x2,x2,32
    400000bc:	00008067          	jalr	x0,0(x1)

Disassembly of section .riscv.attributes:

0000000000000000 <.riscv.attributes>:
   0:	1b41                	.2byte	0x1b41
   2:	0000                	.2byte	0x0
   4:	7200                	.2byte	0x7200
   6:	7369                	.2byte	0x7369
   8:	01007663          	bgeu	x0,x16,14 <_start-0x3fffffec>
   c:	0011                	.2byte	0x11
   e:	0000                	.2byte	0x0
  10:	1004                	.2byte	0x1004
  12:	7205                	.2byte	0x7205
  14:	3676                	.2byte	0x3676
  16:	6934                	.2byte	0x6934
  18:	7032                	.2byte	0x7032
  1a:	0031                	.2byte	0x31

Disassembly of section .comment:

0000000000000000 <.comment>:
   0:	3a434347          	.4byte	0x3a434347
   4:	2820                	.2byte	0x2820
   6:	7241                	.2byte	0x7241
   8:	4c206863          	bltu	x0,x2,4d8 <_start-0x3ffffb28>
   c:	6e69                	.2byte	0x6e69
   e:	7875                	.2byte	0x7875
  10:	5220                	.2byte	0x5220
  12:	7065                	.2byte	0x7065
  14:	7469736f          	jal	x6,9775a <_start-0x3ff688a6>
  18:	6569726f          	jal	x4,9766e <_start-0x3ff68992>
  1c:	31202973          	.4byte	0x31202973
  20:	2e32                	.2byte	0x2e32
  22:	2e32                	.2byte	0x2e32
  24:	0030                	.2byte	0x30
