
calculation_c.o:     file format elf64-littleriscv


Disassembly of section .text:

0000000040000000 <_start>:
    40000000:	00100113          	addi	x2,x0,1
    40000004:	01f11113          	slli	x2,x2,0x1f
    40000008:	20010113          	addi	x2,x2,512
    4000000c:	0a0000ef          	jal	x1,400000ac <main>
    40000010:	00050193          	addi	x3,x10,0
    40000014:	0000006f          	jal	x0,40000014 <_start+0x14>

0000000040000018 <func>:
    40000018:	fd010113          	addi	x2,x2,-48
    4000001c:	02813423          	sd	x8,40(x2)
    40000020:	03010413          	addi	x8,x2,48
    40000024:	00500793          	addi	x15,x0,5
    40000028:	fef42623          	sw	x15,-20(x8)
    4000002c:	00300793          	addi	x15,x0,3
    40000030:	fef42423          	sw	x15,-24(x8)
    40000034:	fec42703          	lw	x14,-20(x8)
    40000038:	fe842783          	lw	x15,-24(x8)
    4000003c:	00f707bb          	addw	x15,x14,x15
    40000040:	fef42223          	sw	x15,-28(x8)
    40000044:	fec42703          	lw	x14,-20(x8)
    40000048:	fe842783          	lw	x15,-24(x8)
    4000004c:	40f707bb          	subw	x15,x14,x15
    40000050:	fef42023          	sw	x15,-32(x8)
    40000054:	fec42703          	lw	x14,-20(x8)
    40000058:	fe842783          	lw	x15,-24(x8)
    4000005c:	00f777b3          	and	x15,x14,x15
    40000060:	fcf42e23          	sw	x15,-36(x8)
    40000064:	fec42703          	lw	x14,-20(x8)
    40000068:	fe842783          	lw	x15,-24(x8)
    4000006c:	00f767b3          	or	x15,x14,x15
    40000070:	fcf42c23          	sw	x15,-40(x8)
    40000074:	fe442703          	lw	x14,-28(x8)
    40000078:	fe042783          	lw	x15,-32(x8)
    4000007c:	00f707bb          	addw	x15,x14,x15
    40000080:	0007879b          	addiw	x15,x15,0
    40000084:	fdc42703          	lw	x14,-36(x8)
    40000088:	00f707bb          	addw	x15,x14,x15
    4000008c:	0007879b          	addiw	x15,x15,0
    40000090:	fd842703          	lw	x14,-40(x8)
    40000094:	00f707bb          	addw	x15,x14,x15
    40000098:	0007879b          	addiw	x15,x15,0
    4000009c:	00078513          	addi	x10,x15,0
    400000a0:	02813403          	ld	x8,40(x2)
    400000a4:	03010113          	addi	x2,x2,48
    400000a8:	00008067          	jalr	x0,0(x1)

00000000400000ac <main>:
    400000ac:	fe010113          	addi	x2,x2,-32
    400000b0:	00113c23          	sd	x1,24(x2)
    400000b4:	00813823          	sd	x8,16(x2)
    400000b8:	02010413          	addi	x8,x2,32
    400000bc:	f5dff0ef          	jal	x1,40000018 <func>
    400000c0:	00050793          	addi	x15,x10,0
    400000c4:	fef42623          	sw	x15,-20(x8)
    400000c8:	fec42783          	lw	x15,-20(x8)
    400000cc:	00078513          	addi	x10,x15,0
    400000d0:	01813083          	ld	x1,24(x2)
    400000d4:	01013403          	ld	x8,16(x2)
    400000d8:	02010113          	addi	x2,x2,32
    400000dc:	00008067          	jalr	x0,0(x1)
