
fibonacci_c.o:     file format elf64-littleriscv


Disassembly of section .text:

0000000040000000 <_start>:
    40000000:	00100113          	addi	x2,x0,1
    40000004:	01f11113          	slli	x2,x2,0x1f
    40000008:	20010113          	addi	x2,x2,512
    4000000c:	40000597          	auipc	x11,0x40000
    40000010:	ff458593          	addi	x11,x11,-12 # 80000000 <loop_count>
    40000014:	0005a503          	lw	x10,0(x11)
    40000018:	08c000ef          	jal	x1,400000a4 <main>
    4000001c:	00050193          	addi	x3,x10,0
    40000020:	0000006f          	jal	x0,40000020 <_start+0x20>

0000000040000024 <fibonacci>:
    40000024:	fd010113          	addi	x2,x2,-48
    40000028:	02813423          	sd	x8,40(x2)
    4000002c:	03010413          	addi	x8,x2,48
    40000030:	00050793          	addi	x15,x10,0
    40000034:	fcf42e23          	sw	x15,-36(x8)
    40000038:	00100793          	addi	x15,x0,1
    4000003c:	fef42623          	sw	x15,-20(x8)
    40000040:	00100793          	addi	x15,x0,1
    40000044:	fef42423          	sw	x15,-24(x8)
    40000048:	fe042223          	sw	x0,-28(x8)
    4000004c:	0300006f          	jal	x0,4000007c <fibonacci+0x58>
    40000050:	fec42703          	lw	x14,-20(x8)
    40000054:	fe842783          	lw	x15,-24(x8)
    40000058:	00f707bb          	addw	x15,x14,x15
    4000005c:	fef42023          	sw	x15,-32(x8)
    40000060:	fe842783          	lw	x15,-24(x8)
    40000064:	fef42623          	sw	x15,-20(x8)
    40000068:	fe042783          	lw	x15,-32(x8)
    4000006c:	fef42423          	sw	x15,-24(x8)
    40000070:	fe442783          	lw	x15,-28(x8)
    40000074:	0017879b          	addiw	x15,x15,1
    40000078:	fef42223          	sw	x15,-28(x8)
    4000007c:	fe442703          	lw	x14,-28(x8)
    40000080:	fdc42783          	lw	x15,-36(x8)
    40000084:	0007071b          	addiw	x14,x14,0
    40000088:	0007879b          	addiw	x15,x15,0
    4000008c:	fcf742e3          	blt	x14,x15,40000050 <fibonacci+0x2c>
    40000090:	fec42783          	lw	x15,-20(x8)
    40000094:	00078513          	addi	x10,x15,0
    40000098:	02813403          	ld	x8,40(x2)
    4000009c:	03010113          	addi	x2,x2,48
    400000a0:	00008067          	jalr	x0,0(x1)

00000000400000a4 <main>:
    400000a4:	fd010113          	addi	x2,x2,-48
    400000a8:	02113423          	sd	x1,40(x2)
    400000ac:	02813023          	sd	x8,32(x2)
    400000b0:	03010413          	addi	x8,x2,48
    400000b4:	00050793          	addi	x15,x10,0
    400000b8:	fcf42e23          	sw	x15,-36(x8)
    400000bc:	fdc42783          	lw	x15,-36(x8)
    400000c0:	00078513          	addi	x10,x15,0
    400000c4:	f61ff0ef          	jal	x1,40000024 <fibonacci>
    400000c8:	00050793          	addi	x15,x10,0
    400000cc:	fef42623          	sw	x15,-20(x8)
    400000d0:	fec42783          	lw	x15,-20(x8)
    400000d4:	00078513          	addi	x10,x15,0
    400000d8:	02813083          	ld	x1,40(x2)
    400000dc:	02013403          	ld	x8,32(x2)
    400000e0:	03010113          	addi	x2,x2,48
    400000e4:	00008067          	jalr	x0,0(x1)
