
fibonacci_c.o:     file format elf64-littleriscv


Disassembly of section .text:

0000000040000000 <_start>:
    40000000:	00100113          	addi	x2,x0,1
    40000004:	01f11113          	slli	x2,x2,0x1f
    40000008:	20010113          	addi	x2,x2,512
    4000000c:	00000597          	auipc	x11,0x0
    40000010:	0e458593          	addi	x11,x11,228 # 400000f0 <loop_count>
    40000014:	0005a503          	lw	x10,0(x11)
    40000018:	094000ef          	jal	x1,400000ac <main>
    4000001c:	00050193          	addi	x3,x10,0
    40000020:	0000006f          	jal	x0,40000020 <_start+0x20>

0000000040000024 <fibonacci>:
    40000024:	fd010113          	addi	x2,x2,-48
    40000028:	02813423          	sd	x8,40(x2)
    4000002c:	03010413          	addi	x8,x2,48
    40000030:	00050793          	addi	x15,x10,0
    40000034:	fcf42e23          	sw	x15,-36(x8)
    40000038:	00100793          	addi	x15,x0,1
    4000003c:	fef42623          	sw	x15,-20(x8)
    40000040:	00100793          	addi	x15,x0,1
    40000044:	fef42423          	sw	x15,-24(x8)
    40000048:	fe042223          	sw	x0,-28(x8)
    4000004c:	0340006f          	jal	x0,40000080 <fibonacci+0x5c>
    40000050:	fec42783          	lw	x15,-20(x8)
    40000054:	00078713          	addi	x14,x15,0
    40000058:	fe842783          	lw	x15,-24(x8)
    4000005c:	00f707bb          	addw	x15,x14,x15
    40000060:	fef42023          	sw	x15,-32(x8)
    40000064:	fe842783          	lw	x15,-24(x8)
    40000068:	fef42623          	sw	x15,-20(x8)
    4000006c:	fe042783          	lw	x15,-32(x8)
    40000070:	fef42423          	sw	x15,-24(x8)
    40000074:	fe442783          	lw	x15,-28(x8)
    40000078:	0017879b          	addiw	x15,x15,1
    4000007c:	fef42223          	sw	x15,-28(x8)
    40000080:	fe442783          	lw	x15,-28(x8)
    40000084:	00078713          	addi	x14,x15,0
    40000088:	fdc42783          	lw	x15,-36(x8)
    4000008c:	0007071b          	addiw	x14,x14,0
    40000090:	0007879b          	addiw	x15,x15,0
    40000094:	faf74ee3          	blt	x14,x15,40000050 <fibonacci+0x2c>
    40000098:	fec42783          	lw	x15,-20(x8)
    4000009c:	00078513          	addi	x10,x15,0
    400000a0:	02813403          	ld	x8,40(x2)
    400000a4:	03010113          	addi	x2,x2,48
    400000a8:	00008067          	jalr	x0,0(x1)

00000000400000ac <main>:
    400000ac:	fd010113          	addi	x2,x2,-48
    400000b0:	02113423          	sd	x1,40(x2)
    400000b4:	02813023          	sd	x8,32(x2)
    400000b8:	03010413          	addi	x8,x2,48
    400000bc:	00050793          	addi	x15,x10,0
    400000c0:	fcf42e23          	sw	x15,-36(x8)
    400000c4:	fdc42783          	lw	x15,-36(x8)
    400000c8:	00078513          	addi	x10,x15,0
    400000cc:	f59ff0ef          	jal	x1,40000024 <fibonacci>
    400000d0:	00050793          	addi	x15,x10,0
    400000d4:	fef42623          	sw	x15,-20(x8)
    400000d8:	fec42783          	lw	x15,-20(x8)
    400000dc:	00078513          	addi	x10,x15,0
    400000e0:	02813083          	ld	x1,40(x2)
    400000e4:	02013403          	ld	x8,32(x2)
    400000e8:	03010113          	addi	x2,x2,48
    400000ec:	00008067          	jalr	x0,0(x1)

Disassembly of section .data:

00000000400000f0 <loop_count>:
    400000f0:	07    	Address 0x00000000400000f0 is out of bounds.

    400000f4:	 

Disassembly of section .comment:

0000000000000000 <.comment>:
   0:	3a434347          	.4byte	0x3a434347
   4:	2820                	.2byte	0x2820
   6:	7241                	.2byte	0x7241
   8:	4c206863          	bltu	x0,x2,4d8 <_start-0x3ffffb28>
   c:	6e69                	.2byte	0x6e69
   e:	7875                	.2byte	0x7875
  10:	5220                	.2byte	0x5220
  12:	7065                	.2byte	0x7065
  14:	7469736f          	jal	x6,9775a <_start-0x3ff688a6>
  18:	6569726f          	jal	x4,9766e <_start-0x3ff68992>
  1c:	31202973          	.4byte	0x31202973
  20:	2e32                	.2byte	0x2e32
  22:	2e32                	.2byte	0x2e32
  24:	0030                	.2byte	0x30

Disassembly of section .riscv.attributes:

0000000000000000 <.riscv.attributes>:
   0:	1b41                	.2byte	0x1b41
   2:	0000                	.2byte	0x0
   4:	7200                	.2byte	0x7200
   6:	7369                	.2byte	0x7369
   8:	01007663          	bgeu	x0,x16,14 <_start-0x3fffffec>
   c:	0011                	.2byte	0x11
   e:	0000                	.2byte	0x0
  10:	1004                	.2byte	0x1004
  12:	7205                	.2byte	0x7205
  14:	3676                	.2byte	0x3676
  16:	6934                	.2byte	0x6934
  18:	7032                	.2byte	0x7032
  1a:	0031                	.2byte	0x31
